C000  4C F5 C5  JMP $C5F5                       A:00 X:00 Y:00 P:24 SP:FD PPU:  0, 21
C5F5  A2 00     LDX #$00                        A:00 X:00 Y:00 P:24 SP:FD PPU:  0, 30
C5F7  86 00     STX $00 = 00                    A:00 X:00 Y:00 P:26 SP:FD PPU:  0, 36
C5F9  86 10     STX $10 = 00                    A:00 X:00 Y:00 P:26 SP:FD PPU:  0, 45
C5FB  86 11     STX $11 = 00                    A:00 X:00 Y:00 P:26 SP:FD PPU:  0, 54
C5FD  20 2D C7  JSR $C72D                       A:00 X:00 Y:00 P:26 SP:FD PPU:  0, 63
C72D  EA        NOP                             A:00 X:00 Y:00 P:26 SP:FB PPU:  0, 81
C72E  38        SEC                             A:00 X:00 Y:00 P:26 SP:FB PPU:  0, 87
C72F  B0 04     BCS $C735                       A:00 X:00 Y:00 P:27 SP:FB PPU:  0, 93
C735  EA        NOP                             A:00 X:00 Y:00 P:27 SP:FB PPU:  0,102
C736  18        CLC                             A:00 X:00 Y:00 P:27 SP:FB PPU:  0,108
C737  B0 03     BCS $C73C                       A:00 X:00 Y:00 P:26 SP:FB PPU:  0,114
C739  4C 40 C7  JMP $C740                       A:00 X:00 Y:00 P:26 SP:FB PPU:  0,120
C740  EA        NOP                             A:00 X:00 Y:00 P:26 SP:FB PPU:  0,129
C741  38        SEC                             A:00 X:00 Y:00 P:26 SP:FB PPU:  0,135
C742  90 03     BCC $C747                       A:00 X:00 Y:00 P:27 SP:FB PPU:  0,141
C744  4C 4B C7  JMP $C74B                       A:00 X:00 Y:00 P:27 SP:FB PPU:  0,147
C74B  EA        NOP                             A:00 X:00 Y:00 P:27 SP:FB PPU:  0,156
C74C  18        CLC                             A:00 X:00 Y:00 P:27 SP:FB PPU:  0,162
C74D  90 04     BCC $C753                       A:00 X:00 Y:00 P:26 SP:FB PPU:  0,168
C753  EA        NOP                             A:00 X:00 Y:00 P:26 SP:FB PPU:  0,177
C754  A9 00     LDA #$00                        A:00 X:00 Y:00 P:26 SP:FB PPU:  0,183
C756  F0 04     BEQ $C75C                       A:00 X:00 Y:00 P:26 SP:FB PPU:  0,189
C75C  EA        NOP                             A:00 X:00 Y:00 P:26 SP:FB PPU:  0,198
C75D  A9 40     LDA #$40                        A:00 X:00 Y:00 P:26 SP:FB PPU:  0,204
C75F  F0 03     BEQ $C764                       A:40 X:00 Y:00 P:24 SP:FB PPU:  0,210
C761  4C 68 C7  JMP $C768                       A:40 X:00 Y:00 P:24 SP:FB PPU:  0,216
C768  EA        NOP                             A:40 X:00 Y:00 P:24 SP:FB PPU:  0,225
C769  A9 40     LDA #$40                        A:40 X:00 Y:00 P:24 SP:FB PPU:  0,231
C76B  D0 04     BNE $C771                       A:40 X:00 Y:00 P:24 SP:FB PPU:  0,237
C771  EA        NOP                             A:40 X:00 Y:00 P:24 SP:FB PPU:  0,246
C772  A9 00     LDA #$00                        A:40 X:00 Y:00 P:24 SP:FB PPU:  0,252
C774  D0 03     BNE $C779                       A:00 X:00 Y:00 P:26 SP:FB PPU:  0,258
C776  4C 7D C7  JMP $C77D                       A:00 X:00 Y:00 P:26 SP:FB PPU:  0,264
C77D  EA        NOP                             A:00 X:00 Y:00 P:26 SP:FB PPU:  0,273
C77E  A9 FF     LDA #$FF                        A:00 X:00 Y:00 P:26 SP:FB PPU:  0,279
C780  85 01     STA $01 = 00                    A:FF X:00 Y:00 P:A4 SP:FB PPU:  0,285
C782  24 01     BIT $01 = FF                    A:FF X:00 Y:00 P:A4 SP:FB PPU:  0,294
C784  70 04     BVS $C78A                       A:FF X:00 Y:00 P:E4 SP:FB PPU:  0,303
C78A  EA        NOP                             A:FF X:00 Y:00 P:E4 SP:FB PPU:  0,312
C78B  24 01     BIT $01 = FF                    A:FF X:00 Y:00 P:E4 SP:FB PPU:  0,318
C78D  50 03     BVC $C792                       A:FF X:00 Y:00 P:E4 SP:FB PPU:  0,327
C78F  4C 96 C7  JMP $C796                       A:FF X:00 Y:00 P:E4 SP:FB PPU:  0,333
C796  EA        NOP                             A:FF X:00 Y:00 P:E4 SP:FB PPU:  1,  1
C797  A9 00     LDA #$00                        A:FF X:00 Y:00 P:E4 SP:FB PPU:  1,  7
C799  85 01     STA $01 = FF                    A:00 X:00 Y:00 P:66 SP:FB PPU:  1, 13
C79B  24 01     BIT $01 = 00                    A:00 X:00 Y:00 P:66 SP:FB PPU:  1, 22
C79D  50 04     BVC $C7A3                       A:00 X:00 Y:00 P:26 SP:FB PPU:  1, 31
C7A3  EA        NOP                             A:00 X:00 Y:00 P:26 SP:FB PPU:  1, 40
C7A4  24 01     BIT $01 = 00                    A:00 X:00 Y:00 P:26 SP:FB PPU:  1, 46
C7A6  70 03     BVS $C7AB                       A:00 X:00 Y:00 P:26 SP:FB PPU:  1, 55
C7A8  4C AF C7  JMP $C7AF                       A:00 X:00 Y:00 P:26 SP:FB PPU:  1, 61
C7AF  EA        NOP                             A:00 X:00 Y:00 P:26 SP:FB PPU:  1, 70
C7B0  A9 00     LDA #$00                        A:00 X:00 Y:00 P:26 SP:FB PPU:  1, 76
C7B2  10 04     BPL $C7B8                       A:00 X:00 Y:00 P:26 SP:FB PPU:  1, 82
C7B8  EA        NOP                             A:00 X:00 Y:00 P:26 SP:FB PPU:  1, 91
C7B9  A9 80     LDA #$80                        A:00 X:00 Y:00 P:26 SP:FB PPU:  1, 97
C7BB  10 03     BPL $C7C0                       A:80 X:00 Y:00 P:A4 SP:FB PPU:  1,103
C7BD  4C D9 C7  JMP $C7D9                       A:80 X:00 Y:00 P:A4 SP:FB PPU:  1,109
C7D9  EA        NOP                             A:80 X:00 Y:00 P:A4 SP:FB PPU:  1,118
C7DA  60        RTS                             A:80 X:00 Y:00 P:A4 SP:FB PPU:  1,124
C600  20 DB C7  JSR $C7DB                       A:80 X:00 Y:00 P:A4 SP:FD PPU:  1,142
C7DB  EA        NOP                             A:80 X:00 Y:00 P:A4 SP:FB PPU:  1,160
C7DC  A9 FF     LDA #$FF                        A:80 X:00 Y:00 P:A4 SP:FB PPU:  1,166
C7DE  85 01     STA $01 = 00                    A:FF X:00 Y:00 P:A4 SP:FB PPU:  1,172
C7E0  24 01     BIT $01 = FF                    A:FF X:00 Y:00 P:A4 SP:FB PPU:  1,181
C7E2  A9 00     LDA #$00                        A:FF X:00 Y:00 P:E4 SP:FB PPU:  1,190
C7E4  38        SEC                             A:00 X:00 Y:00 P:66 SP:FB PPU:  1,196
C7E5  78        SEI                             A:00 X:00 Y:00 P:67 SP:FB PPU:  1,202
C7E6  F8        SED                             A:00 X:00 Y:00 P:67 SP:FB PPU:  1,208
C7E7  08        PHP                             A:00 X:00 Y:00 P:6F SP:FB PPU:  1,214
C7E8  68        PLA                             A:00 X:00 Y:00 P:6F SP:FA PPU:  1,223
C7E9  29 EF     AND #$EF                        A:7F X:00 Y:00 P:6D SP:FB PPU:  1,235
C7EB  C9 6F     CMP #$6F                        A:6F X:00 Y:00 P:6D SP:FB PPU:  1,241
C7ED  F0 04     BEQ $C7F3                       A:6F X:00 Y:00 P:6F SP:FB PPU:  1,247
C7F3  EA        NOP                             A:6F X:00 Y:00 P:6F SP:FB PPU:  1,256
C7F4  A9 40     LDA #$40                        A:6F X:00 Y:00 P:6F SP:FB PPU:  1,262
C7F6  85 01     STA $01 = FF                    A:40 X:00 Y:00 P:6D SP:FB PPU:  1,268
C7F8  24 01     BIT $01 = 40                    A:40 X:00 Y:00 P:6D SP:FB PPU:  1,277
C7FA  D8        CLD                             A:40 X:00 Y:00 P:6D SP:FB PPU:  1,286
C7FB  A9 10     LDA #$10                        A:40 X:00 Y:00 P:65 SP:FB PPU:  1,292
C7FD  18        CLC                             A:10 X:00 Y:00 P:65 SP:FB PPU:  1,298
C7FE  08        PHP                             A:10 X:00 Y:00 P:64 SP:FB PPU:  1,304
C7FF  68        PLA                             A:10 X:00 Y:00 P:64 SP:FA PPU:  1,313
C800  29 EF     AND #$EF                        A:74 X:00 Y:00 P:64 SP:FB PPU:  1,325
C802  C9 64     CMP #$64                        A:64 X:00 Y:00 P:64 SP:FB PPU:  1,331
C804  F0 04     BEQ $C80A                       A:64 X:00 Y:00 P:67 SP:FB PPU:  1,337
C80A  EA        NOP                             A:64 X:00 Y:00 P:67 SP:FB PPU:  2,  5
C80B  A9 80     LDA #$80                        A:64 X:00 Y:00 P:67 SP:FB PPU:  2, 11
C80D  85 01     STA $01 = 40                    A:80 X:00 Y:00 P:E5 SP:FB PPU:  2, 17
C80F  24 01     BIT $01 = 80                    A:80 X:00 Y:00 P:E5 SP:FB PPU:  2, 26
C811  F8        SED                             A:80 X:00 Y:00 P:A5 SP:FB PPU:  2, 35
C812  A9 00     LDA #$00                        A:80 X:00 Y:00 P:AD SP:FB PPU:  2, 41
C814  38        SEC                             A:00 X:00 Y:00 P:2F SP:FB PPU:  2, 47
C815  08        PHP                             A:00 X:00 Y:00 P:2F SP:FB PPU:  2, 53
C816  68        PLA                             A:00 X:00 Y:00 P:2F SP:FA PPU:  2, 62
C817  29 EF     AND #$EF                        A:3F X:00 Y:00 P:2D SP:FB PPU:  2, 74
C819  C9 2F     CMP #$2F                        A:2F X:00 Y:00 P:2D SP:FB PPU:  2, 80
C81B  F0 04     BEQ $C821                       A:2F X:00 Y:00 P:2F SP:FB PPU:  2, 86
C821  EA        NOP                             A:2F X:00 Y:00 P:2F SP:FB PPU:  2, 95
C822  A9 FF     LDA #$FF                        A:2F X:00 Y:00 P:2F SP:FB PPU:  2,101
C824  48        PHA                             A:FF X:00 Y:00 P:AD SP:FB PPU:  2,107
C825  28        PLP                             A:FF X:00 Y:00 P:AD SP:FA PPU:  2,116
C826  D0 09     BNE $C831                       A:FF X:00 Y:00 P:EF SP:FB PPU:  2,128
C828  10 07     BPL $C831                       A:FF X:00 Y:00 P:EF SP:FB PPU:  2,134
C82A  50 05     BVC $C831                       A:FF X:00 Y:00 P:EF SP:FB PPU:  2,140
C82C  90 03     BCC $C831                       A:FF X:00 Y:00 P:EF SP:FB PPU:  2,146
C82E  4C 35 C8  JMP $C835                       A:FF X:00 Y:00 P:EF SP:FB PPU:  2,152
C835  EA        NOP                             A:FF X:00 Y:00 P:EF SP:FB PPU:  2,161
C836  A9 04     LDA #$04                        A:FF X:00 Y:00 P:EF SP:FB PPU:  2,167
C838  48        PHA                             A:04 X:00 Y:00 P:6D SP:FB PPU:  2,173
C839  28        PLP                             A:04 X:00 Y:00 P:6D SP:FA PPU:  2,182
C83A  F0 09     BEQ $C845                       A:04 X:00 Y:00 P:24 SP:FB PPU:  2,194
C83C  30 07     BMI $C845                       A:04 X:00 Y:00 P:24 SP:FB PPU:  2,200
C83E  70 05     BVS $C845                       A:04 X:00 Y:00 P:24 SP:FB PPU:  2,206
C840  B0 03     BCS $C845                       A:04 X:00 Y:00 P:24 SP:FB PPU:  2,212
C842  4C 49 C8  JMP $C849                       A:04 X:00 Y:00 P:24 SP:FB PPU:  2,218
C849  EA        NOP                             A:04 X:00 Y:00 P:24 SP:FB PPU:  2,227
C84A  F8        SED                             A:04 X:00 Y:00 P:24 SP:FB PPU:  2,233
C84B  A9 FF     LDA #$FF                        A:04 X:00 Y:00 P:2C SP:FB PPU:  2,239
C84D  85 01     STA $01 = 80                    A:FF X:00 Y:00 P:AC SP:FB PPU:  2,245
C84F  24 01     BIT $01 = FF                    A:FF X:00 Y:00 P:AC SP:FB PPU:  2,254
C851  18        CLC                             A:FF X:00 Y:00 P:EC SP:FB PPU:  2,263
C852  A9 00     LDA #$00                        A:FF X:00 Y:00 P:EC SP:FB PPU:  2,269
C854  48        PHA                             A:00 X:00 Y:00 P:6E SP:FB PPU:  2,275
C855  A9 FF     LDA #$FF                        A:00 X:00 Y:00 P:6E SP:FA PPU:  2,284
C857  68        PLA                             A:FF X:00 Y:00 P:EC SP:FA PPU:  2,290
C858  D0 09     BNE $C863                       A:00 X:00 Y:00 P:6E SP:FB PPU:  2,302
C85A  30 07     BMI $C863                       A:00 X:00 Y:00 P:6E SP:FB PPU:  2,308
C85C  50 05     BVC $C863                       A:00 X:00 Y:00 P:6E SP:FB PPU:  2,314
C85E  B0 03     BCS $C863                       A:00 X:00 Y:00 P:6E SP:FB PPU:  2,320
C860  4C 67 C8  JMP $C867                       A:00 X:00 Y:00 P:6E SP:FB PPU:  2,326
C867  EA        NOP                             A:00 X:00 Y:00 P:6E SP:FB PPU:  2,335
C868  A9 00     LDA #$00                        A:00 X:00 Y:00 P:6E SP:FB PPU:  3,  0
C86A  85 01     STA $01 = FF                    A:00 X:00 Y:00 P:6E SP:FB PPU:  3,  6
C86C  24 01     BIT $01 = 00                    A:00 X:00 Y:00 P:6E SP:FB PPU:  3, 15
C86E  38        SEC                             A:00 X:00 Y:00 P:2E SP:FB PPU:  3, 24
C86F  A9 FF     LDA #$FF                        A:00 X:00 Y:00 P:2F SP:FB PPU:  3, 30
C871  48        PHA                             A:FF X:00 Y:00 P:AD SP:FB PPU:  3, 36
C872  A9 00     LDA #$00                        A:FF X:00 Y:00 P:AD SP:FA PPU:  3, 45
C874  68        PLA                             A:00 X:00 Y:00 P:2F SP:FA PPU:  3, 51
C875  F0 09     BEQ $C880                       A:FF X:00 Y:00 P:AD SP:FB PPU:  3, 63
C877  10 07     BPL $C880                       A:FF X:00 Y:00 P:AD SP:FB PPU:  3, 69
C879  70 05     BVS $C880                       A:FF X:00 Y:00 P:AD SP:FB PPU:  3, 75
C87B  90 03     BCC $C880                       A:FF X:00 Y:00 P:AD SP:FB PPU:  3, 81
C87D  4C 84 C8  JMP $C884                       A:FF X:00 Y:00 P:AD SP:FB PPU:  3, 87
C884  60        RTS                             A:FF X:00 Y:00 P:AD SP:FB PPU:  3, 96
C603  20 85 C8  JSR $C885                       A:FF X:00 Y:00 P:AD SP:FD PPU:  3,114
C885  EA        NOP                             A:FF X:00 Y:00 P:AD SP:FB PPU:  3,132
C886  18        CLC                             A:FF X:00 Y:00 P:AD SP:FB PPU:  3,138
C887  A9 FF     LDA #$FF                        A:FF X:00 Y:00 P:AC SP:FB PPU:  3,144
C889  85 01     STA $01 = 00                    A:FF X:00 Y:00 P:AC SP:FB PPU:  3,150
C88B  24 01     BIT $01 = FF                    A:FF X:00 Y:00 P:AC SP:FB PPU:  3,159
C88D  A9 55     LDA #$55                        A:FF X:00 Y:00 P:EC SP:FB PPU:  3,168
C88F  09 AA     ORA #$AA                        A:55 X:00 Y:00 P:6C SP:FB PPU:  3,174
C891  B0 0B     BCS $C89E                       A:FF X:00 Y:00 P:EC SP:FB PPU:  3,180
C893  10 09     BPL $C89E                       A:FF X:00 Y:00 P:EC SP:FB PPU:  3,186
C895  C9 FF     CMP #$FF                        A:FF X:00 Y:00 P:EC SP:FB PPU:  3,192
C897  D0 05     BNE $C89E                       A:FF X:00 Y:00 P:6F SP:FB PPU:  3,198
C899  50 03     BVC $C89E                       A:FF X:00 Y:00 P:6F SP:FB PPU:  3,204
C89B  4C A2 C8  JMP $C8A2                       A:FF X:00 Y:00 P:6F SP:FB PPU:  3,210
C8A2  EA        NOP                             A:FF X:00 Y:00 P:6F SP:FB PPU:  3,219
C8A3  38        SEC                             A:FF X:00 Y:00 P:6F SP:FB PPU:  3,225
C8A4  B8        CLV                             A:FF X:00 Y:00 P:6F SP:FB PPU:  3,231
C8A5  A9 00     LDA #$00                        A:FF X:00 Y:00 P:2F SP:FB PPU:  3,237
C8A7  09 00     ORA #$00                        A:00 X:00 Y:00 P:2F SP:FB PPU:  3,243
C8A9  D0 09     BNE $C8B4                       A:00 X:00 Y:00 P:2F SP:FB PPU:  3,249
C8AB  70 07     BVS $C8B4                       A:00 X:00 Y:00 P:2F SP:FB PPU:  3,255
C8AD  90 05     BCC $C8B4                       A:00 X:00 Y:00 P:2F SP:FB PPU:  3,261
C8AF  30 03     BMI $C8B4                       A:00 X:00 Y:00 P:2F SP:FB PPU:  3,267
C8B1  4C B8 C8  JMP $C8B8                       A:00 X:00 Y:00 P:2F SP:FB PPU:  3,273
C8B8  EA        NOP                             A:00 X:00 Y:00 P:2F SP:FB PPU:  3,282
C8B9  18        CLC                             A:00 X:00 Y:00 P:2F SP:FB PPU:  3,288
C8BA  24 01     BIT $01 = FF                    A:00 X:00 Y:00 P:2E SP:FB PPU:  3,294
C8BC  A9 55     LDA #$55                        A:00 X:00 Y:00 P:EE SP:FB PPU:  3,303
C8BE  29 AA     AND #$AA                        A:55 X:00 Y:00 P:6C SP:FB PPU:  3,309
C8C0  D0 09     BNE $C8CB                       A:00 X:00 Y:00 P:6E SP:FB PPU:  3,315
C8C2  50 07     BVC $C8CB                       A:00 X:00 Y:00 P:6E SP:FB PPU:  3,321
C8C4  B0 05     BCS $C8CB                       A:00 X:00 Y:00 P:6E SP:FB PPU:  3,327
C8C6  30 03     BMI $C8CB                       A:00 X:00 Y:00 P:6E SP:FB PPU:  3,333
C8C8  4C CF C8  JMP $C8CF                       A:00 X:00 Y:00 P:6E SP:FB PPU:  3,339
C8CF  EA        NOP                             A:00 X:00 Y:00 P:6E SP:FB PPU:  4,  7
C8D0  38        SEC                             A:00 X:00 Y:00 P:6E SP:FB PPU:  4, 13
C8D1  B8        CLV                             A:00 X:00 Y:00 P:6F SP:FB PPU:  4, 19
C8D2  A9 F8     LDA #$F8                        A:00 X:00 Y:00 P:2F SP:FB PPU:  4, 25
C8D4  29 EF     AND #$EF                        A:F8 X:00 Y:00 P:AD SP:FB PPU:  4, 31
C8D6  90 0B     BCC $C8E3                       A:E8 X:00 Y:00 P:AD SP:FB PPU:  4, 37
C8D8  10 09     BPL $C8E3                       A:E8 X:00 Y:00 P:AD SP:FB PPU:  4, 43
C8DA  C9 E8     CMP #$E8                        A:E8 X:00 Y:00 P:AD SP:FB PPU:  4, 49
C8DC  D0 05     BNE $C8E3                       A:E8 X:00 Y:00 P:2F SP:FB PPU:  4, 55
C8DE  70 03     BVS $C8E3                       A:E8 X:00 Y:00 P:2F SP:FB PPU:  4, 61
C8E0  4C E7 C8  JMP $C8E7                       A:E8 X:00 Y:00 P:2F SP:FB PPU:  4, 67
C8E7  EA        NOP                             A:E8 X:00 Y:00 P:2F SP:FB PPU:  4, 76
C8E8  18        CLC                             A:E8 X:00 Y:00 P:2F SP:FB PPU:  4, 82
C8E9  24 01     BIT $01 = FF                    A:E8 X:00 Y:00 P:2E SP:FB PPU:  4, 88
C8EB  A9 5F     LDA #$5F                        A:E8 X:00 Y:00 P:EC SP:FB PPU:  4, 97
C8ED  49 AA     EOR #$AA                        A:5F X:00 Y:00 P:6C SP:FB PPU:  4,103
C8EF  B0 0B     BCS $C8FC                       A:F5 X:00 Y:00 P:EC SP:FB PPU:  4,109
C8F1  10 09     BPL $C8FC                       A:F5 X:00 Y:00 P:EC SP:FB PPU:  4,115
C8F3  C9 F5     CMP #$F5                        A:F5 X:00 Y:00 P:EC SP:FB PPU:  4,121
C8F5  D0 05     BNE $C8FC                       A:F5 X:00 Y:00 P:6F SP:FB PPU:  4,127
C8F7  50 03     BVC $C8FC                       A:F5 X:00 Y:00 P:6F SP:FB PPU:  4,133
C8F9  4C 00 C9  JMP $C900                       A:F5 X:00 Y:00 P:6F SP:FB PPU:  4,139
C900  EA        NOP                             A:F5 X:00 Y:00 P:6F SP:FB PPU:  4,148
C901  38        SEC                             A:F5 X:00 Y:00 P:6F SP:FB PPU:  4,154
C902  B8        CLV                             A:F5 X:00 Y:00 P:6F SP:FB PPU:  4,160
C903  A9 70     LDA #$70                        A:F5 X:00 Y:00 P:2F SP:FB PPU:  4,166
C905  49 70     EOR #$70                        A:70 X:00 Y:00 P:2D SP:FB PPU:  4,172
C907  D0 09     BNE $C912                       A:00 X:00 Y:00 P:2F SP:FB PPU:  4,178
C909  70 07     BVS $C912                       A:00 X:00 Y:00 P:2F SP:FB PPU:  4,184
C90B  90 05     BCC $C912                       A:00 X:00 Y:00 P:2F SP:FB PPU:  4,190
C90D  30 03     BMI $C912                       A:00 X:00 Y:00 P:2F SP:FB PPU:  4,196
C90F  4C 16 C9  JMP $C916                       A:00 X:00 Y:00 P:2F SP:FB PPU:  4,202
C916  EA        NOP                             A:00 X:00 Y:00 P:2F SP:FB PPU:  4,211
C917  18        CLC                             A:00 X:00 Y:00 P:2F SP:FB PPU:  4,217
C918  24 01     BIT $01 = FF                    A:00 X:00 Y:00 P:2E SP:FB PPU:  4,223
C91A  A9 00     LDA #$00                        A:00 X:00 Y:00 P:EE SP:FB PPU:  4,232
C91C  69 69     ADC #$69                        A:00 X:00 Y:00 P:6E SP:FB PPU:  4,238
C91E  30 0B     BMI $C92B                       A:69 X:00 Y:00 P:2C SP:FB PPU:  4,244
C920  B0 09     BCS $C92B                       A:69 X:00 Y:00 P:2C SP:FB PPU:  4,250
C922  C9 69     CMP #$69                        A:69 X:00 Y:00 P:2C SP:FB PPU:  4,256
C924  D0 05     BNE $C92B                       A:69 X:00 Y:00 P:2F SP:FB PPU:  4,262
C926  70 03     BVS $C92B                       A:69 X:00 Y:00 P:2F SP:FB PPU:  4,268
C928  4C 2F C9  JMP $C92F                       A:69 X:00 Y:00 P:2F SP:FB PPU:  4,274
C92F  EA        NOP                             A:69 X:00 Y:00 P:2F SP:FB PPU:  4,283
C930  38        SEC                             A:69 X:00 Y:00 P:2F SP:FB PPU:  4,289
C931  F8        SED                             A:69 X:00 Y:00 P:2F SP:FB PPU:  4,295
C932  24 01     BIT $01 = FF                    A:69 X:00 Y:00 P:2F SP:FB PPU:  4,301
C934  A9 01     LDA #$01                        A:69 X:00 Y:00 P:ED SP:FB PPU:  4,310
C936  69 69     ADC #$69                        A:01 X:00 Y:00 P:6D SP:FB PPU:  4,316
C938  30 0B     BMI $C945                       A:6B X:00 Y:00 P:2C SP:FB PPU:  4,322
C93A  B0 09     BCS $C945                       A:6B X:00 Y:00 P:2C SP:FB PPU:  4,328
C93C  C9 6B     CMP #$6B                        A:6B X:00 Y:00 P:2C SP:FB PPU:  4,334
C93E  D0 05     BNE $C945                       A:6B X:00 Y:00 P:2F SP:FB PPU:  4,340
C940  70 03     BVS $C945                       A:6B X:00 Y:00 P:2F SP:FB PPU:  5,  5
C942  4C 49 C9  JMP $C949                       A:6B X:00 Y:00 P:2F SP:FB PPU:  5, 11
C949  EA        NOP                             A:6B X:00 Y:00 P:2F SP:FB PPU:  5, 20
C94A  D8        CLD                             A:6B X:00 Y:00 P:2F SP:FB PPU:  5, 26
C94B  38        SEC                             A:6B X:00 Y:00 P:27 SP:FB PPU:  5, 32
C94C  B8        CLV                             A:6B X:00 Y:00 P:27 SP:FB PPU:  5, 38
C94D  A9 7F     LDA #$7F                        A:6B X:00 Y:00 P:27 SP:FB PPU:  5, 44
C94F  69 7F     ADC #$7F                        A:7F X:00 Y:00 P:25 SP:FB PPU:  5, 50
C951  10 0B     BPL $C95E                       A:FF X:00 Y:00 P:E4 SP:FB PPU:  5, 56
C953  B0 09     BCS $C95E                       A:FF X:00 Y:00 P:E4 SP:FB PPU:  5, 62
C955  C9 FF     CMP #$FF                        A:FF X:00 Y:00 P:E4 SP:FB PPU:  5, 68
C957  D0 05     BNE $C95E                       A:FF X:00 Y:00 P:67 SP:FB PPU:  5, 74
C959  50 03     BVC $C95E                       A:FF X:00 Y:00 P:67 SP:FB PPU:  5, 80
C95B  4C 62 C9  JMP $C962                       A:FF X:00 Y:00 P:67 SP:FB PPU:  5, 86
C962  EA        NOP                             A:FF X:00 Y:00 P:67 SP:FB PPU:  5, 95
C963  18        CLC                             A:FF X:00 Y:00 P:67 SP:FB PPU:  5,101
C964  24 01     BIT $01 = FF                    A:FF X:00 Y:00 P:66 SP:FB PPU:  5,107
C966  A9 7F     LDA #$7F                        A:FF X:00 Y:00 P:E4 SP:FB PPU:  5,116
C968  69 80     ADC #$80                        A:7F X:00 Y:00 P:64 SP:FB PPU:  5,122
C96A  10 0B     BPL $C977                       A:FF X:00 Y:00 P:A4 SP:FB PPU:  5,128
C96C  B0 09     BCS $C977                       A:FF X:00 Y:00 P:A4 SP:FB PPU:  5,134
C96E  C9 FF     CMP #$FF                        A:FF X:00 Y:00 P:A4 SP:FB PPU:  5,140
C970  D0 05     BNE $C977                       A:FF X:00 Y:00 P:27 SP:FB PPU:  5,146
C972  70 03     BVS $C977                       A:FF X:00 Y:00 P:27 SP:FB PPU:  5,152
C974  4C 7B C9  JMP $C97B                       A:FF X:00 Y:00 P:27 SP:FB PPU:  5,158
C97B  EA        NOP                             A:FF X:00 Y:00 P:27 SP:FB PPU:  5,167
C97C  38        SEC                             A:FF X:00 Y:00 P:27 SP:FB PPU:  5,173
C97D  B8        CLV                             A:FF X:00 Y:00 P:27 SP:FB PPU:  5,179
C97E  A9 7F     LDA #$7F                        A:FF X:00 Y:00 P:27 SP:FB PPU:  5,185
C980  69 80     ADC #$80                        A:7F X:00 Y:00 P:25 SP:FB PPU:  5,191
C982  D0 09     BNE $C98D                       A:00 X:00 Y:00 P:27 SP:FB PPU:  5,197
C984  30 07     BMI $C98D                       A:00 X:00 Y:00 P:27 SP:FB PPU:  5,203
C986  70 05     BVS $C98D                       A:00 X:00 Y:00 P:27 SP:FB PPU:  5,209
C988  90 03     BCC $C98D                       A:00 X:00 Y:00 P:27 SP:FB PPU:  5,215
C98A  4C 91 C9  JMP $C991                       A:00 X:00 Y:00 P:27 SP:FB PPU:  5,221
C991  EA        NOP                             A:00 X:00 Y:00 P:27 SP:FB PPU:  5,230
C992  38        SEC                             A:00 X:00 Y:00 P:27 SP:FB PPU:  5,236
C993  B8        CLV                             A:00 X:00 Y:00 P:27 SP:FB PPU:  5,242
C994  A9 9F     LDA #$9F                        A:00 X:00 Y:00 P:27 SP:FB PPU:  5,248
C996  F0 09     BEQ $C9A1                       A:9F X:00 Y:00 P:A5 SP:FB PPU:  5,254
C998  10 07     BPL $C9A1                       A:9F X:00 Y:00 P:A5 SP:FB PPU:  5,260
C99A  70 05     BVS $C9A1                       A:9F X:00 Y:00 P:A5 SP:FB PPU:  5,266
C99C  90 03     BCC $C9A1                       A:9F X:00 Y:00 P:A5 SP:FB PPU:  5,272
C99E  4C A5 C9  JMP $C9A5                       A:9F X:00 Y:00 P:A5 SP:FB PPU:  5,278
C9A5  EA        NOP                             A:9F X:00 Y:00 P:A5 SP:FB PPU:  5,287
C9A6  18        CLC                             A:9F X:00 Y:00 P:A5 SP:FB PPU:  5,293
C9A7  24 01     BIT $01 = FF                    A:9F X:00 Y:00 P:A4 SP:FB PPU:  5,299
C9A9  A9 00     LDA #$00                        A:9F X:00 Y:00 P:E4 SP:FB PPU:  5,308
C9AB  D0 09     BNE $C9B6                       A:00 X:00 Y:00 P:66 SP:FB PPU:  5,314
C9AD  30 07     BMI $C9B6                       A:00 X:00 Y:00 P:66 SP:FB PPU:  5,320
C9AF  50 05     BVC $C9B6                       A:00 X:00 Y:00 P:66 SP:FB PPU:  5,326
C9B1  B0 03     BCS $C9B6                       A:00 X:00 Y:00 P:66 SP:FB PPU:  5,332
C9B3  4C BA C9  JMP $C9BA                       A:00 X:00 Y:00 P:66 SP:FB PPU:  5,338
C9BA  EA        NOP                             A:00 X:00 Y:00 P:66 SP:FB PPU:  6,  6
C9BB  24 01     BIT $01 = FF                    A:00 X:00 Y:00 P:66 SP:FB PPU:  6, 12
C9BD  A9 40     LDA #$40                        A:00 X:00 Y:00 P:E6 SP:FB PPU:  6, 21
C9BF  C9 40     CMP #$40                        A:40 X:00 Y:00 P:64 SP:FB PPU:  6, 27
C9C1  30 09     BMI $C9CC                       A:40 X:00 Y:00 P:67 SP:FB PPU:  6, 33
C9C3  90 07     BCC $C9CC                       A:40 X:00 Y:00 P:67 SP:FB PPU:  6, 39
C9C5  D0 05     BNE $C9CC                       A:40 X:00 Y:00 P:67 SP:FB PPU:  6, 45
C9C7  50 03     BVC $C9CC                       A:40 X:00 Y:00 P:67 SP:FB PPU:  6, 51
C9C9  4C D0 C9  JMP $C9D0                       A:40 X:00 Y:00 P:67 SP:FB PPU:  6, 57
C9D0  EA        NOP                             A:40 X:00 Y:00 P:67 SP:FB PPU:  6, 66
C9D1  B8        CLV                             A:40 X:00 Y:00 P:67 SP:FB PPU:  6, 72
C9D2  C9 3F     CMP #$3F                        A:40 X:00 Y:00 P:27 SP:FB PPU:  6, 78
C9D4  F0 09     BEQ $C9DF                       A:40 X:00 Y:00 P:25 SP:FB PPU:  6, 84
C9D6  30 07     BMI $C9DF                       A:40 X:00 Y:00 P:25 SP:FB PPU:  6, 90
C9D8  90 05     BCC $C9DF                       A:40 X:00 Y:00 P:25 SP:FB PPU:  6, 96
C9DA  70 03     BVS $C9DF                       A:40 X:00 Y:00 P:25 SP:FB PPU:  6,102
C9DC  4C E3 C9  JMP $C9E3                       A:40 X:00 Y:00 P:25 SP:FB PPU:  6,108
C9E3  EA        NOP                             A:40 X:00 Y:00 P:25 SP:FB PPU:  6,117
C9E4  C9 41     CMP #$41                        A:40 X:00 Y:00 P:25 SP:FB PPU:  6,123
C9E6  F0 07     BEQ $C9EF                       A:40 X:00 Y:00 P:A4 SP:FB PPU:  6,129
C9E8  10 05     BPL $C9EF                       A:40 X:00 Y:00 P:A4 SP:FB PPU:  6,135
C9EA  10 03     BPL $C9EF                       A:40 X:00 Y:00 P:A4 SP:FB PPU:  6,141
C9EC  4C F3 C9  JMP $C9F3                       A:40 X:00 Y:00 P:A4 SP:FB PPU:  6,147
C9F3  EA        NOP                             A:40 X:00 Y:00 P:A4 SP:FB PPU:  6,156
C9F4  A9 80     LDA #$80                        A:40 X:00 Y:00 P:A4 SP:FB PPU:  6,162
C9F6  C9 00     CMP #$00                        A:80 X:00 Y:00 P:A4 SP:FB PPU:  6,168
C9F8  F0 07     BEQ $CA01                       A:80 X:00 Y:00 P:A5 SP:FB PPU:  6,174
C9FA  10 05     BPL $CA01                       A:80 X:00 Y:00 P:A5 SP:FB PPU:  6,180
C9FC  90 03     BCC $CA01                       A:80 X:00 Y:00 P:A5 SP:FB PPU:  6,186
C9FE  4C 05 CA  JMP $CA05                       A:80 X:00 Y:00 P:A5 SP:FB PPU:  6,192
CA05  EA        NOP                             A:80 X:00 Y:00 P:A5 SP:FB PPU:  6,201
CA06  C9 80     CMP #$80                        A:80 X:00 Y:00 P:A5 SP:FB PPU:  6,207
CA08  D0 07     BNE $CA11                       A:80 X:00 Y:00 P:27 SP:FB PPU:  6,213
CA0A  30 05     BMI $CA11                       A:80 X:00 Y:00 P:27 SP:FB PPU:  6,219
CA0C  90 03     BCC $CA11                       A:80 X:00 Y:00 P:27 SP:FB PPU:  6,225
CA0E  4C 15 CA  JMP $CA15                       A:80 X:00 Y:00 P:27 SP:FB PPU:  6,231
CA15  EA        NOP                             A:80 X:00 Y:00 P:27 SP:FB PPU:  6,240
CA16  C9 81     CMP #$81                        A:80 X:00 Y:00 P:27 SP:FB PPU:  6,246
CA18  B0 07     BCS $CA21                       A:80 X:00 Y:00 P:A4 SP:FB PPU:  6,252
CA1A  F0 05     BEQ $CA21                       A:80 X:00 Y:00 P:A4 SP:FB PPU:  6,258
CA1C  10 03     BPL $CA21                       A:80 X:00 Y:00 P:A4 SP:FB PPU:  6,264
CA1E  4C 25 CA  JMP $CA25                       A:80 X:00 Y:00 P:A4 SP:FB PPU:  6,270
CA25  EA        NOP                             A:80 X:00 Y:00 P:A4 SP:FB PPU:  6,279
CA26  C9 7F     CMP #$7F                        A:80 X:00 Y:00 P:A4 SP:FB PPU:  6,285
CA28  90 07     BCC $CA31                       A:80 X:00 Y:00 P:25 SP:FB PPU:  6,291
CA2A  F0 05     BEQ $CA31                       A:80 X:00 Y:00 P:25 SP:FB PPU:  6,297
CA2C  30 03     BMI $CA31                       A:80 X:00 Y:00 P:25 SP:FB PPU:  6,303
CA2E  4C 35 CA  JMP $CA35                       A:80 X:00 Y:00 P:25 SP:FB PPU:  6,309
CA35  EA        NOP                             A:80 X:00 Y:00 P:25 SP:FB PPU:  6,318
CA36  24 01     BIT $01 = FF                    A:80 X:00 Y:00 P:25 SP:FB PPU:  6,324
CA38  A0 40     LDY #$40                        A:80 X:00 Y:00 P:E5 SP:FB PPU:  6,333
CA3A  C0 40     CPY #$40                        A:80 X:00 Y:40 P:65 SP:FB PPU:  6,339
CA3C  D0 09     BNE $CA47                       A:80 X:00 Y:40 P:67 SP:FB PPU:  7,  4
CA3E  30 07     BMI $CA47                       A:80 X:00 Y:40 P:67 SP:FB PPU:  7, 10
CA40  90 05     BCC $CA47                       A:80 X:00 Y:40 P:67 SP:FB PPU:  7, 16
CA42  50 03     BVC $CA47                       A:80 X:00 Y:40 P:67 SP:FB PPU:  7, 22
CA44  4C 4B CA  JMP $CA4B                       A:80 X:00 Y:40 P:67 SP:FB PPU:  7, 28
CA4B  EA        NOP                             A:80 X:00 Y:40 P:67 SP:FB PPU:  7, 37
CA4C  B8        CLV                             A:80 X:00 Y:40 P:67 SP:FB PPU:  7, 43
CA4D  C0 3F     CPY #$3F                        A:80 X:00 Y:40 P:27 SP:FB PPU:  7, 49
CA4F  F0 09     BEQ $CA5A                       A:80 X:00 Y:40 P:25 SP:FB PPU:  7, 55
CA51  30 07     BMI $CA5A                       A:80 X:00 Y:40 P:25 SP:FB PPU:  7, 61
CA53  90 05     BCC $CA5A                       A:80 X:00 Y:40 P:25 SP:FB PPU:  7, 67
CA55  70 03     BVS $CA5A                       A:80 X:00 Y:40 P:25 SP:FB PPU:  7, 73
CA57  4C 5E CA  JMP $CA5E                       A:80 X:00 Y:40 P:25 SP:FB PPU:  7, 79
CA5E  EA        NOP                             A:80 X:00 Y:40 P:25 SP:FB PPU:  7, 88
CA5F  C0 41     CPY #$41                        A:80 X:00 Y:40 P:25 SP:FB PPU:  7, 94
CA61  F0 07     BEQ $CA6A                       A:80 X:00 Y:40 P:A4 SP:FB PPU:  7,100
CA63  10 05     BPL $CA6A                       A:80 X:00 Y:40 P:A4 SP:FB PPU:  7,106
CA65  10 03     BPL $CA6A                       A:80 X:00 Y:40 P:A4 SP:FB PPU:  7,112
CA67  4C 6E CA  JMP $CA6E                       A:80 X:00 Y:40 P:A4 SP:FB PPU:  7,118
CA6E  EA        NOP                             A:80 X:00 Y:40 P:A4 SP:FB PPU:  7,127
CA6F  A0 80     LDY #$80                        A:80 X:00 Y:40 P:A4 SP:FB PPU:  7,133
CA71  C0 00     CPY #$00                        A:80 X:00 Y:80 P:A4 SP:FB PPU:  7,139
CA73  F0 07     BEQ $CA7C                       A:80 X:00 Y:80 P:A5 SP:FB PPU:  7,145
CA75  10 05     BPL $CA7C                       A:80 X:00 Y:80 P:A5 SP:FB PPU:  7,151
CA77  90 03     BCC $CA7C                       A:80 X:00 Y:80 P:A5 SP:FB PPU:  7,157
CA79  4C 80 CA  JMP $CA80                       A:80 X:00 Y:80 P:A5 SP:FB PPU:  7,163
CA80  EA        NOP                             A:80 X:00 Y:80 P:A5 SP:FB PPU:  7,172
CA81  C0 80     CPY #$80                        A:80 X:00 Y:80 P:A5 SP:FB PPU:  7,178
CA83  D0 07     BNE $CA8C                       A:80 X:00 Y:80 P:27 SP:FB PPU:  7,184
CA85  30 05     BMI $CA8C                       A:80 X:00 Y:80 P:27 SP:FB PPU:  7,190
CA87  90 03     BCC $CA8C                       A:80 X:00 Y:80 P:27 SP:FB PPU:  7,196
CA89  4C 90 CA  JMP $CA90                       A:80 X:00 Y:80 P:27 SP:FB PPU:  7,202
CA90  EA        NOP                             A:80 X:00 Y:80 P:27 SP:FB PPU:  7,211
CA91  C0 81     CPY #$81                        A:80 X:00 Y:80 P:27 SP:FB PPU:  7,217
CA93  B0 07     BCS $CA9C                       A:80 X:00 Y:80 P:A4 SP:FB PPU:  7,223
CA95  F0 05     BEQ $CA9C                       A:80 X:00 Y:80 P:A4 SP:FB PPU:  7,229
CA97  10 03     BPL $CA9C                       A:80 X:00 Y:80 P:A4 SP:FB PPU:  7,235
CA99  4C A0 CA  JMP $CAA0                       A:80 X:00 Y:80 P:A4 SP:FB PPU:  7,241
CAA0  EA        NOP                             A:80 X:00 Y:80 P:A4 SP:FB PPU:  7,250
CAA1  C0 7F     CPY #$7F                        A:80 X:00 Y:80 P:A4 SP:FB PPU:  7,256
CAA3  90 07     BCC $CAAC                       A:80 X:00 Y:80 P:25 SP:FB PPU:  7,262
CAA5  F0 05     BEQ $CAAC                       A:80 X:00 Y:80 P:25 SP:FB PPU:  7,268
CAA7  30 03     BMI $CAAC                       A:80 X:00 Y:80 P:25 SP:FB PPU:  7,274
CAA9  4C B0 CA  JMP $CAB0                       A:80 X:00 Y:80 P:25 SP:FB PPU:  7,280
CAB0  EA        NOP                             A:80 X:00 Y:80 P:25 SP:FB PPU:  7,289
CAB1  24 01     BIT $01 = FF                    A:80 X:00 Y:80 P:25 SP:FB PPU:  7,295
CAB3  A2 40     LDX #$40                        A:80 X:00 Y:80 P:E5 SP:FB PPU:  7,304
CAB5  E0 40     CPX #$40                        A:80 X:40 Y:80 P:65 SP:FB PPU:  7,310
CAB7  D0 09     BNE $CAC2                       A:80 X:40 Y:80 P:67 SP:FB PPU:  7,316
CAB9  30 07     BMI $CAC2                       A:80 X:40 Y:80 P:67 SP:FB PPU:  7,322
CABB  90 05     BCC $CAC2                       A:80 X:40 Y:80 P:67 SP:FB PPU:  7,328
CABD  50 03     BVC $CAC2                       A:80 X:40 Y:80 P:67 SP:FB PPU:  7,334
CABF  4C C6 CA  JMP $CAC6                       A:80 X:40 Y:80 P:67 SP:FB PPU:  7,340
CAC6  EA        NOP                             A:80 X:40 Y:80 P:67 SP:FB PPU:  8,  8
CAC7  B8        CLV                             A:80 X:40 Y:80 P:67 SP:FB PPU:  8, 14
CAC8  E0 3F     CPX #$3F                        A:80 X:40 Y:80 P:27 SP:FB PPU:  8, 20
CACA  F0 09     BEQ $CAD5                       A:80 X:40 Y:80 P:25 SP:FB PPU:  8, 26
CACC  30 07     BMI $CAD5                       A:80 X:40 Y:80 P:25 SP:FB PPU:  8, 32
CACE  90 05     BCC $CAD5                       A:80 X:40 Y:80 P:25 SP:FB PPU:  8, 38
CAD0  70 03     BVS $CAD5                       A:80 X:40 Y:80 P:25 SP:FB PPU:  8, 44
CAD2  4C D9 CA  JMP $CAD9                       A:80 X:40 Y:80 P:25 SP:FB PPU:  8, 50
CAD9  EA        NOP                             A:80 X:40 Y:80 P:25 SP:FB PPU:  8, 59
CADA  E0 41     CPX #$41                        A:80 X:40 Y:80 P:25 SP:FB PPU:  8, 65
CADC  F0 07     BEQ $CAE5                       A:80 X:40 Y:80 P:A4 SP:FB PPU:  8, 71
CADE  10 05     BPL $CAE5                       A:80 X:40 Y:80 P:A4 SP:FB PPU:  8, 77
CAE0  10 03     BPL $CAE5                       A:80 X:40 Y:80 P:A4 SP:FB PPU:  8, 83
CAE2  4C E9 CA  JMP $CAE9                       A:80 X:40 Y:80 P:A4 SP:FB PPU:  8, 89
CAE9  EA        NOP                             A:80 X:40 Y:80 P:A4 SP:FB PPU:  8, 98
CAEA  A2 80     LDX #$80                        A:80 X:40 Y:80 P:A4 SP:FB PPU:  8,104
CAEC  E0 00     CPX #$00                        A:80 X:80 Y:80 P:A4 SP:FB PPU:  8,110
CAEE  F0 07     BEQ $CAF7                       A:80 X:80 Y:80 P:A5 SP:FB PPU:  8,116
CAF0  10 05     BPL $CAF7                       A:80 X:80 Y:80 P:A5 SP:FB PPU:  8,122
CAF2  90 03     BCC $CAF7                       A:80 X:80 Y:80 P:A5 SP:FB PPU:  8,128
CAF4  4C FB CA  JMP $CAFB                       A:80 X:80 Y:80 P:A5 SP:FB PPU:  8,134
CAFB  EA        NOP                             A:80 X:80 Y:80 P:A5 SP:FB PPU:  8,143
CAFC  E0 80     CPX #$80                        A:80 X:80 Y:80 P:A5 SP:FB PPU:  8,149
CAFE  D0 07     BNE $CB07                       A:80 X:80 Y:80 P:27 SP:FB PPU:  8,155
CB00  30 05     BMI $CB07                       A:80 X:80 Y:80 P:27 SP:FB PPU:  8,161
CB02  90 03     BCC $CB07                       A:80 X:80 Y:80 P:27 SP:FB PPU:  8,167
CB04  4C 0B CB  JMP $CB0B                       A:80 X:80 Y:80 P:27 SP:FB PPU:  8,173
CB0B  EA        NOP                             A:80 X:80 Y:80 P:27 SP:FB PPU:  8,182
CB0C  E0 81     CPX #$81                        A:80 X:80 Y:80 P:27 SP:FB PPU:  8,188
CB0E  B0 07     BCS $CB17                       A:80 X:80 Y:80 P:A4 SP:FB PPU:  8,194
CB10  F0 05     BEQ $CB17                       A:80 X:80 Y:80 P:A4 SP:FB PPU:  8,200
CB12  10 03     BPL $CB17                       A:80 X:80 Y:80 P:A4 SP:FB PPU:  8,206
CB14  4C 1B CB  JMP $CB1B                       A:80 X:80 Y:80 P:A4 SP:FB PPU:  8,212
CB1B  EA        NOP                             A:80 X:80 Y:80 P:A4 SP:FB PPU:  8,221
CB1C  E0 7F     CPX #$7F                        A:80 X:80 Y:80 P:A4 SP:FB PPU:  8,227
CB1E  90 07     BCC $CB27                       A:80 X:80 Y:80 P:25 SP:FB PPU:  8,233
CB20  F0 05     BEQ $CB27                       A:80 X:80 Y:80 P:25 SP:FB PPU:  8,239
CB22  30 03     BMI $CB27                       A:80 X:80 Y:80 P:25 SP:FB PPU:  8,245
CB24  4C 2B CB  JMP $CB2B                       A:80 X:80 Y:80 P:25 SP:FB PPU:  8,251
CB2B  EA        NOP                             A:80 X:80 Y:80 P:25 SP:FB PPU:  8,260
CB2C  38        SEC                             A:80 X:80 Y:80 P:25 SP:FB PPU:  8,266
CB2D  B8        CLV                             A:80 X:80 Y:80 P:25 SP:FB PPU:  8,272
CB2E  A2 9F     LDX #$9F                        A:80 X:80 Y:80 P:25 SP:FB PPU:  8,278
CB30  F0 09     BEQ $CB3B                       A:80 X:9F Y:80 P:A5 SP:FB PPU:  8,284
CB32  10 07     BPL $CB3B                       A:80 X:9F Y:80 P:A5 SP:FB PPU:  8,290
CB34  70 05     BVS $CB3B                       A:80 X:9F Y:80 P:A5 SP:FB PPU:  8,296
CB36  90 03     BCC $CB3B                       A:80 X:9F Y:80 P:A5 SP:FB PPU:  8,302
CB38  4C 3F CB  JMP $CB3F                       A:80 X:9F Y:80 P:A5 SP:FB PPU:  8,308
CB3F  EA        NOP                             A:80 X:9F Y:80 P:A5 SP:FB PPU:  8,317
CB40  18        CLC                             A:80 X:9F Y:80 P:A5 SP:FB PPU:  8,323
CB41  24 01     BIT $01 = FF                    A:80 X:9F Y:80 P:A4 SP:FB PPU:  8,329
CB43  A2 00     LDX #$00                        A:80 X:9F Y:80 P:E4 SP:FB PPU:  8,338
CB45  D0 09     BNE $CB50                       A:80 X:00 Y:80 P:66 SP:FB PPU:  9,  3
CB47  30 07     BMI $CB50                       A:80 X:00 Y:80 P:66 SP:FB PPU:  9,  9
CB49  50 05     BVC $CB50                       A:80 X:00 Y:80 P:66 SP:FB PPU:  9, 15
CB4B  B0 03     BCS $CB50                       A:80 X:00 Y:80 P:66 SP:FB PPU:  9, 21
CB4D  4C 54 CB  JMP $CB54                       A:80 X:00 Y:80 P:66 SP:FB PPU:  9, 27
CB54  EA        NOP                             A:80 X:00 Y:80 P:66 SP:FB PPU:  9, 36
CB55  38        SEC                             A:80 X:00 Y:80 P:66 SP:FB PPU:  9, 42
CB56  B8        CLV                             A:80 X:00 Y:80 P:67 SP:FB PPU:  9, 48
CB57  A0 9F     LDY #$9F                        A:80 X:00 Y:80 P:27 SP:FB PPU:  9, 54
CB59  F0 09     BEQ $CB64                       A:80 X:00 Y:9F P:A5 SP:FB PPU:  9, 60
CB5B  10 07     BPL $CB64                       A:80 X:00 Y:9F P:A5 SP:FB PPU:  9, 66
CB5D  70 05     BVS $CB64                       A:80 X:00 Y:9F P:A5 SP:FB PPU:  9, 72
CB5F  90 03     BCC $CB64                       A:80 X:00 Y:9F P:A5 SP:FB PPU:  9, 78
CB61  4C 68 CB  JMP $CB68                       A:80 X:00 Y:9F P:A5 SP:FB PPU:  9, 84
CB68  EA        NOP                             A:80 X:00 Y:9F P:A5 SP:FB PPU:  9, 93
CB69  18        CLC                             A:80 X:00 Y:9F P:A5 SP:FB PPU:  9, 99
CB6A  24 01     BIT $01 = FF                    A:80 X:00 Y:9F P:A4 SP:FB PPU:  9,105
CB6C  A0 00     LDY #$00                        A:80 X:00 Y:9F P:E4 SP:FB PPU:  9,114
CB6E  D0 09     BNE $CB79                       A:80 X:00 Y:00 P:66 SP:FB PPU:  9,120
CB70  30 07     BMI $CB79                       A:80 X:00 Y:00 P:66 SP:FB PPU:  9,126
CB72  50 05     BVC $CB79                       A:80 X:00 Y:00 P:66 SP:FB PPU:  9,132
CB74  B0 03     BCS $CB79                       A:80 X:00 Y:00 P:66 SP:FB PPU:  9,138
CB76  4C 7D CB  JMP $CB7D                       A:80 X:00 Y:00 P:66 SP:FB PPU:  9,144
CB7D  EA        NOP                             A:80 X:00 Y:00 P:66 SP:FB PPU:  9,153
CB7E  A9 55     LDA #$55                        A:80 X:00 Y:00 P:66 SP:FB PPU:  9,159
CB80  A2 AA     LDX #$AA                        A:55 X:00 Y:00 P:64 SP:FB PPU:  9,165
CB82  A0 33     LDY #$33                        A:55 X:AA Y:00 P:E4 SP:FB PPU:  9,171
CB84  C9 55     CMP #$55                        A:55 X:AA Y:33 P:64 SP:FB PPU:  9,177
CB86  D0 23     BNE $CBAB                       A:55 X:AA Y:33 P:67 SP:FB PPU:  9,183
CB88  E0 AA     CPX #$AA                        A:55 X:AA Y:33 P:67 SP:FB PPU:  9,189
CB8A  D0 1F     BNE $CBAB                       A:55 X:AA Y:33 P:67 SP:FB PPU:  9,195
CB8C  C0 33     CPY #$33                        A:55 X:AA Y:33 P:67 SP:FB PPU:  9,201
CB8E  D0 1B     BNE $CBAB                       A:55 X:AA Y:33 P:67 SP:FB PPU:  9,207
CB90  C9 55     CMP #$55                        A:55 X:AA Y:33 P:67 SP:FB PPU:  9,213
CB92  D0 17     BNE $CBAB                       A:55 X:AA Y:33 P:67 SP:FB PPU:  9,219
CB94  E0 AA     CPX #$AA                        A:55 X:AA Y:33 P:67 SP:FB PPU:  9,225
CB96  D0 13     BNE $CBAB                       A:55 X:AA Y:33 P:67 SP:FB PPU:  9,231
CB98  C0 33     CPY #$33                        A:55 X:AA Y:33 P:67 SP:FB PPU:  9,237
CB9A  D0 0F     BNE $CBAB                       A:55 X:AA Y:33 P:67 SP:FB PPU:  9,243
CB9C  C9 56     CMP #$56                        A:55 X:AA Y:33 P:67 SP:FB PPU:  9,249
CB9E  F0 0B     BEQ $CBAB                       A:55 X:AA Y:33 P:E4 SP:FB PPU:  9,255
CBA0  E0 AB     CPX #$AB                        A:55 X:AA Y:33 P:E4 SP:FB PPU:  9,261
CBA2  F0 07     BEQ $CBAB                       A:55 X:AA Y:33 P:E4 SP:FB PPU:  9,267
CBA4  C0 34     CPY #$34                        A:55 X:AA Y:33 P:E4 SP:FB PPU:  9,273
CBA6  F0 03     BEQ $CBAB                       A:55 X:AA Y:33 P:E4 SP:FB PPU:  9,279
CBA8  4C AF CB  JMP $CBAF                       A:55 X:AA Y:33 P:E4 SP:FB PPU:  9,285
CBAF  A0 71     LDY #$71                        A:55 X:AA Y:33 P:E4 SP:FB PPU:  9,294
CBB1  20 31 F9  JSR $F931                       A:55 X:AA Y:71 P:64 SP:FB PPU:  9,300
F931  24 01     BIT $01 = FF                    A:55 X:AA Y:71 P:64 SP:F9 PPU:  9,318
F933  A9 40     LDA #$40                        A:55 X:AA Y:71 P:E4 SP:F9 PPU:  9,327
F935  38        SEC                             A:40 X:AA Y:71 P:64 SP:F9 PPU:  9,333
F936  60        RTS                             A:40 X:AA Y:71 P:65 SP:F9 PPU:  9,339
CBB4  E9 40     SBC #$40                        A:40 X:AA Y:71 P:65 SP:FB PPU: 10, 16
CBB6  20 37 F9  JSR $F937                       A:00 X:AA Y:71 P:27 SP:FB PPU: 10, 22
F937  30 0B     BMI $F944                       A:00 X:AA Y:71 P:27 SP:F9 PPU: 10, 40
F939  90 09     BCC $F944                       A:00 X:AA Y:71 P:27 SP:F9 PPU: 10, 46
F93B  D0 07     BNE $F944                       A:00 X:AA Y:71 P:27 SP:F9 PPU: 10, 52
F93D  70 05     BVS $F944                       A:00 X:AA Y:71 P:27 SP:F9 PPU: 10, 58
F93F  C9 00     CMP #$00                        A:00 X:AA Y:71 P:27 SP:F9 PPU: 10, 64
F941  D0 01     BNE $F944                       A:00 X:AA Y:71 P:27 SP:F9 PPU: 10, 70
F943  60        RTS                             A:00 X:AA Y:71 P:27 SP:F9 PPU: 10, 76
CBB9  C8        INY                             A:00 X:AA Y:71 P:27 SP:FB PPU: 10, 94
CBBA  20 47 F9  JSR $F947                       A:00 X:AA Y:72 P:25 SP:FB PPU: 10,100
F947  B8        CLV                             A:00 X:AA Y:72 P:25 SP:F9 PPU: 10,118
F948  38        SEC                             A:00 X:AA Y:72 P:25 SP:F9 PPU: 10,124
F949  A9 40     LDA #$40                        A:00 X:AA Y:72 P:25 SP:F9 PPU: 10,130
F94B  60        RTS                             A:40 X:AA Y:72 P:25 SP:F9 PPU: 10,136
CBBD  E9 3F     SBC #$3F                        A:40 X:AA Y:72 P:25 SP:FB PPU: 10,154
CBBF  20 4C F9  JSR $F94C                       A:01 X:AA Y:72 P:25 SP:FB PPU: 10,160
F94C  F0 0B     BEQ $F959                       A:01 X:AA Y:72 P:25 SP:F9 PPU: 10,178
F94E  30 09     BMI $F959                       A:01 X:AA Y:72 P:25 SP:F9 PPU: 10,184
F950  90 07     BCC $F959                       A:01 X:AA Y:72 P:25 SP:F9 PPU: 10,190
F952  70 05     BVS $F959                       A:01 X:AA Y:72 P:25 SP:F9 PPU: 10,196
F954  C9 01     CMP #$01                        A:01 X:AA Y:72 P:25 SP:F9 PPU: 10,202
F956  D0 01     BNE $F959                       A:01 X:AA Y:72 P:27 SP:F9 PPU: 10,208
F958  60        RTS                             A:01 X:AA Y:72 P:27 SP:F9 PPU: 10,214
CBC2  C8        INY                             A:01 X:AA Y:72 P:27 SP:FB PPU: 10,232
CBC3  20 5C F9  JSR $F95C                       A:01 X:AA Y:73 P:25 SP:FB PPU: 10,238
F95C  A9 40     LDA #$40                        A:01 X:AA Y:73 P:25 SP:F9 PPU: 10,256
F95E  38        SEC                             A:40 X:AA Y:73 P:25 SP:F9 PPU: 10,262
F95F  24 01     BIT $01 = FF                    A:40 X:AA Y:73 P:25 SP:F9 PPU: 10,268
F961  60        RTS                             A:40 X:AA Y:73 P:E5 SP:F9 PPU: 10,277
CBC6  E9 41     SBC #$41                        A:40 X:AA Y:73 P:E5 SP:FB PPU: 10,295
CBC8  20 62 F9  JSR $F962                       A:FF X:AA Y:73 P:A4 SP:FB PPU: 10,301
F962  B0 0B     BCS $F96F                       A:FF X:AA Y:73 P:A4 SP:F9 PPU: 10,319
F964  F0 09     BEQ $F96F                       A:FF X:AA Y:73 P:A4 SP:F9 PPU: 10,325
F966  10 07     BPL $F96F                       A:FF X:AA Y:73 P:A4 SP:F9 PPU: 10,331
F968  70 05     BVS $F96F                       A:FF X:AA Y:73 P:A4 SP:F9 PPU: 10,337
F96A  C9 FF     CMP #$FF                        A:FF X:AA Y:73 P:A4 SP:F9 PPU: 11,  2
F96C  D0 01     BNE $F96F                       A:FF X:AA Y:73 P:27 SP:F9 PPU: 11,  8
F96E  60        RTS                             A:FF X:AA Y:73 P:27 SP:F9 PPU: 11, 14
CBCB  C8        INY                             A:FF X:AA Y:73 P:27 SP:FB PPU: 11, 32
CBCC  20 72 F9  JSR $F972                       A:FF X:AA Y:74 P:25 SP:FB PPU: 11, 38
F972  18        CLC                             A:FF X:AA Y:74 P:25 SP:F9 PPU: 11, 56
F973  A9 80     LDA #$80                        A:FF X:AA Y:74 P:24 SP:F9 PPU: 11, 62
F975  60        RTS                             A:80 X:AA Y:74 P:A4 SP:F9 PPU: 11, 68
CBCF  E9 00     SBC #$00                        A:80 X:AA Y:74 P:A4 SP:FB PPU: 11, 86
CBD1  20 76 F9  JSR $F976                       A:7F X:AA Y:74 P:65 SP:FB PPU: 11, 92
F976  90 05     BCC $F97D                       A:7F X:AA Y:74 P:65 SP:F9 PPU: 11,110
F978  C9 7F     CMP #$7F                        A:7F X:AA Y:74 P:65 SP:F9 PPU: 11,116
F97A  D0 01     BNE $F97D                       A:7F X:AA Y:74 P:67 SP:F9 PPU: 11,122
F97C  60        RTS                             A:7F X:AA Y:74 P:67 SP:F9 PPU: 11,128
CBD4  C8        INY                             A:7F X:AA Y:74 P:67 SP:FB PPU: 11,146
CBD5  20 80 F9  JSR $F980                       A:7F X:AA Y:75 P:65 SP:FB PPU: 11,152
F980  38        SEC                             A:7F X:AA Y:75 P:65 SP:F9 PPU: 11,170
F981  A9 81     LDA #$81                        A:7F X:AA Y:75 P:65 SP:F9 PPU: 11,176
F983  60        RTS                             A:81 X:AA Y:75 P:E5 SP:F9 PPU: 11,182
CBD8  E9 7F     SBC #$7F                        A:81 X:AA Y:75 P:E5 SP:FB PPU: 11,200
CBDA  20 84 F9  JSR $F984                       A:02 X:AA Y:75 P:65 SP:FB PPU: 11,206
F984  50 07     BVC $F98D                       A:02 X:AA Y:75 P:65 SP:F9 PPU: 11,224
F986  90 05     BCC $F98D                       A:02 X:AA Y:75 P:65 SP:F9 PPU: 11,230
F988  C9 02     CMP #$02                        A:02 X:AA Y:75 P:65 SP:F9 PPU: 11,236
F98A  D0 01     BNE $F98D                       A:02 X:AA Y:75 P:67 SP:F9 PPU: 11,242
F98C  60        RTS                             A:02 X:AA Y:75 P:67 SP:F9 PPU: 11,248
CBDD  60        RTS                             A:02 X:AA Y:75 P:67 SP:FB PPU: 11,266
C606  20 DE CB  JSR $CBDE                       A:02 X:AA Y:75 P:67 SP:FD PPU: 11,284
CBDE  EA        NOP                             A:02 X:AA Y:75 P:67 SP:FB PPU: 11,302
CBDF  A9 FF     LDA #$FF                        A:02 X:AA Y:75 P:67 SP:FB PPU: 11,308
CBE1  85 01     STA $01 = FF                    A:FF X:AA Y:75 P:E5 SP:FB PPU: 11,314
CBE3  A9 44     LDA #$44                        A:FF X:AA Y:75 P:E5 SP:FB PPU: 11,323
CBE5  A2 55     LDX #$55                        A:44 X:AA Y:75 P:65 SP:FB PPU: 11,329
CBE7  A0 66     LDY #$66                        A:44 X:55 Y:75 P:65 SP:FB PPU: 11,335
CBE9  E8        INX                             A:44 X:55 Y:66 P:65 SP:FB PPU: 12,  0
CBEA  88        DEY                             A:44 X:56 Y:66 P:65 SP:FB PPU: 12,  6
CBEB  E0 56     CPX #$56                        A:44 X:56 Y:65 P:65 SP:FB PPU: 12, 12
CBED  D0 21     BNE $CC10                       A:44 X:56 Y:65 P:67 SP:FB PPU: 12, 18
CBEF  C0 65     CPY #$65                        A:44 X:56 Y:65 P:67 SP:FB PPU: 12, 24
CBF1  D0 1D     BNE $CC10                       A:44 X:56 Y:65 P:67 SP:FB PPU: 12, 30
CBF3  E8        INX                             A:44 X:56 Y:65 P:67 SP:FB PPU: 12, 36
CBF4  E8        INX                             A:44 X:57 Y:65 P:65 SP:FB PPU: 12, 42
CBF5  88        DEY                             A:44 X:58 Y:65 P:65 SP:FB PPU: 12, 48
CBF6  88        DEY                             A:44 X:58 Y:64 P:65 SP:FB PPU: 12, 54
CBF7  E0 58     CPX #$58                        A:44 X:58 Y:63 P:65 SP:FB PPU: 12, 60
CBF9  D0 15     BNE $CC10                       A:44 X:58 Y:63 P:67 SP:FB PPU: 12, 66
CBFB  C0 63     CPY #$63                        A:44 X:58 Y:63 P:67 SP:FB PPU: 12, 72
CBFD  D0 11     BNE $CC10                       A:44 X:58 Y:63 P:67 SP:FB PPU: 12, 78
CBFF  CA        DEX                             A:44 X:58 Y:63 P:67 SP:FB PPU: 12, 84
CC00  C8        INY                             A:44 X:57 Y:63 P:65 SP:FB PPU: 12, 90
CC01  E0 57     CPX #$57                        A:44 X:57 Y:64 P:65 SP:FB PPU: 12, 96
CC03  D0 0B     BNE $CC10                       A:44 X:57 Y:64 P:67 SP:FB PPU: 12,102
CC05  C0 64     CPY #$64                        A:44 X:57 Y:64 P:67 SP:FB PPU: 12,108
CC07  D0 07     BNE $CC10                       A:44 X:57 Y:64 P:67 SP:FB PPU: 12,114
CC09  C9 44     CMP #$44                        A:44 X:57 Y:64 P:67 SP:FB PPU: 12,120
CC0B  D0 03     BNE $CC10                       A:44 X:57 Y:64 P:67 SP:FB PPU: 12,126
CC0D  4C 14 CC  JMP $CC14                       A:44 X:57 Y:64 P:67 SP:FB PPU: 12,132
CC14  EA        NOP                             A:44 X:57 Y:64 P:67 SP:FB PPU: 12,141
CC15  38        SEC                             A:44 X:57 Y:64 P:67 SP:FB PPU: 12,147
CC16  A2 69     LDX #$69                        A:44 X:57 Y:64 P:67 SP:FB PPU: 12,153
CC18  A9 96     LDA #$96                        A:44 X:69 Y:64 P:65 SP:FB PPU: 12,159
CC1A  24 01     BIT $01 = FF                    A:96 X:69 Y:64 P:E5 SP:FB PPU: 12,165
CC1C  A0 FF     LDY #$FF                        A:96 X:69 Y:64 P:E5 SP:FB PPU: 12,174
CC1E  C8        INY                             A:96 X:69 Y:FF P:E5 SP:FB PPU: 12,180
CC1F  D0 3D     BNE $CC5E                       A:96 X:69 Y:00 P:67 SP:FB PPU: 12,186
CC21  30 3B     BMI $CC5E                       A:96 X:69 Y:00 P:67 SP:FB PPU: 12,192
CC23  90 39     BCC $CC5E                       A:96 X:69 Y:00 P:67 SP:FB PPU: 12,198
CC25  50 37     BVC $CC5E                       A:96 X:69 Y:00 P:67 SP:FB PPU: 12,204
CC27  C0 00     CPY #$00                        A:96 X:69 Y:00 P:67 SP:FB PPU: 12,210
CC29  D0 33     BNE $CC5E                       A:96 X:69 Y:00 P:67 SP:FB PPU: 12,216
CC2B  C8        INY                             A:96 X:69 Y:00 P:67 SP:FB PPU: 12,222
CC2C  F0 30     BEQ $CC5E                       A:96 X:69 Y:01 P:65 SP:FB PPU: 12,228
CC2E  30 2E     BMI $CC5E                       A:96 X:69 Y:01 P:65 SP:FB PPU: 12,234
CC30  90 2C     BCC $CC5E                       A:96 X:69 Y:01 P:65 SP:FB PPU: 12,240
CC32  50 2A     BVC $CC5E                       A:96 X:69 Y:01 P:65 SP:FB PPU: 12,246
CC34  18        CLC                             A:96 X:69 Y:01 P:65 SP:FB PPU: 12,252
CC35  B8        CLV                             A:96 X:69 Y:01 P:64 SP:FB PPU: 12,258
CC36  A0 00     LDY #$00                        A:96 X:69 Y:01 P:24 SP:FB PPU: 12,264
CC38  88        DEY                             A:96 X:69 Y:00 P:26 SP:FB PPU: 12,270
CC39  F0 23     BEQ $CC5E                       A:96 X:69 Y:FF P:A4 SP:FB PPU: 12,276
CC3B  10 21     BPL $CC5E                       A:96 X:69 Y:FF P:A4 SP:FB PPU: 12,282
CC3D  B0 1F     BCS $CC5E                       A:96 X:69 Y:FF P:A4 SP:FB PPU: 12,288
CC3F  70 1D     BVS $CC5E                       A:96 X:69 Y:FF P:A4 SP:FB PPU: 12,294
CC41  C0 FF     CPY #$FF                        A:96 X:69 Y:FF P:A4 SP:FB PPU: 12,300
CC43  D0 19     BNE $CC5E                       A:96 X:69 Y:FF P:27 SP:FB PPU: 12,306
CC45  18        CLC                             A:96 X:69 Y:FF P:27 SP:FB PPU: 12,312
CC46  88        DEY                             A:96 X:69 Y:FF P:26 SP:FB PPU: 12,318
CC47  F0 15     BEQ $CC5E                       A:96 X:69 Y:FE P:A4 SP:FB PPU: 12,324
CC49  10 13     BPL $CC5E                       A:96 X:69 Y:FE P:A4 SP:FB PPU: 12,330
CC4B  B0 11     BCS $CC5E                       A:96 X:69 Y:FE P:A4 SP:FB PPU: 12,336
CC4D  70 0F     BVS $CC5E                       A:96 X:69 Y:FE P:A4 SP:FB PPU: 13,  1
CC4F  C0 FE     CPY #$FE                        A:96 X:69 Y:FE P:A4 SP:FB PPU: 13,  7
CC51  D0 0B     BNE $CC5E                       A:96 X:69 Y:FE P:27 SP:FB PPU: 13, 13
CC53  C9 96     CMP #$96                        A:96 X:69 Y:FE P:27 SP:FB PPU: 13, 19
CC55  D0 07     BNE $CC5E                       A:96 X:69 Y:FE P:27 SP:FB PPU: 13, 25
CC57  E0 69     CPX #$69                        A:96 X:69 Y:FE P:27 SP:FB PPU: 13, 31
CC59  D0 03     BNE $CC5E                       A:96 X:69 Y:FE P:27 SP:FB PPU: 13, 37
CC5B  4C 62 CC  JMP $CC62                       A:96 X:69 Y:FE P:27 SP:FB PPU: 13, 43
CC62  EA        NOP                             A:96 X:69 Y:FE P:27 SP:FB PPU: 13, 52
CC63  38        SEC                             A:96 X:69 Y:FE P:27 SP:FB PPU: 13, 58
CC64  A0 69     LDY #$69                        A:96 X:69 Y:FE P:27 SP:FB PPU: 13, 64
CC66  A9 96     LDA #$96                        A:96 X:69 Y:69 P:25 SP:FB PPU: 13, 70
CC68  24 01     BIT $01 = FF                    A:96 X:69 Y:69 P:A5 SP:FB PPU: 13, 76
CC6A  A2 FF     LDX #$FF                        A:96 X:69 Y:69 P:E5 SP:FB PPU: 13, 85
CC6C  E8        INX                             A:96 X:FF Y:69 P:E5 SP:FB PPU: 13, 91
CC6D  D0 3D     BNE $CCAC                       A:96 X:00 Y:69 P:67 SP:FB PPU: 13, 97
CC6F  30 3B     BMI $CCAC                       A:96 X:00 Y:69 P:67 SP:FB PPU: 13,103
CC71  90 39     BCC $CCAC                       A:96 X:00 Y:69 P:67 SP:FB PPU: 13,109
CC73  50 37     BVC $CCAC                       A:96 X:00 Y:69 P:67 SP:FB PPU: 13,115
CC75  E0 00     CPX #$00                        A:96 X:00 Y:69 P:67 SP:FB PPU: 13,121
CC77  D0 33     BNE $CCAC                       A:96 X:00 Y:69 P:67 SP:FB PPU: 13,127
CC79  E8        INX                             A:96 X:00 Y:69 P:67 SP:FB PPU: 13,133
CC7A  F0 30     BEQ $CCAC                       A:96 X:01 Y:69 P:65 SP:FB PPU: 13,139
CC7C  30 2E     BMI $CCAC                       A:96 X:01 Y:69 P:65 SP:FB PPU: 13,145
CC7E  90 2C     BCC $CCAC                       A:96 X:01 Y:69 P:65 SP:FB PPU: 13,151
CC80  50 2A     BVC $CCAC                       A:96 X:01 Y:69 P:65 SP:FB PPU: 13,157
CC82  18        CLC                             A:96 X:01 Y:69 P:65 SP:FB PPU: 13,163
CC83  B8        CLV                             A:96 X:01 Y:69 P:64 SP:FB PPU: 13,169
CC84  A2 00     LDX #$00                        A:96 X:01 Y:69 P:24 SP:FB PPU: 13,175
CC86  CA        DEX                             A:96 X:00 Y:69 P:26 SP:FB PPU: 13,181
CC87  F0 23     BEQ $CCAC                       A:96 X:FF Y:69 P:A4 SP:FB PPU: 13,187
CC89  10 21     BPL $CCAC                       A:96 X:FF Y:69 P:A4 SP:FB PPU: 13,193
CC8B  B0 1F     BCS $CCAC                       A:96 X:FF Y:69 P:A4 SP:FB PPU: 13,199
CC8D  70 1D     BVS $CCAC                       A:96 X:FF Y:69 P:A4 SP:FB PPU: 13,205
CC8F  E0 FF     CPX #$FF                        A:96 X:FF Y:69 P:A4 SP:FB PPU: 13,211
CC91  D0 19     BNE $CCAC                       A:96 X:FF Y:69 P:27 SP:FB PPU: 13,217
CC93  18        CLC                             A:96 X:FF Y:69 P:27 SP:FB PPU: 13,223
CC94  CA        DEX                             A:96 X:FF Y:69 P:26 SP:FB PPU: 13,229
CC95  F0 15     BEQ $CCAC                       A:96 X:FE Y:69 P:A4 SP:FB PPU: 13,235
CC97  10 13     BPL $CCAC                       A:96 X:FE Y:69 P:A4 SP:FB PPU: 13,241
CC99  B0 11     BCS $CCAC                       A:96 X:FE Y:69 P:A4 SP:FB PPU: 13,247
CC9B  70 0F     BVS $CCAC                       A:96 X:FE Y:69 P:A4 SP:FB PPU: 13,253
CC9D  E0 FE     CPX #$FE                        A:96 X:FE Y:69 P:A4 SP:FB PPU: 13,259
CC9F  D0 0B     BNE $CCAC                       A:96 X:FE Y:69 P:27 SP:FB PPU: 13,265
CCA1  C9 96     CMP #$96                        A:96 X:FE Y:69 P:27 SP:FB PPU: 13,271
CCA3  D0 07     BNE $CCAC                       A:96 X:FE Y:69 P:27 SP:FB PPU: 13,277
CCA5  C0 69     CPY #$69                        A:96 X:FE Y:69 P:27 SP:FB PPU: 13,283
CCA7  D0 03     BNE $CCAC                       A:96 X:FE Y:69 P:27 SP:FB PPU: 13,289
CCA9  4C B0 CC  JMP $CCB0                       A:96 X:FE Y:69 P:27 SP:FB PPU: 13,295
CCB0  EA        NOP                             A:96 X:FE Y:69 P:27 SP:FB PPU: 13,304
CCB1  A9 85     LDA #$85                        A:96 X:FE Y:69 P:27 SP:FB PPU: 13,310
CCB3  A2 34     LDX #$34                        A:85 X:FE Y:69 P:A5 SP:FB PPU: 13,316
CCB5  A0 99     LDY #$99                        A:85 X:34 Y:69 P:25 SP:FB PPU: 13,322
CCB7  18        CLC                             A:85 X:34 Y:99 P:A5 SP:FB PPU: 13,328
CCB8  24 01     BIT $01 = FF                    A:85 X:34 Y:99 P:A4 SP:FB PPU: 13,334
CCBA  A8        TAY                             A:85 X:34 Y:99 P:E4 SP:FB PPU: 14,  2
CCBB  F0 2E     BEQ $CCEB                       A:85 X:34 Y:85 P:E4 SP:FB PPU: 14,  8
CCBD  B0 2C     BCS $CCEB                       A:85 X:34 Y:85 P:E4 SP:FB PPU: 14, 14
CCBF  50 2A     BVC $CCEB                       A:85 X:34 Y:85 P:E4 SP:FB PPU: 14, 20
CCC1  10 28     BPL $CCEB                       A:85 X:34 Y:85 P:E4 SP:FB PPU: 14, 26
CCC3  C9 85     CMP #$85                        A:85 X:34 Y:85 P:E4 SP:FB PPU: 14, 32
CCC5  D0 24     BNE $CCEB                       A:85 X:34 Y:85 P:67 SP:FB PPU: 14, 38
CCC7  E0 34     CPX #$34                        A:85 X:34 Y:85 P:67 SP:FB PPU: 14, 44
CCC9  D0 20     BNE $CCEB                       A:85 X:34 Y:85 P:67 SP:FB PPU: 14, 50
CCCB  C0 85     CPY #$85                        A:85 X:34 Y:85 P:67 SP:FB PPU: 14, 56
CCCD  D0 1C     BNE $CCEB                       A:85 X:34 Y:85 P:67 SP:FB PPU: 14, 62
CCCF  A9 00     LDA #$00                        A:85 X:34 Y:85 P:67 SP:FB PPU: 14, 68
CCD1  38        SEC                             A:00 X:34 Y:85 P:67 SP:FB PPU: 14, 74
CCD2  B8        CLV                             A:00 X:34 Y:85 P:67 SP:FB PPU: 14, 80
CCD3  A8        TAY                             A:00 X:34 Y:85 P:27 SP:FB PPU: 14, 86
CCD4  D0 15     BNE $CCEB                       A:00 X:34 Y:00 P:27 SP:FB PPU: 14, 92
CCD6  90 13     BCC $CCEB                       A:00 X:34 Y:00 P:27 SP:FB PPU: 14, 98
CCD8  70 11     BVS $CCEB                       A:00 X:34 Y:00 P:27 SP:FB PPU: 14,104
CCDA  30 0F     BMI $CCEB                       A:00 X:34 Y:00 P:27 SP:FB PPU: 14,110
CCDC  C9 00     CMP #$00                        A:00 X:34 Y:00 P:27 SP:FB PPU: 14,116
CCDE  D0 0B     BNE $CCEB                       A:00 X:34 Y:00 P:27 SP:FB PPU: 14,122
CCE0  E0 34     CPX #$34                        A:00 X:34 Y:00 P:27 SP:FB PPU: 14,128
CCE2  D0 07     BNE $CCEB                       A:00 X:34 Y:00 P:27 SP:FB PPU: 14,134
CCE4  C0 00     CPY #$00                        A:00 X:34 Y:00 P:27 SP:FB PPU: 14,140
CCE6  D0 03     BNE $CCEB                       A:00 X:34 Y:00 P:27 SP:FB PPU: 14,146
CCE8  4C EF CC  JMP $CCEF                       A:00 X:34 Y:00 P:27 SP:FB PPU: 14,152
CCEF  EA        NOP                             A:00 X:34 Y:00 P:27 SP:FB PPU: 14,161
CCF0  A9 85     LDA #$85                        A:00 X:34 Y:00 P:27 SP:FB PPU: 14,167
CCF2  A2 34     LDX #$34                        A:85 X:34 Y:00 P:A5 SP:FB PPU: 14,173
CCF4  A0 99     LDY #$99                        A:85 X:34 Y:00 P:25 SP:FB PPU: 14,179
CCF6  18        CLC                             A:85 X:34 Y:99 P:A5 SP:FB PPU: 14,185
CCF7  24 01     BIT $01 = FF                    A:85 X:34 Y:99 P:A4 SP:FB PPU: 14,191
CCF9  AA        TAX                             A:85 X:34 Y:99 P:E4 SP:FB PPU: 14,200
CCFA  F0 2E     BEQ $CD2A                       A:85 X:85 Y:99 P:E4 SP:FB PPU: 14,206
CCFC  B0 2C     BCS $CD2A                       A:85 X:85 Y:99 P:E4 SP:FB PPU: 14,212
CCFE  50 2A     BVC $CD2A                       A:85 X:85 Y:99 P:E4 SP:FB PPU: 14,218
CD00  10 28     BPL $CD2A                       A:85 X:85 Y:99 P:E4 SP:FB PPU: 14,224
CD02  C9 85     CMP #$85                        A:85 X:85 Y:99 P:E4 SP:FB PPU: 14,230
CD04  D0 24     BNE $CD2A                       A:85 X:85 Y:99 P:67 SP:FB PPU: 14,236
CD06  E0 85     CPX #$85                        A:85 X:85 Y:99 P:67 SP:FB PPU: 14,242
CD08  D0 20     BNE $CD2A                       A:85 X:85 Y:99 P:67 SP:FB PPU: 14,248
CD0A  C0 99     CPY #$99                        A:85 X:85 Y:99 P:67 SP:FB PPU: 14,254
CD0C  D0 1C     BNE $CD2A                       A:85 X:85 Y:99 P:67 SP:FB PPU: 14,260
CD0E  A9 00     LDA #$00                        A:85 X:85 Y:99 P:67 SP:FB PPU: 14,266
CD10  38        SEC                             A:00 X:85 Y:99 P:67 SP:FB PPU: 14,272
CD11  B8        CLV                             A:00 X:85 Y:99 P:67 SP:FB PPU: 14,278
CD12  AA        TAX                             A:00 X:85 Y:99 P:27 SP:FB PPU: 14,284
CD13  D0 15     BNE $CD2A                       A:00 X:00 Y:99 P:27 SP:FB PPU: 14,290
CD15  90 13     BCC $CD2A                       A:00 X:00 Y:99 P:27 SP:FB PPU: 14,296
CD17  70 11     BVS $CD2A                       A:00 X:00 Y:99 P:27 SP:FB PPU: 14,302
CD19  30 0F     BMI $CD2A                       A:00 X:00 Y:99 P:27 SP:FB PPU: 14,308
CD1B  C9 00     CMP #$00                        A:00 X:00 Y:99 P:27 SP:FB PPU: 14,314
CD1D  D0 0B     BNE $CD2A                       A:00 X:00 Y:99 P:27 SP:FB PPU: 14,320
CD1F  E0 00     CPX #$00                        A:00 X:00 Y:99 P:27 SP:FB PPU: 14,326
CD21  D0 07     BNE $CD2A                       A:00 X:00 Y:99 P:27 SP:FB PPU: 14,332
CD23  C0 99     CPY #$99                        A:00 X:00 Y:99 P:27 SP:FB PPU: 14,338
CD25  D0 03     BNE $CD2A                       A:00 X:00 Y:99 P:27 SP:FB PPU: 15,  3
CD27  4C 2E CD  JMP $CD2E                       A:00 X:00 Y:99 P:27 SP:FB PPU: 15,  9
CD2E  EA        NOP                             A:00 X:00 Y:99 P:27 SP:FB PPU: 15, 18
CD2F  A9 85     LDA #$85                        A:00 X:00 Y:99 P:27 SP:FB PPU: 15, 24
CD31  A2 34     LDX #$34                        A:85 X:00 Y:99 P:A5 SP:FB PPU: 15, 30
CD33  A0 99     LDY #$99                        A:85 X:34 Y:99 P:25 SP:FB PPU: 15, 36
CD35  18        CLC                             A:85 X:34 Y:99 P:A5 SP:FB PPU: 15, 42
CD36  24 01     BIT $01 = FF                    A:85 X:34 Y:99 P:A4 SP:FB PPU: 15, 48
CD38  98        TYA                             A:85 X:34 Y:99 P:E4 SP:FB PPU: 15, 57
CD39  F0 2E     BEQ $CD69                       A:99 X:34 Y:99 P:E4 SP:FB PPU: 15, 63
CD3B  B0 2C     BCS $CD69                       A:99 X:34 Y:99 P:E4 SP:FB PPU: 15, 69
CD3D  50 2A     BVC $CD69                       A:99 X:34 Y:99 P:E4 SP:FB PPU: 15, 75
CD3F  10 28     BPL $CD69                       A:99 X:34 Y:99 P:E4 SP:FB PPU: 15, 81
CD41  C9 99     CMP #$99                        A:99 X:34 Y:99 P:E4 SP:FB PPU: 15, 87
CD43  D0 24     BNE $CD69                       A:99 X:34 Y:99 P:67 SP:FB PPU: 15, 93
CD45  E0 34     CPX #$34                        A:99 X:34 Y:99 P:67 SP:FB PPU: 15, 99
CD47  D0 20     BNE $CD69                       A:99 X:34 Y:99 P:67 SP:FB PPU: 15,105
CD49  C0 99     CPY #$99                        A:99 X:34 Y:99 P:67 SP:FB PPU: 15,111
CD4B  D0 1C     BNE $CD69                       A:99 X:34 Y:99 P:67 SP:FB PPU: 15,117
CD4D  A0 00     LDY #$00                        A:99 X:34 Y:99 P:67 SP:FB PPU: 15,123
CD4F  38        SEC                             A:99 X:34 Y:00 P:67 SP:FB PPU: 15,129
CD50  B8        CLV                             A:99 X:34 Y:00 P:67 SP:FB PPU: 15,135
CD51  98        TYA                             A:99 X:34 Y:00 P:27 SP:FB PPU: 15,141
CD52  D0 15     BNE $CD69                       A:00 X:34 Y:00 P:27 SP:FB PPU: 15,147
CD54  90 13     BCC $CD69                       A:00 X:34 Y:00 P:27 SP:FB PPU: 15,153
CD56  70 11     BVS $CD69                       A:00 X:34 Y:00 P:27 SP:FB PPU: 15,159
CD58  30 0F     BMI $CD69                       A:00 X:34 Y:00 P:27 SP:FB PPU: 15,165
CD5A  C9 00     CMP #$00                        A:00 X:34 Y:00 P:27 SP:FB PPU: 15,171
CD5C  D0 0B     BNE $CD69                       A:00 X:34 Y:00 P:27 SP:FB PPU: 15,177
CD5E  E0 34     CPX #$34                        A:00 X:34 Y:00 P:27 SP:FB PPU: 15,183
CD60  D0 07     BNE $CD69                       A:00 X:34 Y:00 P:27 SP:FB PPU: 15,189
CD62  C0 00     CPY #$00                        A:00 X:34 Y:00 P:27 SP:FB PPU: 15,195
CD64  D0 03     BNE $CD69                       A:00 X:34 Y:00 P:27 SP:FB PPU: 15,201
CD66  4C 6D CD  JMP $CD6D                       A:00 X:34 Y:00 P:27 SP:FB PPU: 15,207
CD6D  EA        NOP                             A:00 X:34 Y:00 P:27 SP:FB PPU: 15,216
CD6E  A9 85     LDA #$85                        A:00 X:34 Y:00 P:27 SP:FB PPU: 15,222
CD70  A2 34     LDX #$34                        A:85 X:34 Y:00 P:A5 SP:FB PPU: 15,228
CD72  A0 99     LDY #$99                        A:85 X:34 Y:00 P:25 SP:FB PPU: 15,234
CD74  18        CLC                             A:85 X:34 Y:99 P:A5 SP:FB PPU: 15,240
CD75  24 01     BIT $01 = FF                    A:85 X:34 Y:99 P:A4 SP:FB PPU: 15,246
CD77  8A        TXA                             A:85 X:34 Y:99 P:E4 SP:FB PPU: 15,255
CD78  F0 2E     BEQ $CDA8                       A:34 X:34 Y:99 P:64 SP:FB PPU: 15,261
CD7A  B0 2C     BCS $CDA8                       A:34 X:34 Y:99 P:64 SP:FB PPU: 15,267
CD7C  50 2A     BVC $CDA8                       A:34 X:34 Y:99 P:64 SP:FB PPU: 15,273
CD7E  30 28     BMI $CDA8                       A:34 X:34 Y:99 P:64 SP:FB PPU: 15,279
CD80  C9 34     CMP #$34                        A:34 X:34 Y:99 P:64 SP:FB PPU: 15,285
CD82  D0 24     BNE $CDA8                       A:34 X:34 Y:99 P:67 SP:FB PPU: 15,291
CD84  E0 34     CPX #$34                        A:34 X:34 Y:99 P:67 SP:FB PPU: 15,297
CD86  D0 20     BNE $CDA8                       A:34 X:34 Y:99 P:67 SP:FB PPU: 15,303
CD88  C0 99     CPY #$99                        A:34 X:34 Y:99 P:67 SP:FB PPU: 15,309
CD8A  D0 1C     BNE $CDA8                       A:34 X:34 Y:99 P:67 SP:FB PPU: 15,315
CD8C  A2 00     LDX #$00                        A:34 X:34 Y:99 P:67 SP:FB PPU: 15,321
CD8E  38        SEC                             A:34 X:00 Y:99 P:67 SP:FB PPU: 15,327
CD8F  B8        CLV                             A:34 X:00 Y:99 P:67 SP:FB PPU: 15,333
CD90  8A        TXA                             A:34 X:00 Y:99 P:27 SP:FB PPU: 15,339
CD91  D0 15     BNE $CDA8                       A:00 X:00 Y:99 P:27 SP:FB PPU: 16,  4
CD93  90 13     BCC $CDA8                       A:00 X:00 Y:99 P:27 SP:FB PPU: 16, 10
CD95  70 11     BVS $CDA8                       A:00 X:00 Y:99 P:27 SP:FB PPU: 16, 16
CD97  30 0F     BMI $CDA8                       A:00 X:00 Y:99 P:27 SP:FB PPU: 16, 22
CD99  C9 00     CMP #$00                        A:00 X:00 Y:99 P:27 SP:FB PPU: 16, 28
CD9B  D0 0B     BNE $CDA8                       A:00 X:00 Y:99 P:27 SP:FB PPU: 16, 34
CD9D  E0 00     CPX #$00                        A:00 X:00 Y:99 P:27 SP:FB PPU: 16, 40
CD9F  D0 07     BNE $CDA8                       A:00 X:00 Y:99 P:27 SP:FB PPU: 16, 46
CDA1  C0 99     CPY #$99                        A:00 X:00 Y:99 P:27 SP:FB PPU: 16, 52
CDA3  D0 03     BNE $CDA8                       A:00 X:00 Y:99 P:27 SP:FB PPU: 16, 58
CDA5  4C AC CD  JMP $CDAC                       A:00 X:00 Y:99 P:27 SP:FB PPU: 16, 64
CDAC  EA        NOP                             A:00 X:00 Y:99 P:27 SP:FB PPU: 16, 73
CDAD  BA        TSX                             A:00 X:00 Y:99 P:27 SP:FB PPU: 16, 79
CDAE  8E FF 07  STX $07FF = 00                  A:00 X:FB Y:99 P:A5 SP:FB PPU: 16, 85
CDB1  A0 33     LDY #$33                        A:00 X:FB Y:99 P:A5 SP:FB PPU: 16, 97
CDB3  A2 69     LDX #$69                        A:00 X:FB Y:33 P:25 SP:FB PPU: 16,103
CDB5  A9 84     LDA #$84                        A:00 X:69 Y:33 P:25 SP:FB PPU: 16,109
CDB7  18        CLC                             A:84 X:69 Y:33 P:A5 SP:FB PPU: 16,115
CDB8  24 01     BIT $01 = FF                    A:84 X:69 Y:33 P:A4 SP:FB PPU: 16,121
CDBA  9A        TXS                             A:84 X:69 Y:33 P:E4 SP:FB PPU: 16,130
CDBB  F0 32     BEQ $CDEF                       A:84 X:69 Y:33 P:E4 SP:69 PPU: 16,136
CDBD  10 30     BPL $CDEF                       A:84 X:69 Y:33 P:E4 SP:69 PPU: 16,142
CDBF  B0 2E     BCS $CDEF                       A:84 X:69 Y:33 P:E4 SP:69 PPU: 16,148
CDC1  50 2C     BVC $CDEF                       A:84 X:69 Y:33 P:E4 SP:69 PPU: 16,154
CDC3  C9 84     CMP #$84                        A:84 X:69 Y:33 P:E4 SP:69 PPU: 16,160
CDC5  D0 28     BNE $CDEF                       A:84 X:69 Y:33 P:67 SP:69 PPU: 16,166
CDC7  E0 69     CPX #$69                        A:84 X:69 Y:33 P:67 SP:69 PPU: 16,172
CDC9  D0 24     BNE $CDEF                       A:84 X:69 Y:33 P:67 SP:69 PPU: 16,178
CDCB  C0 33     CPY #$33                        A:84 X:69 Y:33 P:67 SP:69 PPU: 16,184
CDCD  D0 20     BNE $CDEF                       A:84 X:69 Y:33 P:67 SP:69 PPU: 16,190
CDCF  A0 01     LDY #$01                        A:84 X:69 Y:33 P:67 SP:69 PPU: 16,196
CDD1  A9 04     LDA #$04                        A:84 X:69 Y:01 P:65 SP:69 PPU: 16,202
CDD3  38        SEC                             A:04 X:69 Y:01 P:65 SP:69 PPU: 16,208
CDD4  B8        CLV                             A:04 X:69 Y:01 P:65 SP:69 PPU: 16,214
CDD5  A2 00     LDX #$00                        A:04 X:69 Y:01 P:25 SP:69 PPU: 16,220
CDD7  BA        TSX                             A:04 X:00 Y:01 P:27 SP:69 PPU: 16,226
CDD8  F0 15     BEQ $CDEF                       A:04 X:69 Y:01 P:25 SP:69 PPU: 16,232
CDDA  30 13     BMI $CDEF                       A:04 X:69 Y:01 P:25 SP:69 PPU: 16,238
CDDC  90 11     BCC $CDEF                       A:04 X:69 Y:01 P:25 SP:69 PPU: 16,244
CDDE  70 0F     BVS $CDEF                       A:04 X:69 Y:01 P:25 SP:69 PPU: 16,250
CDE0  E0 69     CPX #$69                        A:04 X:69 Y:01 P:25 SP:69 PPU: 16,256
CDE2  D0 0B     BNE $CDEF                       A:04 X:69 Y:01 P:27 SP:69 PPU: 16,262
CDE4  C9 04     CMP #$04                        A:04 X:69 Y:01 P:27 SP:69 PPU: 16,268
CDE6  D0 07     BNE $CDEF                       A:04 X:69 Y:01 P:27 SP:69 PPU: 16,274
CDE8  C0 01     CPY #$01                        A:04 X:69 Y:01 P:27 SP:69 PPU: 16,280
CDEA  D0 03     BNE $CDEF                       A:04 X:69 Y:01 P:27 SP:69 PPU: 16,286
CDEC  4C F3 CD  JMP $CDF3                       A:04 X:69 Y:01 P:27 SP:69 PPU: 16,292
CDF3  AE FF 07  LDX $07FF = FB                  A:04 X:69 Y:01 P:27 SP:69 PPU: 16,301
CDF6  9A        TXS                             A:04 X:FB Y:01 P:A5 SP:69 PPU: 16,313
CDF7  60        RTS                             A:04 X:FB Y:01 P:A5 SP:FB PPU: 16,319
C609  20 F8 CD  JSR $CDF8                       A:04 X:FB Y:01 P:A5 SP:FD PPU: 16,337
CDF8  A9 FF     LDA #$FF                        A:04 X:FB Y:01 P:A5 SP:FB PPU: 17, 14
CDFA  85 01     STA $01 = FF                    A:FF X:FB Y:01 P:A5 SP:FB PPU: 17, 20
CDFC  BA        TSX                             A:FF X:FB Y:01 P:A5 SP:FB PPU: 17, 29
CDFD  8E FF 07  STX $07FF = FB                  A:FF X:FB Y:01 P:A5 SP:FB PPU: 17, 35
CE00  EA        NOP                             A:FF X:FB Y:01 P:A5 SP:FB PPU: 17, 47
CE01  A2 80     LDX #$80                        A:FF X:FB Y:01 P:A5 SP:FB PPU: 17, 53
CE03  9A        TXS                             A:FF X:80 Y:01 P:A5 SP:FB PPU: 17, 59
CE04  A9 33     LDA #$33                        A:FF X:80 Y:01 P:A5 SP:80 PPU: 17, 65
CE06  48        PHA                             A:33 X:80 Y:01 P:25 SP:80 PPU: 17, 71
CE07  A9 69     LDA #$69                        A:33 X:80 Y:01 P:25 SP:7F PPU: 17, 80
CE09  48        PHA                             A:69 X:80 Y:01 P:25 SP:7F PPU: 17, 86
CE0A  BA        TSX                             A:69 X:80 Y:01 P:25 SP:7E PPU: 17, 95
CE0B  E0 7E     CPX #$7E                        A:69 X:7E Y:01 P:25 SP:7E PPU: 17,101
CE0D  D0 20     BNE $CE2F                       A:69 X:7E Y:01 P:27 SP:7E PPU: 17,107
CE0F  68        PLA                             A:69 X:7E Y:01 P:27 SP:7E PPU: 17,113
CE10  C9 69     CMP #$69                        A:69 X:7E Y:01 P:25 SP:7F PPU: 17,125
CE12  D0 1B     BNE $CE2F                       A:69 X:7E Y:01 P:27 SP:7F PPU: 17,131
CE14  68        PLA                             A:69 X:7E Y:01 P:27 SP:7F PPU: 17,137
CE15  C9 33     CMP #$33                        A:33 X:7E Y:01 P:25 SP:80 PPU: 17,149
CE17  D0 16     BNE $CE2F                       A:33 X:7E Y:01 P:27 SP:80 PPU: 17,155
CE19  BA        TSX                             A:33 X:7E Y:01 P:27 SP:80 PPU: 17,161
CE1A  E0 80     CPX #$80                        A:33 X:80 Y:01 P:A5 SP:80 PPU: 17,167
CE1C  D0 11     BNE $CE2F                       A:33 X:80 Y:01 P:27 SP:80 PPU: 17,173
CE1E  AD 80 01  LDA $0180 = 33                  A:33 X:80 Y:01 P:27 SP:80 PPU: 17,179
CE21  C9 33     CMP #$33                        A:33 X:80 Y:01 P:25 SP:80 PPU: 17,191
CE23  D0 0A     BNE $CE2F                       A:33 X:80 Y:01 P:27 SP:80 PPU: 17,197
CE25  AD 7F 01  LDA $017F = 69                  A:33 X:80 Y:01 P:27 SP:80 PPU: 17,203
CE28  C9 69     CMP #$69                        A:69 X:80 Y:01 P:25 SP:80 PPU: 17,215
CE2A  D0 03     BNE $CE2F                       A:69 X:80 Y:01 P:27 SP:80 PPU: 17,221
CE2C  4C 33 CE  JMP $CE33                       A:69 X:80 Y:01 P:27 SP:80 PPU: 17,227
CE33  EA        NOP                             A:69 X:80 Y:01 P:27 SP:80 PPU: 17,236
CE34  A2 80     LDX #$80                        A:69 X:80 Y:01 P:27 SP:80 PPU: 17,242
CE36  9A        TXS                             A:69 X:80 Y:01 P:A5 SP:80 PPU: 17,248
CE37  20 3D CE  JSR $CE3D                       A:69 X:80 Y:01 P:A5 SP:80 PPU: 17,254
CE3D  BA        TSX                             A:69 X:80 Y:01 P:A5 SP:7E PPU: 17,272
CE3E  E0 7E     CPX #$7E                        A:69 X:7E Y:01 P:25 SP:7E PPU: 17,278
CE40  D0 19     BNE $CE5B                       A:69 X:7E Y:01 P:27 SP:7E PPU: 17,284
CE42  68        PLA                             A:69 X:7E Y:01 P:27 SP:7E PPU: 17,290
CE43  68        PLA                             A:39 X:7E Y:01 P:25 SP:7F PPU: 17,302
CE44  BA        TSX                             A:CE X:7E Y:01 P:A5 SP:80 PPU: 17,314
CE45  E0 80     CPX #$80                        A:CE X:80 Y:01 P:A5 SP:80 PPU: 17,320
CE47  D0 12     BNE $CE5B                       A:CE X:80 Y:01 P:27 SP:80 PPU: 17,326
CE49  A9 00     LDA #$00                        A:CE X:80 Y:01 P:27 SP:80 PPU: 17,332
CE4B  20 4E CE  JSR $CE4E                       A:00 X:80 Y:01 P:27 SP:80 PPU: 17,338
CE4E  68        PLA                             A:00 X:80 Y:01 P:27 SP:7E PPU: 18, 15
CE4F  C9 4D     CMP #$4D                        A:4D X:80 Y:01 P:25 SP:7F PPU: 18, 27
CE51  D0 08     BNE $CE5B                       A:4D X:80 Y:01 P:27 SP:7F PPU: 18, 33
CE53  68        PLA                             A:4D X:80 Y:01 P:27 SP:7F PPU: 18, 39
CE54  C9 CE     CMP #$CE                        A:CE X:80 Y:01 P:A5 SP:80 PPU: 18, 51
CE56  D0 03     BNE $CE5B                       A:CE X:80 Y:01 P:27 SP:80 PPU: 18, 57
CE58  4C 5F CE  JMP $CE5F                       A:CE X:80 Y:01 P:27 SP:80 PPU: 18, 63
CE5F  EA        NOP                             A:CE X:80 Y:01 P:27 SP:80 PPU: 18, 72
CE60  A9 CE     LDA #$CE                        A:CE X:80 Y:01 P:27 SP:80 PPU: 18, 78
CE62  48        PHA                             A:CE X:80 Y:01 P:A5 SP:80 PPU: 18, 84
CE63  A9 66     LDA #$66                        A:CE X:80 Y:01 P:A5 SP:7F PPU: 18, 93
CE65  48        PHA                             A:66 X:80 Y:01 P:25 SP:7F PPU: 18, 99
CE66  60        RTS                             A:66 X:80 Y:01 P:25 SP:7E PPU: 18,108
CE67  A2 77     LDX #$77                        A:66 X:80 Y:01 P:25 SP:80 PPU: 18,126
CE69  A0 69     LDY #$69                        A:66 X:77 Y:01 P:25 SP:80 PPU: 18,132
CE6B  18        CLC                             A:66 X:77 Y:69 P:25 SP:80 PPU: 18,138
CE6C  24 01     BIT $01 = FF                    A:66 X:77 Y:69 P:24 SP:80 PPU: 18,144
CE6E  A9 83     LDA #$83                        A:66 X:77 Y:69 P:E4 SP:80 PPU: 18,153
CE70  20 66 CE  JSR $CE66                       A:83 X:77 Y:69 P:E4 SP:80 PPU: 18,159
CE66  60        RTS                             A:83 X:77 Y:69 P:E4 SP:7E PPU: 18,177
CE73  F0 24     BEQ $CE99                       A:83 X:77 Y:69 P:E4 SP:80 PPU: 18,195
CE75  10 22     BPL $CE99                       A:83 X:77 Y:69 P:E4 SP:80 PPU: 18,201
CE77  B0 20     BCS $CE99                       A:83 X:77 Y:69 P:E4 SP:80 PPU: 18,207
CE79  50 1E     BVC $CE99                       A:83 X:77 Y:69 P:E4 SP:80 PPU: 18,213
CE7B  C9 83     CMP #$83                        A:83 X:77 Y:69 P:E4 SP:80 PPU: 18,219
CE7D  D0 1A     BNE $CE99                       A:83 X:77 Y:69 P:67 SP:80 PPU: 18,225
CE7F  C0 69     CPY #$69                        A:83 X:77 Y:69 P:67 SP:80 PPU: 18,231
CE81  D0 16     BNE $CE99                       A:83 X:77 Y:69 P:67 SP:80 PPU: 18,237
CE83  E0 77     CPX #$77                        A:83 X:77 Y:69 P:67 SP:80 PPU: 18,243
CE85  D0 12     BNE $CE99                       A:83 X:77 Y:69 P:67 SP:80 PPU: 18,249
CE87  38        SEC                             A:83 X:77 Y:69 P:67 SP:80 PPU: 18,255
CE88  B8        CLV                             A:83 X:77 Y:69 P:67 SP:80 PPU: 18,261
CE89  A9 00     LDA #$00                        A:83 X:77 Y:69 P:27 SP:80 PPU: 18,267
CE8B  20 66 CE  JSR $CE66                       A:00 X:77 Y:69 P:27 SP:80 PPU: 18,273
CE66  60        RTS                             A:00 X:77 Y:69 P:27 SP:7E PPU: 18,291
CE8E  D0 09     BNE $CE99                       A:00 X:77 Y:69 P:27 SP:80 PPU: 18,309
CE90  30 07     BMI $CE99                       A:00 X:77 Y:69 P:27 SP:80 PPU: 18,315
CE92  90 05     BCC $CE99                       A:00 X:77 Y:69 P:27 SP:80 PPU: 18,321
CE94  70 03     BVS $CE99                       A:00 X:77 Y:69 P:27 SP:80 PPU: 18,327
CE96  4C 9D CE  JMP $CE9D                       A:00 X:77 Y:69 P:27 SP:80 PPU: 18,333
CE9D  EA        NOP                             A:00 X:77 Y:69 P:27 SP:80 PPU: 19,  1
CE9E  A9 CE     LDA #$CE                        A:00 X:77 Y:69 P:27 SP:80 PPU: 19,  7
CEA0  48        PHA                             A:CE X:77 Y:69 P:A5 SP:80 PPU: 19, 13
CEA1  A9 AE     LDA #$AE                        A:CE X:77 Y:69 P:A5 SP:7F PPU: 19, 22
CEA3  48        PHA                             A:AE X:77 Y:69 P:A5 SP:7F PPU: 19, 28
CEA4  A9 65     LDA #$65                        A:AE X:77 Y:69 P:A5 SP:7E PPU: 19, 37
CEA6  48        PHA                             A:65 X:77 Y:69 P:25 SP:7E PPU: 19, 43
CEA7  A9 55     LDA #$55                        A:65 X:77 Y:69 P:25 SP:7D PPU: 19, 52
CEA9  A0 88     LDY #$88                        A:55 X:77 Y:69 P:25 SP:7D PPU: 19, 58
CEAB  A2 99     LDX #$99                        A:55 X:77 Y:88 P:A5 SP:7D PPU: 19, 64
CEAD  40        RTI                             A:55 X:99 Y:88 P:A5 SP:7D PPU: 19, 70
CEAE  30 35     BMI $CEE5                       A:55 X:99 Y:88 P:65 SP:80 PPU: 19, 88
CEB0  50 33     BVC $CEE5                       A:55 X:99 Y:88 P:65 SP:80 PPU: 19, 94
CEB2  F0 31     BEQ $CEE5                       A:55 X:99 Y:88 P:65 SP:80 PPU: 19,100
CEB4  90 2F     BCC $CEE5                       A:55 X:99 Y:88 P:65 SP:80 PPU: 19,106
CEB6  C9 55     CMP #$55                        A:55 X:99 Y:88 P:65 SP:80 PPU: 19,112
CEB8  D0 2B     BNE $CEE5                       A:55 X:99 Y:88 P:67 SP:80 PPU: 19,118
CEBA  C0 88     CPY #$88                        A:55 X:99 Y:88 P:67 SP:80 PPU: 19,124
CEBC  D0 27     BNE $CEE5                       A:55 X:99 Y:88 P:67 SP:80 PPU: 19,130
CEBE  E0 99     CPX #$99                        A:55 X:99 Y:88 P:67 SP:80 PPU: 19,136
CEC0  D0 23     BNE $CEE5                       A:55 X:99 Y:88 P:67 SP:80 PPU: 19,142
CEC2  A9 CE     LDA #$CE                        A:55 X:99 Y:88 P:67 SP:80 PPU: 19,148
CEC4  48        PHA                             A:CE X:99 Y:88 P:E5 SP:80 PPU: 19,154
CEC5  A9 CE     LDA #$CE                        A:CE X:99 Y:88 P:E5 SP:7F PPU: 19,163
CEC7  48        PHA                             A:CE X:99 Y:88 P:E5 SP:7F PPU: 19,169
CEC8  A9 87     LDA #$87                        A:CE X:99 Y:88 P:E5 SP:7E PPU: 19,178
CECA  48        PHA                             A:87 X:99 Y:88 P:E5 SP:7E PPU: 19,184
CECB  A9 55     LDA #$55                        A:87 X:99 Y:88 P:E5 SP:7D PPU: 19,193
CECD  40        RTI                             A:55 X:99 Y:88 P:65 SP:7D PPU: 19,199
CECE  10 15     BPL $CEE5                       A:55 X:99 Y:88 P:A7 SP:80 PPU: 19,217
CED0  70 13     BVS $CEE5                       A:55 X:99 Y:88 P:A7 SP:80 PPU: 19,223
CED2  D0 11     BNE $CEE5                       A:55 X:99 Y:88 P:A7 SP:80 PPU: 19,229
CED4  90 0F     BCC $CEE5                       A:55 X:99 Y:88 P:A7 SP:80 PPU: 19,235
CED6  C9 55     CMP #$55                        A:55 X:99 Y:88 P:A7 SP:80 PPU: 19,241
CED8  D0 0B     BNE $CEE5                       A:55 X:99 Y:88 P:27 SP:80 PPU: 19,247
CEDA  C0 88     CPY #$88                        A:55 X:99 Y:88 P:27 SP:80 PPU: 19,253
CEDC  D0 07     BNE $CEE5                       A:55 X:99 Y:88 P:27 SP:80 PPU: 19,259
CEDE  E0 99     CPX #$99                        A:55 X:99 Y:88 P:27 SP:80 PPU: 19,265
CEE0  D0 03     BNE $CEE5                       A:55 X:99 Y:88 P:27 SP:80 PPU: 19,271
CEE2  4C E9 CE  JMP $CEE9                       A:55 X:99 Y:88 P:27 SP:80 PPU: 19,277
CEE9  AE FF 07  LDX $07FF = FB                  A:55 X:99 Y:88 P:27 SP:80 PPU: 19,286
CEEC  9A        TXS                             A:55 X:FB Y:88 P:A5 SP:80 PPU: 19,298
CEED  60        RTS                             A:55 X:FB Y:88 P:A5 SP:FB PPU: 19,304
C60C  20 EE CE  JSR $CEEE                       A:55 X:FB Y:88 P:A5 SP:FD PPU: 19,322
CEEE  A2 55     LDX #$55                        A:55 X:FB Y:88 P:A5 SP:FB PPU: 19,340
CEF0  A0 69     LDY #$69                        A:55 X:55 Y:88 P:25 SP:FB PPU: 20,  5
CEF2  A9 FF     LDA #$FF                        A:55 X:55 Y:69 P:25 SP:FB PPU: 20, 11
CEF4  85 01     STA $01 = FF                    A:FF X:55 Y:69 P:A5 SP:FB PPU: 20, 17
CEF6  EA        NOP                             A:FF X:55 Y:69 P:A5 SP:FB PPU: 20, 26
CEF7  24 01     BIT $01 = FF                    A:FF X:55 Y:69 P:A5 SP:FB PPU: 20, 32
CEF9  38        SEC                             A:FF X:55 Y:69 P:E5 SP:FB PPU: 20, 41
CEFA  A9 01     LDA #$01                        A:FF X:55 Y:69 P:E5 SP:FB PPU: 20, 47
CEFC  4A        LSR A                           A:01 X:55 Y:69 P:65 SP:FB PPU: 20, 53
CEFD  90 1D     BCC $CF1C                       A:00 X:55 Y:69 P:67 SP:FB PPU: 20, 59
CEFF  D0 1B     BNE $CF1C                       A:00 X:55 Y:69 P:67 SP:FB PPU: 20, 65
CF01  30 19     BMI $CF1C                       A:00 X:55 Y:69 P:67 SP:FB PPU: 20, 71
CF03  50 17     BVC $CF1C                       A:00 X:55 Y:69 P:67 SP:FB PPU: 20, 77
CF05  C9 00     CMP #$00                        A:00 X:55 Y:69 P:67 SP:FB PPU: 20, 83
CF07  D0 13     BNE $CF1C                       A:00 X:55 Y:69 P:67 SP:FB PPU: 20, 89
CF09  B8        CLV                             A:00 X:55 Y:69 P:67 SP:FB PPU: 20, 95
CF0A  A9 AA     LDA #$AA                        A:00 X:55 Y:69 P:27 SP:FB PPU: 20,101
CF0C  4A        LSR A                           A:AA X:55 Y:69 P:A5 SP:FB PPU: 20,107
CF0D  B0 0D     BCS $CF1C                       A:55 X:55 Y:69 P:24 SP:FB PPU: 20,113
CF0F  F0 0B     BEQ $CF1C                       A:55 X:55 Y:69 P:24 SP:FB PPU: 20,119
CF11  30 09     BMI $CF1C                       A:55 X:55 Y:69 P:24 SP:FB PPU: 20,125
CF13  70 07     BVS $CF1C                       A:55 X:55 Y:69 P:24 SP:FB PPU: 20,131
CF15  C9 55     CMP #$55                        A:55 X:55 Y:69 P:24 SP:FB PPU: 20,137
CF17  D0 03     BNE $CF1C                       A:55 X:55 Y:69 P:27 SP:FB PPU: 20,143
CF19  4C 20 CF  JMP $CF20                       A:55 X:55 Y:69 P:27 SP:FB PPU: 20,149
CF20  EA        NOP                             A:55 X:55 Y:69 P:27 SP:FB PPU: 20,158
CF21  24 01     BIT $01 = FF                    A:55 X:55 Y:69 P:27 SP:FB PPU: 20,164
CF23  38        SEC                             A:55 X:55 Y:69 P:E5 SP:FB PPU: 20,173
CF24  A9 80     LDA #$80                        A:55 X:55 Y:69 P:E5 SP:FB PPU: 20,179
CF26  0A        ASL A                           A:80 X:55 Y:69 P:E5 SP:FB PPU: 20,185
CF27  90 1E     BCC $CF47                       A:00 X:55 Y:69 P:67 SP:FB PPU: 20,191
CF29  D0 1C     BNE $CF47                       A:00 X:55 Y:69 P:67 SP:FB PPU: 20,197
CF2B  30 1A     BMI $CF47                       A:00 X:55 Y:69 P:67 SP:FB PPU: 20,203
CF2D  50 18     BVC $CF47                       A:00 X:55 Y:69 P:67 SP:FB PPU: 20,209
CF2F  C9 00     CMP #$00                        A:00 X:55 Y:69 P:67 SP:FB PPU: 20,215
CF31  D0 14     BNE $CF47                       A:00 X:55 Y:69 P:67 SP:FB PPU: 20,221
CF33  B8        CLV                             A:00 X:55 Y:69 P:67 SP:FB PPU: 20,227
CF34  38        SEC                             A:00 X:55 Y:69 P:27 SP:FB PPU: 20,233
CF35  A9 55     LDA #$55                        A:00 X:55 Y:69 P:27 SP:FB PPU: 20,239
CF37  0A        ASL A                           A:55 X:55 Y:69 P:25 SP:FB PPU: 20,245
CF38  B0 0D     BCS $CF47                       A:AA X:55 Y:69 P:A4 SP:FB PPU: 20,251
CF3A  F0 0B     BEQ $CF47                       A:AA X:55 Y:69 P:A4 SP:FB PPU: 20,257
CF3C  10 09     BPL $CF47                       A:AA X:55 Y:69 P:A4 SP:FB PPU: 20,263
CF3E  70 07     BVS $CF47                       A:AA X:55 Y:69 P:A4 SP:FB PPU: 20,269
CF40  C9 AA     CMP #$AA                        A:AA X:55 Y:69 P:A4 SP:FB PPU: 20,275
CF42  D0 03     BNE $CF47                       A:AA X:55 Y:69 P:27 SP:FB PPU: 20,281
CF44  4C 4B CF  JMP $CF4B                       A:AA X:55 Y:69 P:27 SP:FB PPU: 20,287
CF4B  EA        NOP                             A:AA X:55 Y:69 P:27 SP:FB PPU: 20,296
CF4C  24 01     BIT $01 = FF                    A:AA X:55 Y:69 P:27 SP:FB PPU: 20,302
CF4E  38        SEC                             A:AA X:55 Y:69 P:E5 SP:FB PPU: 20,311
CF4F  A9 01     LDA #$01                        A:AA X:55 Y:69 P:E5 SP:FB PPU: 20,317
CF51  6A        ROR A                           A:01 X:55 Y:69 P:65 SP:FB PPU: 20,323
CF52  90 1E     BCC $CF72                       A:80 X:55 Y:69 P:E5 SP:FB PPU: 20,329
CF54  F0 1C     BEQ $CF72                       A:80 X:55 Y:69 P:E5 SP:FB PPU: 20,335
CF56  10 1A     BPL $CF72                       A:80 X:55 Y:69 P:E5 SP:FB PPU: 21,  0
CF58  50 18     BVC $CF72                       A:80 X:55 Y:69 P:E5 SP:FB PPU: 21,  6
CF5A  C9 80     CMP #$80                        A:80 X:55 Y:69 P:E5 SP:FB PPU: 21, 12
CF5C  D0 14     BNE $CF72                       A:80 X:55 Y:69 P:67 SP:FB PPU: 21, 18
CF5E  B8        CLV                             A:80 X:55 Y:69 P:67 SP:FB PPU: 21, 24
CF5F  18        CLC                             A:80 X:55 Y:69 P:27 SP:FB PPU: 21, 30
CF60  A9 55     LDA #$55                        A:80 X:55 Y:69 P:26 SP:FB PPU: 21, 36
CF62  6A        ROR A                           A:55 X:55 Y:69 P:24 SP:FB PPU: 21, 42
CF63  90 0D     BCC $CF72                       A:2A X:55 Y:69 P:25 SP:FB PPU: 21, 48
CF65  F0 0B     BEQ $CF72                       A:2A X:55 Y:69 P:25 SP:FB PPU: 21, 54
CF67  30 09     BMI $CF72                       A:2A X:55 Y:69 P:25 SP:FB PPU: 21, 60
CF69  70 07     BVS $CF72                       A:2A X:55 Y:69 P:25 SP:FB PPU: 21, 66
CF6B  C9 2A     CMP #$2A                        A:2A X:55 Y:69 P:25 SP:FB PPU: 21, 72
CF6D  D0 03     BNE $CF72                       A:2A X:55 Y:69 P:27 SP:FB PPU: 21, 78
CF6F  4C 76 CF  JMP $CF76                       A:2A X:55 Y:69 P:27 SP:FB PPU: 21, 84
CF76  EA        NOP                             A:2A X:55 Y:69 P:27 SP:FB PPU: 21, 93
CF77  24 01     BIT $01 = FF                    A:2A X:55 Y:69 P:27 SP:FB PPU: 21, 99
CF79  38        SEC                             A:2A X:55 Y:69 P:E5 SP:FB PPU: 21,108
CF7A  A9 80     LDA #$80                        A:2A X:55 Y:69 P:E5 SP:FB PPU: 21,114
CF7C  2A        ROL A                           A:80 X:55 Y:69 P:E5 SP:FB PPU: 21,120
CF7D  90 1E     BCC $CF9D                       A:01 X:55 Y:69 P:65 SP:FB PPU: 21,126
CF7F  F0 1C     BEQ $CF9D                       A:01 X:55 Y:69 P:65 SP:FB PPU: 21,132
CF81  30 1A     BMI $CF9D                       A:01 X:55 Y:69 P:65 SP:FB PPU: 21,138
CF83  50 18     BVC $CF9D                       A:01 X:55 Y:69 P:65 SP:FB PPU: 21,144
CF85  C9 01     CMP #$01                        A:01 X:55 Y:69 P:65 SP:FB PPU: 21,150
CF87  D0 14     BNE $CF9D                       A:01 X:55 Y:69 P:67 SP:FB PPU: 21,156
CF89  B8        CLV                             A:01 X:55 Y:69 P:67 SP:FB PPU: 21,162
CF8A  18        CLC                             A:01 X:55 Y:69 P:27 SP:FB PPU: 21,168
CF8B  A9 55     LDA #$55                        A:01 X:55 Y:69 P:26 SP:FB PPU: 21,174
CF8D  2A        ROL A                           A:55 X:55 Y:69 P:24 SP:FB PPU: 21,180
CF8E  B0 0D     BCS $CF9D                       A:AA X:55 Y:69 P:A4 SP:FB PPU: 21,186
CF90  F0 0B     BEQ $CF9D                       A:AA X:55 Y:69 P:A4 SP:FB PPU: 21,192
CF92  10 09     BPL $CF9D                       A:AA X:55 Y:69 P:A4 SP:FB PPU: 21,198
CF94  70 07     BVS $CF9D                       A:AA X:55 Y:69 P:A4 SP:FB PPU: 21,204
CF96  C9 AA     CMP #$AA                        A:AA X:55 Y:69 P:A4 SP:FB PPU: 21,210
CF98  D0 03     BNE $CF9D                       A:AA X:55 Y:69 P:27 SP:FB PPU: 21,216
CF9A  4C A1 CF  JMP $CFA1                       A:AA X:55 Y:69 P:27 SP:FB PPU: 21,222
CFA1  60        RTS                             A:AA X:55 Y:69 P:27 SP:FB PPU: 21,231
C60F  20 A2 CF  JSR $CFA2                       A:AA X:55 Y:69 P:27 SP:FD PPU: 21,249
CFA2  A5 00     LDA $00 = 00                    A:AA X:55 Y:69 P:27 SP:FB PPU: 21,267
CFA4  8D FF 07  STA $07FF = FB                  A:00 X:55 Y:69 P:27 SP:FB PPU: 21,276
CFA7  A9 00     LDA #$00                        A:00 X:55 Y:69 P:27 SP:FB PPU: 21,288
CFA9  85 80     STA $80 = 00                    A:00 X:55 Y:69 P:27 SP:FB PPU: 21,294
CFAB  A9 02     LDA #$02                        A:00 X:55 Y:69 P:27 SP:FB PPU: 21,303
CFAD  85 81     STA $81 = 00                    A:02 X:55 Y:69 P:25 SP:FB PPU: 21,309
CFAF  A9 FF     LDA #$FF                        A:02 X:55 Y:69 P:25 SP:FB PPU: 21,318
CFB1  85 01     STA $01 = FF                    A:FF X:55 Y:69 P:A5 SP:FB PPU: 21,324
CFB3  A9 00     LDA #$00                        A:FF X:55 Y:69 P:A5 SP:FB PPU: 21,333
CFB5  85 82     STA $82 = 00                    A:00 X:55 Y:69 P:27 SP:FB PPU: 21,339
CFB7  A9 03     LDA #$03                        A:00 X:55 Y:69 P:27 SP:FB PPU: 22,  7
CFB9  85 83     STA $83 = 00                    A:03 X:55 Y:69 P:25 SP:FB PPU: 22, 13
CFBB  85 84     STA $84 = 00                    A:03 X:55 Y:69 P:25 SP:FB PPU: 22, 22
CFBD  A9 00     LDA #$00                        A:03 X:55 Y:69 P:25 SP:FB PPU: 22, 31
CFBF  85 FF     STA $FF = 00                    A:00 X:55 Y:69 P:27 SP:FB PPU: 22, 37
CFC1  A9 04     LDA #$04                        A:00 X:55 Y:69 P:27 SP:FB PPU: 22, 46
CFC3  85 00     STA $00 = 00                    A:04 X:55 Y:69 P:25 SP:FB PPU: 22, 52
CFC5  A9 5A     LDA #$5A                        A:04 X:55 Y:69 P:25 SP:FB PPU: 22, 61
CFC7  8D 00 02  STA $0200 = 00                  A:5A X:55 Y:69 P:25 SP:FB PPU: 22, 67
CFCA  A9 5B     LDA #$5B                        A:5A X:55 Y:69 P:25 SP:FB PPU: 22, 79
CFCC  8D 00 03  STA $0300 = 00                  A:5B X:55 Y:69 P:25 SP:FB PPU: 22, 85
CFCF  A9 5C     LDA #$5C                        A:5B X:55 Y:69 P:25 SP:FB PPU: 22, 97
CFD1  8D 03 03  STA $0303 = 00                  A:5C X:55 Y:69 P:25 SP:FB PPU: 22,103
CFD4  A9 5D     LDA #$5D                        A:5C X:55 Y:69 P:25 SP:FB PPU: 22,115
CFD6  8D 00 04  STA $0400 = 00                  A:5D X:55 Y:69 P:25 SP:FB PPU: 22,121
CFD9  A2 00     LDX #$00                        A:5D X:55 Y:69 P:25 SP:FB PPU: 22,133
CFDB  A1 80     LDA ($80,X) @ 80 = 0200 = 5A    A:5D X:00 Y:69 P:27 SP:FB PPU: 22,139
CFDD  C9 5A     CMP #$5A                        A:5A X:00 Y:69 P:25 SP:FB PPU: 22,157
CFDF  D0 1F     BNE $D000                       A:5A X:00 Y:69 P:27 SP:FB PPU: 22,163
CFE1  E8        INX                             A:5A X:00 Y:69 P:27 SP:FB PPU: 22,169
CFE2  E8        INX                             A:5A X:01 Y:69 P:25 SP:FB PPU: 22,175
CFE3  A1 80     LDA ($80,X) @ 82 = 0300 = 5B    A:5A X:02 Y:69 P:25 SP:FB PPU: 22,181
CFE5  C9 5B     CMP #$5B                        A:5B X:02 Y:69 P:25 SP:FB PPU: 22,199
CFE7  D0 17     BNE $D000                       A:5B X:02 Y:69 P:27 SP:FB PPU: 22,205
CFE9  E8        INX                             A:5B X:02 Y:69 P:27 SP:FB PPU: 22,211
CFEA  A1 80     LDA ($80,X) @ 83 = 0303 = 5C    A:5B X:03 Y:69 P:25 SP:FB PPU: 22,217
CFEC  C9 5C     CMP #$5C                        A:5C X:03 Y:69 P:25 SP:FB PPU: 22,235
CFEE  D0 10     BNE $D000                       A:5C X:03 Y:69 P:27 SP:FB PPU: 22,241
CFF0  A2 00     LDX #$00                        A:5C X:03 Y:69 P:27 SP:FB PPU: 22,247
CFF2  A1 FF     LDA ($FF,X) @ FF = 0400 = 5D    A:5C X:00 Y:69 P:27 SP:FB PPU: 22,253
CFF4  C9 5D     CMP #$5D                        A:5D X:00 Y:69 P:25 SP:FB PPU: 22,271
CFF6  D0 08     BNE $D000                       A:5D X:00 Y:69 P:27 SP:FB PPU: 22,277
CFF8  A2 81     LDX #$81                        A:5D X:00 Y:69 P:27 SP:FB PPU: 22,283
CFFA  A1 FF     LDA ($FF,X) @ 80 = 0200 = 5A    A:5D X:81 Y:69 P:A5 SP:FB PPU: 22,289
CFFC  C9 5A     CMP #$5A                        A:5A X:81 Y:69 P:25 SP:FB PPU: 22,307
CFFE  F0 05     BEQ $D005                       A:5A X:81 Y:69 P:27 SP:FB PPU: 22,313
D005  A9 AA     LDA #$AA                        A:5A X:81 Y:69 P:27 SP:FB PPU: 22,322
D007  A2 00     LDX #$00                        A:AA X:81 Y:69 P:A5 SP:FB PPU: 22,328
D009  81 80     STA ($80,X) @ 80 = 0200 = 5A    A:AA X:00 Y:69 P:27 SP:FB PPU: 22,334
D00B  E8        INX                             A:AA X:00 Y:69 P:27 SP:FB PPU: 23, 11
D00C  E8        INX                             A:AA X:01 Y:69 P:25 SP:FB PPU: 23, 17
D00D  A9 AB     LDA #$AB                        A:AA X:02 Y:69 P:25 SP:FB PPU: 23, 23
D00F  81 80     STA ($80,X) @ 82 = 0300 = 5B    A:AB X:02 Y:69 P:A5 SP:FB PPU: 23, 29
D011  E8        INX                             A:AB X:02 Y:69 P:A5 SP:FB PPU: 23, 47
D012  A9 AC     LDA #$AC                        A:AB X:03 Y:69 P:25 SP:FB PPU: 23, 53
D014  81 80     STA ($80,X) @ 83 = 0303 = 5C    A:AC X:03 Y:69 P:A5 SP:FB PPU: 23, 59
D016  A2 00     LDX #$00                        A:AC X:03 Y:69 P:A5 SP:FB PPU: 23, 77
D018  A9 AD     LDA #$AD                        A:AC X:00 Y:69 P:27 SP:FB PPU: 23, 83
D01A  81 FF     STA ($FF,X) @ FF = 0400 = 5D    A:AD X:00 Y:69 P:A5 SP:FB PPU: 23, 89
D01C  AD 00 02  LDA $0200 = AA                  A:AD X:00 Y:69 P:A5 SP:FB PPU: 23,107
D01F  C9 AA     CMP #$AA                        A:AA X:00 Y:69 P:A5 SP:FB PPU: 23,119
D021  D0 15     BNE $D038                       A:AA X:00 Y:69 P:27 SP:FB PPU: 23,125
D023  AD 00 03  LDA $0300 = AB                  A:AA X:00 Y:69 P:27 SP:FB PPU: 23,131
D026  C9 AB     CMP #$AB                        A:AB X:00 Y:69 P:A5 SP:FB PPU: 23,143
D028  D0 0E     BNE $D038                       A:AB X:00 Y:69 P:27 SP:FB PPU: 23,149
D02A  AD 03 03  LDA $0303 = AC                  A:AB X:00 Y:69 P:27 SP:FB PPU: 23,155
D02D  C9 AC     CMP #$AC                        A:AC X:00 Y:69 P:A5 SP:FB PPU: 23,167
D02F  D0 07     BNE $D038                       A:AC X:00 Y:69 P:27 SP:FB PPU: 23,173
D031  AD 00 04  LDA $0400 = AD                  A:AC X:00 Y:69 P:27 SP:FB PPU: 23,179
D034  C9 AD     CMP #$AD                        A:AD X:00 Y:69 P:A5 SP:FB PPU: 23,191
D036  F0 05     BEQ $D03D                       A:AD X:00 Y:69 P:27 SP:FB PPU: 23,197
D03D  AD FF 07  LDA $07FF = 00                  A:AD X:00 Y:69 P:27 SP:FB PPU: 23,206
D040  85 00     STA $00 = 04                    A:00 X:00 Y:69 P:27 SP:FB PPU: 23,218
D042  A9 00     LDA #$00                        A:00 X:00 Y:69 P:27 SP:FB PPU: 23,227
D044  8D 00 03  STA $0300 = AB                  A:00 X:00 Y:69 P:27 SP:FB PPU: 23,233
D047  A9 AA     LDA #$AA                        A:00 X:00 Y:69 P:27 SP:FB PPU: 23,245
D049  8D 00 02  STA $0200 = AA                  A:AA X:00 Y:69 P:A5 SP:FB PPU: 23,251
D04C  A2 00     LDX #$00                        A:AA X:00 Y:69 P:A5 SP:FB PPU: 23,263
D04E  A0 5A     LDY #$5A                        A:AA X:00 Y:69 P:27 SP:FB PPU: 23,269
D050  20 B6 F7  JSR $F7B6                       A:AA X:00 Y:5A P:25 SP:FB PPU: 23,275
F7B6  18        CLC                             A:AA X:00 Y:5A P:25 SP:F9 PPU: 23,293
F7B7  A9 FF     LDA #$FF                        A:AA X:00 Y:5A P:24 SP:F9 PPU: 23,299
F7B9  85 01     STA $01 = FF                    A:FF X:00 Y:5A P:A4 SP:F9 PPU: 23,305
F7BB  24 01     BIT $01 = FF                    A:FF X:00 Y:5A P:A4 SP:F9 PPU: 23,314
F7BD  A9 55     LDA #$55                        A:FF X:00 Y:5A P:E4 SP:F9 PPU: 23,323
F7BF  60        RTS                             A:55 X:00 Y:5A P:64 SP:F9 PPU: 23,329
D053  01 80     ORA ($80,X) @ 80 = 0200 = AA    A:55 X:00 Y:5A P:64 SP:FB PPU: 24,  6
D055  20 C0 F7  JSR $F7C0                       A:FF X:00 Y:5A P:E4 SP:FB PPU: 24, 24
F7C0  B0 09     BCS $F7CB                       A:FF X:00 Y:5A P:E4 SP:F9 PPU: 24, 42
F7C2  10 07     BPL $F7CB                       A:FF X:00 Y:5A P:E4 SP:F9 PPU: 24, 48
F7C4  C9 FF     CMP #$FF                        A:FF X:00 Y:5A P:E4 SP:F9 PPU: 24, 54
F7C6  D0 03     BNE $F7CB                       A:FF X:00 Y:5A P:67 SP:F9 PPU: 24, 60
F7C8  50 01     BVC $F7CB                       A:FF X:00 Y:5A P:67 SP:F9 PPU: 24, 66
F7CA  60        RTS                             A:FF X:00 Y:5A P:67 SP:F9 PPU: 24, 72
D058  C8        INY                             A:FF X:00 Y:5A P:67 SP:FB PPU: 24, 90
D059  20 CE F7  JSR $F7CE                       A:FF X:00 Y:5B P:65 SP:FB PPU: 24, 96
F7CE  38        SEC                             A:FF X:00 Y:5B P:65 SP:F9 PPU: 24,114
F7CF  B8        CLV                             A:FF X:00 Y:5B P:65 SP:F9 PPU: 24,120
F7D0  A9 00     LDA #$00                        A:FF X:00 Y:5B P:25 SP:F9 PPU: 24,126
F7D2  60        RTS                             A:00 X:00 Y:5B P:27 SP:F9 PPU: 24,132
D05C  01 82     ORA ($82,X) @ 82 = 0300 = 00    A:00 X:00 Y:5B P:27 SP:FB PPU: 24,150
D05E  20 D3 F7  JSR $F7D3                       A:00 X:00 Y:5B P:27 SP:FB PPU: 24,168
F7D3  D0 07     BNE $F7DC                       A:00 X:00 Y:5B P:27 SP:F9 PPU: 24,186
F7D5  70 05     BVS $F7DC                       A:00 X:00 Y:5B P:27 SP:F9 PPU: 24,192
F7D7  90 03     BCC $F7DC                       A:00 X:00 Y:5B P:27 SP:F9 PPU: 24,198
F7D9  30 01     BMI $F7DC                       A:00 X:00 Y:5B P:27 SP:F9 PPU: 24,204
F7DB  60        RTS                             A:00 X:00 Y:5B P:27 SP:F9 PPU: 24,210
D061  C8        INY                             A:00 X:00 Y:5B P:27 SP:FB PPU: 24,228
D062  20 DF F7  JSR $F7DF                       A:00 X:00 Y:5C P:25 SP:FB PPU: 24,234
F7DF  18        CLC                             A:00 X:00 Y:5C P:25 SP:F9 PPU: 24,252
F7E0  24 01     BIT $01 = FF                    A:00 X:00 Y:5C P:24 SP:F9 PPU: 24,258
F7E2  A9 55     LDA #$55                        A:00 X:00 Y:5C P:E6 SP:F9 PPU: 24,267
F7E4  60        RTS                             A:55 X:00 Y:5C P:64 SP:F9 PPU: 24,273
D065  21 80     AND ($80,X) @ 80 = 0200 = AA    A:55 X:00 Y:5C P:64 SP:FB PPU: 24,291
D067  20 E5 F7  JSR $F7E5                       A:00 X:00 Y:5C P:66 SP:FB PPU: 24,309
F7E5  D0 07     BNE $F7EE                       A:00 X:00 Y:5C P:66 SP:F9 PPU: 24,327
F7E7  50 05     BVC $F7EE                       A:00 X:00 Y:5C P:66 SP:F9 PPU: 24,333
F7E9  B0 03     BCS $F7EE                       A:00 X:00 Y:5C P:66 SP:F9 PPU: 24,339
F7EB  30 01     BMI $F7EE                       A:00 X:00 Y:5C P:66 SP:F9 PPU: 25,  4
F7ED  60        RTS                             A:00 X:00 Y:5C P:66 SP:F9 PPU: 25, 10
D06A  C8        INY                             A:00 X:00 Y:5C P:66 SP:FB PPU: 25, 28
D06B  A9 EF     LDA #$EF                        A:00 X:00 Y:5D P:64 SP:FB PPU: 25, 34
D06D  8D 00 03  STA $0300 = 00                  A:EF X:00 Y:5D P:E4 SP:FB PPU: 25, 40
D070  20 F1 F7  JSR $F7F1                       A:EF X:00 Y:5D P:E4 SP:FB PPU: 25, 52
F7F1  38        SEC                             A:EF X:00 Y:5D P:E4 SP:F9 PPU: 25, 70
F7F2  B8        CLV                             A:EF X:00 Y:5D P:E5 SP:F9 PPU: 25, 76
F7F3  A9 F8     LDA #$F8                        A:EF X:00 Y:5D P:A5 SP:F9 PPU: 25, 82
F7F5  60        RTS                             A:F8 X:00 Y:5D P:A5 SP:F9 PPU: 25, 88
D073  21 82     AND ($82,X) @ 82 = 0300 = EF    A:F8 X:00 Y:5D P:A5 SP:FB PPU: 25,106
D075  20 F6 F7  JSR $F7F6                       A:E8 X:00 Y:5D P:A5 SP:FB PPU: 25,124
F7F6  90 09     BCC $F801                       A:E8 X:00 Y:5D P:A5 SP:F9 PPU: 25,142
F7F8  10 07     BPL $F801                       A:E8 X:00 Y:5D P:A5 SP:F9 PPU: 25,148
F7FA  C9 E8     CMP #$E8                        A:E8 X:00 Y:5D P:A5 SP:F9 PPU: 25,154
F7FC  D0 03     BNE $F801                       A:E8 X:00 Y:5D P:27 SP:F9 PPU: 25,160
F7FE  70 01     BVS $F801                       A:E8 X:00 Y:5D P:27 SP:F9 PPU: 25,166
F800  60        RTS                             A:E8 X:00 Y:5D P:27 SP:F9 PPU: 25,172
D078  C8        INY                             A:E8 X:00 Y:5D P:27 SP:FB PPU: 25,190
D079  20 04 F8  JSR $F804                       A:E8 X:00 Y:5E P:25 SP:FB PPU: 25,196
F804  18        CLC                             A:E8 X:00 Y:5E P:25 SP:F9 PPU: 25,214
F805  24 01     BIT $01 = FF                    A:E8 X:00 Y:5E P:24 SP:F9 PPU: 25,220
F807  A9 5F     LDA #$5F                        A:E8 X:00 Y:5E P:E4 SP:F9 PPU: 25,229
F809  60        RTS                             A:5F X:00 Y:5E P:64 SP:F9 PPU: 25,235
D07C  41 80     EOR ($80,X) @ 80 = 0200 = AA    A:5F X:00 Y:5E P:64 SP:FB PPU: 25,253
D07E  20 0A F8  JSR $F80A                       A:F5 X:00 Y:5E P:E4 SP:FB PPU: 25,271
F80A  B0 09     BCS $F815                       A:F5 X:00 Y:5E P:E4 SP:F9 PPU: 25,289
F80C  10 07     BPL $F815                       A:F5 X:00 Y:5E P:E4 SP:F9 PPU: 25,295
F80E  C9 F5     CMP #$F5                        A:F5 X:00 Y:5E P:E4 SP:F9 PPU: 25,301
F810  D0 03     BNE $F815                       A:F5 X:00 Y:5E P:67 SP:F9 PPU: 25,307
F812  50 01     BVC $F815                       A:F5 X:00 Y:5E P:67 SP:F9 PPU: 25,313
F814  60        RTS                             A:F5 X:00 Y:5E P:67 SP:F9 PPU: 25,319
D081  C8        INY                             A:F5 X:00 Y:5E P:67 SP:FB PPU: 25,337
D082  A9 70     LDA #$70                        A:F5 X:00 Y:5F P:65 SP:FB PPU: 26,  2
D084  8D 00 03  STA $0300 = EF                  A:70 X:00 Y:5F P:65 SP:FB PPU: 26,  8
D087  20 18 F8  JSR $F818                       A:70 X:00 Y:5F P:65 SP:FB PPU: 26, 20
F818  38        SEC                             A:70 X:00 Y:5F P:65 SP:F9 PPU: 26, 38
F819  B8        CLV                             A:70 X:00 Y:5F P:65 SP:F9 PPU: 26, 44
F81A  A9 70     LDA #$70                        A:70 X:00 Y:5F P:25 SP:F9 PPU: 26, 50
F81C  60        RTS                             A:70 X:00 Y:5F P:25 SP:F9 PPU: 26, 56
D08A  41 82     EOR ($82,X) @ 82 = 0300 = 70    A:70 X:00 Y:5F P:25 SP:FB PPU: 26, 74
D08C  20 1D F8  JSR $F81D                       A:00 X:00 Y:5F P:27 SP:FB PPU: 26, 92
F81D  D0 07     BNE $F826                       A:00 X:00 Y:5F P:27 SP:F9 PPU: 26,110
F81F  70 05     BVS $F826                       A:00 X:00 Y:5F P:27 SP:F9 PPU: 26,116
F821  90 03     BCC $F826                       A:00 X:00 Y:5F P:27 SP:F9 PPU: 26,122
F823  30 01     BMI $F826                       A:00 X:00 Y:5F P:27 SP:F9 PPU: 26,128
F825  60        RTS                             A:00 X:00 Y:5F P:27 SP:F9 PPU: 26,134
D08F  C8        INY                             A:00 X:00 Y:5F P:27 SP:FB PPU: 26,152
D090  A9 69     LDA #$69                        A:00 X:00 Y:60 P:25 SP:FB PPU: 26,158
D092  8D 00 02  STA $0200 = AA                  A:69 X:00 Y:60 P:25 SP:FB PPU: 26,164
D095  20 29 F8  JSR $F829                       A:69 X:00 Y:60 P:25 SP:FB PPU: 26,176
F829  18        CLC                             A:69 X:00 Y:60 P:25 SP:F9 PPU: 26,194
F82A  24 01     BIT $01 = FF                    A:69 X:00 Y:60 P:24 SP:F9 PPU: 26,200
F82C  A9 00     LDA #$00                        A:69 X:00 Y:60 P:E4 SP:F9 PPU: 26,209
F82E  60        RTS                             A:00 X:00 Y:60 P:66 SP:F9 PPU: 26,215
D098  61 80     ADC ($80,X) @ 80 = 0200 = 69    A:00 X:00 Y:60 P:66 SP:FB PPU: 26,233
D09A  20 2F F8  JSR $F82F                       A:69 X:00 Y:60 P:24 SP:FB PPU: 26,251
F82F  30 09     BMI $F83A                       A:69 X:00 Y:60 P:24 SP:F9 PPU: 26,269
F831  B0 07     BCS $F83A                       A:69 X:00 Y:60 P:24 SP:F9 PPU: 26,275
F833  C9 69     CMP #$69                        A:69 X:00 Y:60 P:24 SP:F9 PPU: 26,281
F835  D0 03     BNE $F83A                       A:69 X:00 Y:60 P:27 SP:F9 PPU: 26,287
F837  70 01     BVS $F83A                       A:69 X:00 Y:60 P:27 SP:F9 PPU: 26,293
F839  60        RTS                             A:69 X:00 Y:60 P:27 SP:F9 PPU: 26,299
D09D  C8        INY                             A:69 X:00 Y:60 P:27 SP:FB PPU: 26,317
D09E  20 3D F8  JSR $F83D                       A:69 X:00 Y:61 P:25 SP:FB PPU: 26,323
F83D  38        SEC                             A:69 X:00 Y:61 P:25 SP:F9 PPU: 27,  0
F83E  24 01     BIT $01 = FF                    A:69 X:00 Y:61 P:25 SP:F9 PPU: 27,  6
F840  A9 00     LDA #$00                        A:69 X:00 Y:61 P:E5 SP:F9 PPU: 27, 15
F842  60        RTS                             A:00 X:00 Y:61 P:67 SP:F9 PPU: 27, 21
D0A1  61 80     ADC ($80,X) @ 80 = 0200 = 69    A:00 X:00 Y:61 P:67 SP:FB PPU: 27, 39
D0A3  20 43 F8  JSR $F843                       A:6A X:00 Y:61 P:24 SP:FB PPU: 27, 57
F843  30 09     BMI $F84E                       A:6A X:00 Y:61 P:24 SP:F9 PPU: 27, 75
F845  B0 07     BCS $F84E                       A:6A X:00 Y:61 P:24 SP:F9 PPU: 27, 81
F847  C9 6A     CMP #$6A                        A:6A X:00 Y:61 P:24 SP:F9 PPU: 27, 87
F849  D0 03     BNE $F84E                       A:6A X:00 Y:61 P:27 SP:F9 PPU: 27, 93
F84B  70 01     BVS $F84E                       A:6A X:00 Y:61 P:27 SP:F9 PPU: 27, 99
F84D  60        RTS                             A:6A X:00 Y:61 P:27 SP:F9 PPU: 27,105
D0A6  C8        INY                             A:6A X:00 Y:61 P:27 SP:FB PPU: 27,123
D0A7  A9 7F     LDA #$7F                        A:6A X:00 Y:62 P:25 SP:FB PPU: 27,129
D0A9  8D 00 02  STA $0200 = 69                  A:7F X:00 Y:62 P:25 SP:FB PPU: 27,135
D0AC  20 51 F8  JSR $F851                       A:7F X:00 Y:62 P:25 SP:FB PPU: 27,147
F851  38        SEC                             A:7F X:00 Y:62 P:25 SP:F9 PPU: 27,165
F852  B8        CLV                             A:7F X:00 Y:62 P:25 SP:F9 PPU: 27,171
F853  A9 7F     LDA #$7F                        A:7F X:00 Y:62 P:25 SP:F9 PPU: 27,177
F855  60        RTS                             A:7F X:00 Y:62 P:25 SP:F9 PPU: 27,183
D0AF  61 80     ADC ($80,X) @ 80 = 0200 = 7F    A:7F X:00 Y:62 P:25 SP:FB PPU: 27,201
D0B1  20 56 F8  JSR $F856                       A:FF X:00 Y:62 P:E4 SP:FB PPU: 27,219
F856  10 09     BPL $F861                       A:FF X:00 Y:62 P:E4 SP:F9 PPU: 27,237
F858  B0 07     BCS $F861                       A:FF X:00 Y:62 P:E4 SP:F9 PPU: 27,243
F85A  C9 FF     CMP #$FF                        A:FF X:00 Y:62 P:E4 SP:F9 PPU: 27,249
F85C  D0 03     BNE $F861                       A:FF X:00 Y:62 P:67 SP:F9 PPU: 27,255
F85E  50 01     BVC $F861                       A:FF X:00 Y:62 P:67 SP:F9 PPU: 27,261
F860  60        RTS                             A:FF X:00 Y:62 P:67 SP:F9 PPU: 27,267
D0B4  C8        INY                             A:FF X:00 Y:62 P:67 SP:FB PPU: 27,285
D0B5  A9 80     LDA #$80                        A:FF X:00 Y:63 P:65 SP:FB PPU: 27,291
D0B7  8D 00 02  STA $0200 = 7F                  A:80 X:00 Y:63 P:E5 SP:FB PPU: 27,297
D0BA  20 64 F8  JSR $F864                       A:80 X:00 Y:63 P:E5 SP:FB PPU: 27,309
F864  18        CLC                             A:80 X:00 Y:63 P:E5 SP:F9 PPU: 27,327
F865  24 01     BIT $01 = FF                    A:80 X:00 Y:63 P:E4 SP:F9 PPU: 27,333
F867  A9 7F     LDA #$7F                        A:80 X:00 Y:63 P:E4 SP:F9 PPU: 28,  1
F869  60        RTS                             A:7F X:00 Y:63 P:64 SP:F9 PPU: 28,  7
D0BD  61 80     ADC ($80,X) @ 80 = 0200 = 80    A:7F X:00 Y:63 P:64 SP:FB PPU: 28, 25
D0BF  20 6A F8  JSR $F86A                       A:FF X:00 Y:63 P:A4 SP:FB PPU: 28, 43
F86A  10 09     BPL $F875                       A:FF X:00 Y:63 P:A4 SP:F9 PPU: 28, 61
F86C  B0 07     BCS $F875                       A:FF X:00 Y:63 P:A4 SP:F9 PPU: 28, 67
F86E  C9 FF     CMP #$FF                        A:FF X:00 Y:63 P:A4 SP:F9 PPU: 28, 73
F870  D0 03     BNE $F875                       A:FF X:00 Y:63 P:27 SP:F9 PPU: 28, 79
F872  70 01     BVS $F875                       A:FF X:00 Y:63 P:27 SP:F9 PPU: 28, 85
F874  60        RTS                             A:FF X:00 Y:63 P:27 SP:F9 PPU: 28, 91
D0C2  C8        INY                             A:FF X:00 Y:63 P:27 SP:FB PPU: 28,109
D0C3  20 78 F8  JSR $F878                       A:FF X:00 Y:64 P:25 SP:FB PPU: 28,115
F878  38        SEC                             A:FF X:00 Y:64 P:25 SP:F9 PPU: 28,133
F879  B8        CLV                             A:FF X:00 Y:64 P:25 SP:F9 PPU: 28,139
F87A  A9 7F     LDA #$7F                        A:FF X:00 Y:64 P:25 SP:F9 PPU: 28,145
F87C  60        RTS                             A:7F X:00 Y:64 P:25 SP:F9 PPU: 28,151
D0C6  61 80     ADC ($80,X) @ 80 = 0200 = 80    A:7F X:00 Y:64 P:25 SP:FB PPU: 28,169
D0C8  20 7D F8  JSR $F87D                       A:00 X:00 Y:64 P:27 SP:FB PPU: 28,187
F87D  D0 07     BNE $F886                       A:00 X:00 Y:64 P:27 SP:F9 PPU: 28,205
F87F  30 05     BMI $F886                       A:00 X:00 Y:64 P:27 SP:F9 PPU: 28,211
F881  70 03     BVS $F886                       A:00 X:00 Y:64 P:27 SP:F9 PPU: 28,217
F883  90 01     BCC $F886                       A:00 X:00 Y:64 P:27 SP:F9 PPU: 28,223
F885  60        RTS                             A:00 X:00 Y:64 P:27 SP:F9 PPU: 28,229
D0CB  C8        INY                             A:00 X:00 Y:64 P:27 SP:FB PPU: 28,247
D0CC  A9 40     LDA #$40                        A:00 X:00 Y:65 P:25 SP:FB PPU: 28,253
D0CE  8D 00 02  STA $0200 = 80                  A:40 X:00 Y:65 P:25 SP:FB PPU: 28,259
D0D1  20 89 F8  JSR $F889                       A:40 X:00 Y:65 P:25 SP:FB PPU: 28,271
F889  24 01     BIT $01 = FF                    A:40 X:00 Y:65 P:25 SP:F9 PPU: 28,289
F88B  A9 40     LDA #$40                        A:40 X:00 Y:65 P:E5 SP:F9 PPU: 28,298
F88D  60        RTS                             A:40 X:00 Y:65 P:65 SP:F9 PPU: 28,304
D0D4  C1 80     CMP ($80,X) @ 80 = 0200 = 40    A:40 X:00 Y:65 P:65 SP:FB PPU: 28,322
D0D6  20 8E F8  JSR $F88E                       A:40 X:00 Y:65 P:67 SP:FB PPU: 28,340
F88E  30 07     BMI $F897                       A:40 X:00 Y:65 P:67 SP:F9 PPU: 29, 17
F890  90 05     BCC $F897                       A:40 X:00 Y:65 P:67 SP:F9 PPU: 29, 23
F892  D0 03     BNE $F897                       A:40 X:00 Y:65 P:67 SP:F9 PPU: 29, 29
F894  50 01     BVC $F897                       A:40 X:00 Y:65 P:67 SP:F9 PPU: 29, 35
F896  60        RTS                             A:40 X:00 Y:65 P:67 SP:F9 PPU: 29, 41
D0D9  C8        INY                             A:40 X:00 Y:65 P:67 SP:FB PPU: 29, 59
D0DA  48        PHA                             A:40 X:00 Y:66 P:65 SP:FB PPU: 29, 65
D0DB  A9 3F     LDA #$3F                        A:40 X:00 Y:66 P:65 SP:FA PPU: 29, 74
D0DD  8D 00 02  STA $0200 = 40                  A:3F X:00 Y:66 P:65 SP:FA PPU: 29, 80
D0E0  68        PLA                             A:3F X:00 Y:66 P:65 SP:FA PPU: 29, 92
D0E1  20 9A F8  JSR $F89A                       A:40 X:00 Y:66 P:65 SP:FB PPU: 29,104
F89A  B8        CLV                             A:40 X:00 Y:66 P:65 SP:F9 PPU: 29,122
F89B  60        RTS                             A:40 X:00 Y:66 P:25 SP:F9 PPU: 29,128
D0E4  C1 80     CMP ($80,X) @ 80 = 0200 = 3F    A:40 X:00 Y:66 P:25 SP:FB PPU: 29,146
D0E6  20 9C F8  JSR $F89C                       A:40 X:00 Y:66 P:25 SP:FB PPU: 29,164
F89C  F0 07     BEQ $F8A5                       A:40 X:00 Y:66 P:25 SP:F9 PPU: 29,182
F89E  30 05     BMI $F8A5                       A:40 X:00 Y:66 P:25 SP:F9 PPU: 29,188
F8A0  90 03     BCC $F8A5                       A:40 X:00 Y:66 P:25 SP:F9 PPU: 29,194
F8A2  70 01     BVS $F8A5                       A:40 X:00 Y:66 P:25 SP:F9 PPU: 29,200
F8A4  60        RTS                             A:40 X:00 Y:66 P:25 SP:F9 PPU: 29,206
D0E9  C8        INY                             A:40 X:00 Y:66 P:25 SP:FB PPU: 29,224
D0EA  48        PHA                             A:40 X:00 Y:67 P:25 SP:FB PPU: 29,230
D0EB  A9 41     LDA #$41                        A:40 X:00 Y:67 P:25 SP:FA PPU: 29,239
D0ED  8D 00 02  STA $0200 = 3F                  A:41 X:00 Y:67 P:25 SP:FA PPU: 29,245
D0F0  68        PLA                             A:41 X:00 Y:67 P:25 SP:FA PPU: 29,257
D0F1  C1 80     CMP ($80,X) @ 80 = 0200 = 41    A:40 X:00 Y:67 P:25 SP:FB PPU: 29,269
D0F3  20 A8 F8  JSR $F8A8                       A:40 X:00 Y:67 P:A4 SP:FB PPU: 29,287
F8A8  F0 05     BEQ $F8AF                       A:40 X:00 Y:67 P:A4 SP:F9 PPU: 29,305
F8AA  10 03     BPL $F8AF                       A:40 X:00 Y:67 P:A4 SP:F9 PPU: 29,311
F8AC  10 01     BPL $F8AF                       A:40 X:00 Y:67 P:A4 SP:F9 PPU: 29,317
F8AE  60        RTS                             A:40 X:00 Y:67 P:A4 SP:F9 PPU: 29,323
D0F6  C8        INY                             A:40 X:00 Y:67 P:A4 SP:FB PPU: 30,  0
D0F7  48        PHA                             A:40 X:00 Y:68 P:24 SP:FB PPU: 30,  6
D0F8  A9 00     LDA #$00                        A:40 X:00 Y:68 P:24 SP:FA PPU: 30, 15
D0FA  8D 00 02  STA $0200 = 41                  A:00 X:00 Y:68 P:26 SP:FA PPU: 30, 21
D0FD  68        PLA                             A:00 X:00 Y:68 P:26 SP:FA PPU: 30, 33
D0FE  20 B2 F8  JSR $F8B2                       A:40 X:00 Y:68 P:24 SP:FB PPU: 30, 45
F8B2  A9 80     LDA #$80                        A:40 X:00 Y:68 P:24 SP:F9 PPU: 30, 63
F8B4  60        RTS                             A:80 X:00 Y:68 P:A4 SP:F9 PPU: 30, 69
D101  C1 80     CMP ($80,X) @ 80 = 0200 = 00    A:80 X:00 Y:68 P:A4 SP:FB PPU: 30, 87
D103  20 B5 F8  JSR $F8B5                       A:80 X:00 Y:68 P:A5 SP:FB PPU: 30,105
F8B5  F0 05     BEQ $F8BC                       A:80 X:00 Y:68 P:A5 SP:F9 PPU: 30,123
F8B7  10 03     BPL $F8BC                       A:80 X:00 Y:68 P:A5 SP:F9 PPU: 30,129
F8B9  90 01     BCC $F8BC                       A:80 X:00 Y:68 P:A5 SP:F9 PPU: 30,135
F8BB  60        RTS                             A:80 X:00 Y:68 P:A5 SP:F9 PPU: 30,141
D106  C8        INY                             A:80 X:00 Y:68 P:A5 SP:FB PPU: 30,159
D107  48        PHA                             A:80 X:00 Y:69 P:25 SP:FB PPU: 30,165
D108  A9 80     LDA #$80                        A:80 X:00 Y:69 P:25 SP:FA PPU: 30,174
D10A  8D 00 02  STA $0200 = 00                  A:80 X:00 Y:69 P:A5 SP:FA PPU: 30,180
D10D  68        PLA                             A:80 X:00 Y:69 P:A5 SP:FA PPU: 30,192
D10E  C1 80     CMP ($80,X) @ 80 = 0200 = 80    A:80 X:00 Y:69 P:A5 SP:FB PPU: 30,204
D110  20 BF F8  JSR $F8BF                       A:80 X:00 Y:69 P:27 SP:FB PPU: 30,222
F8BF  D0 05     BNE $F8C6                       A:80 X:00 Y:69 P:27 SP:F9 PPU: 30,240
F8C1  30 03     BMI $F8C6                       A:80 X:00 Y:69 P:27 SP:F9 PPU: 30,246
F8C3  90 01     BCC $F8C6                       A:80 X:00 Y:69 P:27 SP:F9 PPU: 30,252
F8C5  60        RTS                             A:80 X:00 Y:69 P:27 SP:F9 PPU: 30,258
D113  C8        INY                             A:80 X:00 Y:69 P:27 SP:FB PPU: 30,276
D114  48        PHA                             A:80 X:00 Y:6A P:25 SP:FB PPU: 30,282
D115  A9 81     LDA #$81                        A:80 X:00 Y:6A P:25 SP:FA PPU: 30,291
D117  8D 00 02  STA $0200 = 80                  A:81 X:00 Y:6A P:A5 SP:FA PPU: 30,297
D11A  68        PLA                             A:81 X:00 Y:6A P:A5 SP:FA PPU: 30,309
D11B  C1 80     CMP ($80,X) @ 80 = 0200 = 81    A:80 X:00 Y:6A P:A5 SP:FB PPU: 30,321
D11D  20 C9 F8  JSR $F8C9                       A:80 X:00 Y:6A P:A4 SP:FB PPU: 30,339
F8C9  B0 05     BCS $F8D0                       A:80 X:00 Y:6A P:A4 SP:F9 PPU: 31, 16
F8CB  F0 03     BEQ $F8D0                       A:80 X:00 Y:6A P:A4 SP:F9 PPU: 31, 22
F8CD  10 01     BPL $F8D0                       A:80 X:00 Y:6A P:A4 SP:F9 PPU: 31, 28
F8CF  60        RTS                             A:80 X:00 Y:6A P:A4 SP:F9 PPU: 31, 34
D120  C8        INY                             A:80 X:00 Y:6A P:A4 SP:FB PPU: 31, 52
D121  48        PHA                             A:80 X:00 Y:6B P:24 SP:FB PPU: 31, 58
D122  A9 7F     LDA #$7F                        A:80 X:00 Y:6B P:24 SP:FA PPU: 31, 67
D124  8D 00 02  STA $0200 = 81                  A:7F X:00 Y:6B P:24 SP:FA PPU: 31, 73
D127  68        PLA                             A:7F X:00 Y:6B P:24 SP:FA PPU: 31, 85
D128  C1 80     CMP ($80,X) @ 80 = 0200 = 7F    A:80 X:00 Y:6B P:A4 SP:FB PPU: 31, 97
D12A  20 D3 F8  JSR $F8D3                       A:80 X:00 Y:6B P:25 SP:FB PPU: 31,115
F8D3  90 05     BCC $F8DA                       A:80 X:00 Y:6B P:25 SP:F9 PPU: 31,133
F8D5  F0 03     BEQ $F8DA                       A:80 X:00 Y:6B P:25 SP:F9 PPU: 31,139
F8D7  30 01     BMI $F8DA                       A:80 X:00 Y:6B P:25 SP:F9 PPU: 31,145
F8D9  60        RTS                             A:80 X:00 Y:6B P:25 SP:F9 PPU: 31,151
D12D  C8        INY                             A:80 X:00 Y:6B P:25 SP:FB PPU: 31,169
D12E  A9 40     LDA #$40                        A:80 X:00 Y:6C P:25 SP:FB PPU: 31,175
D130  8D 00 02  STA $0200 = 7F                  A:40 X:00 Y:6C P:25 SP:FB PPU: 31,181
D133  20 31 F9  JSR $F931                       A:40 X:00 Y:6C P:25 SP:FB PPU: 31,193
F931  24 01     BIT $01 = FF                    A:40 X:00 Y:6C P:25 SP:F9 PPU: 31,211
F933  A9 40     LDA #$40                        A:40 X:00 Y:6C P:E5 SP:F9 PPU: 31,220
F935  38        SEC                             A:40 X:00 Y:6C P:65 SP:F9 PPU: 31,226
F936  60        RTS                             A:40 X:00 Y:6C P:65 SP:F9 PPU: 31,232
D136  E1 80     SBC ($80,X) @ 80 = 0200 = 40    A:40 X:00 Y:6C P:65 SP:FB PPU: 31,250
D138  20 37 F9  JSR $F937                       A:00 X:00 Y:6C P:27 SP:FB PPU: 31,268
F937  30 0B     BMI $F944                       A:00 X:00 Y:6C P:27 SP:F9 PPU: 31,286
F939  90 09     BCC $F944                       A:00 X:00 Y:6C P:27 SP:F9 PPU: 31,292
F93B  D0 07     BNE $F944                       A:00 X:00 Y:6C P:27 SP:F9 PPU: 31,298
F93D  70 05     BVS $F944                       A:00 X:00 Y:6C P:27 SP:F9 PPU: 31,304
F93F  C9 00     CMP #$00                        A:00 X:00 Y:6C P:27 SP:F9 PPU: 31,310
F941  D0 01     BNE $F944                       A:00 X:00 Y:6C P:27 SP:F9 PPU: 31,316
F943  60        RTS                             A:00 X:00 Y:6C P:27 SP:F9 PPU: 31,322
D13B  C8        INY                             A:00 X:00 Y:6C P:27 SP:FB PPU: 31,340
D13C  A9 3F     LDA #$3F                        A:00 X:00 Y:6D P:25 SP:FB PPU: 32,  5
D13E  8D 00 02  STA $0200 = 40                  A:3F X:00 Y:6D P:25 SP:FB PPU: 32, 11
D141  20 47 F9  JSR $F947                       A:3F X:00 Y:6D P:25 SP:FB PPU: 32, 23
F947  B8        CLV                             A:3F X:00 Y:6D P:25 SP:F9 PPU: 32, 41
F948  38        SEC                             A:3F X:00 Y:6D P:25 SP:F9 PPU: 32, 47
F949  A9 40     LDA #$40                        A:3F X:00 Y:6D P:25 SP:F9 PPU: 32, 53
F94B  60        RTS                             A:40 X:00 Y:6D P:25 SP:F9 PPU: 32, 59
D144  E1 80     SBC ($80,X) @ 80 = 0200 = 3F    A:40 X:00 Y:6D P:25 SP:FB PPU: 32, 77
D146  20 4C F9  JSR $F94C                       A:01 X:00 Y:6D P:25 SP:FB PPU: 32, 95
F94C  F0 0B     BEQ $F959                       A:01 X:00 Y:6D P:25 SP:F9 PPU: 32,113
F94E  30 09     BMI $F959                       A:01 X:00 Y:6D P:25 SP:F9 PPU: 32,119
F950  90 07     BCC $F959                       A:01 X:00 Y:6D P:25 SP:F9 PPU: 32,125
F952  70 05     BVS $F959                       A:01 X:00 Y:6D P:25 SP:F9 PPU: 32,131
F954  C9 01     CMP #$01                        A:01 X:00 Y:6D P:25 SP:F9 PPU: 32,137
F956  D0 01     BNE $F959                       A:01 X:00 Y:6D P:27 SP:F9 PPU: 32,143
F958  60        RTS                             A:01 X:00 Y:6D P:27 SP:F9 PPU: 32,149
D149  C8        INY                             A:01 X:00 Y:6D P:27 SP:FB PPU: 32,167
D14A  A9 41     LDA #$41                        A:01 X:00 Y:6E P:25 SP:FB PPU: 32,173
D14C  8D 00 02  STA $0200 = 3F                  A:41 X:00 Y:6E P:25 SP:FB PPU: 32,179
D14F  20 5C F9  JSR $F95C                       A:41 X:00 Y:6E P:25 SP:FB PPU: 32,191
F95C  A9 40     LDA #$40                        A:41 X:00 Y:6E P:25 SP:F9 PPU: 32,209
F95E  38        SEC                             A:40 X:00 Y:6E P:25 SP:F9 PPU: 32,215
F95F  24 01     BIT $01 = FF                    A:40 X:00 Y:6E P:25 SP:F9 PPU: 32,221
F961  60        RTS                             A:40 X:00 Y:6E P:E5 SP:F9 PPU: 32,230
D152  E1 80     SBC ($80,X) @ 80 = 0200 = 41    A:40 X:00 Y:6E P:E5 SP:FB PPU: 32,248
D154  20 62 F9  JSR $F962                       A:FF X:00 Y:6E P:A4 SP:FB PPU: 32,266
F962  B0 0B     BCS $F96F                       A:FF X:00 Y:6E P:A4 SP:F9 PPU: 32,284
F964  F0 09     BEQ $F96F                       A:FF X:00 Y:6E P:A4 SP:F9 PPU: 32,290
F966  10 07     BPL $F96F                       A:FF X:00 Y:6E P:A4 SP:F9 PPU: 32,296
F968  70 05     BVS $F96F                       A:FF X:00 Y:6E P:A4 SP:F9 PPU: 32,302
F96A  C9 FF     CMP #$FF                        A:FF X:00 Y:6E P:A4 SP:F9 PPU: 32,308
F96C  D0 01     BNE $F96F                       A:FF X:00 Y:6E P:27 SP:F9 PPU: 32,314
F96E  60        RTS                             A:FF X:00 Y:6E P:27 SP:F9 PPU: 32,320
D157  C8        INY                             A:FF X:00 Y:6E P:27 SP:FB PPU: 32,338
D158  A9 00     LDA #$00                        A:FF X:00 Y:6F P:25 SP:FB PPU: 33,  3
D15A  8D 00 02  STA $0200 = 41                  A:00 X:00 Y:6F P:27 SP:FB PPU: 33,  9
D15D  20 72 F9  JSR $F972                       A:00 X:00 Y:6F P:27 SP:FB PPU: 33, 21
F972  18        CLC                             A:00 X:00 Y:6F P:27 SP:F9 PPU: 33, 39
F973  A9 80     LDA #$80                        A:00 X:00 Y:6F P:26 SP:F9 PPU: 33, 45
F975  60        RTS                             A:80 X:00 Y:6F P:A4 SP:F9 PPU: 33, 51
D160  E1 80     SBC ($80,X) @ 80 = 0200 = 00    A:80 X:00 Y:6F P:A4 SP:FB PPU: 33, 69
D162  20 76 F9  JSR $F976                       A:7F X:00 Y:6F P:65 SP:FB PPU: 33, 87
F976  90 05     BCC $F97D                       A:7F X:00 Y:6F P:65 SP:F9 PPU: 33,105
F978  C9 7F     CMP #$7F                        A:7F X:00 Y:6F P:65 SP:F9 PPU: 33,111
F97A  D0 01     BNE $F97D                       A:7F X:00 Y:6F P:67 SP:F9 PPU: 33,117
F97C  60        RTS                             A:7F X:00 Y:6F P:67 SP:F9 PPU: 33,123
D165  C8        INY                             A:7F X:00 Y:6F P:67 SP:FB PPU: 33,141
D166  A9 7F     LDA #$7F                        A:7F X:00 Y:70 P:65 SP:FB PPU: 33,147
D168  8D 00 02  STA $0200 = 00                  A:7F X:00 Y:70 P:65 SP:FB PPU: 33,153
D16B  20 80 F9  JSR $F980                       A:7F X:00 Y:70 P:65 SP:FB PPU: 33,165
F980  38        SEC                             A:7F X:00 Y:70 P:65 SP:F9 PPU: 33,183
F981  A9 81     LDA #$81                        A:7F X:00 Y:70 P:65 SP:F9 PPU: 33,189
F983  60        RTS                             A:81 X:00 Y:70 P:E5 SP:F9 PPU: 33,195
D16E  E1 80     SBC ($80,X) @ 80 = 0200 = 7F    A:81 X:00 Y:70 P:E5 SP:FB PPU: 33,213
D170  20 84 F9  JSR $F984                       A:02 X:00 Y:70 P:65 SP:FB PPU: 33,231
F984  50 07     BVC $F98D                       A:02 X:00 Y:70 P:65 SP:F9 PPU: 33,249
F986  90 05     BCC $F98D                       A:02 X:00 Y:70 P:65 SP:F9 PPU: 33,255
F988  C9 02     CMP #$02                        A:02 X:00 Y:70 P:65 SP:F9 PPU: 33,261
F98A  D0 01     BNE $F98D                       A:02 X:00 Y:70 P:67 SP:F9 PPU: 33,267
F98C  60        RTS                             A:02 X:00 Y:70 P:67 SP:F9 PPU: 33,273
D173  60        RTS                             A:02 X:00 Y:70 P:67 SP:FB PPU: 33,291
C612  20 74 D1  JSR $D174                       A:02 X:00 Y:70 P:67 SP:FD PPU: 33,309
D174  A9 55     LDA #$55                        A:02 X:00 Y:70 P:67 SP:FB PPU: 33,327
D176  85 78     STA $78 = 00                    A:55 X:00 Y:70 P:65 SP:FB PPU: 33,333
D178  A9 FF     LDA #$FF                        A:55 X:00 Y:70 P:65 SP:FB PPU: 34,  1
D17A  85 01     STA $01 = FF                    A:FF X:00 Y:70 P:E5 SP:FB PPU: 34,  7
D17C  24 01     BIT $01 = FF                    A:FF X:00 Y:70 P:E5 SP:FB PPU: 34, 16
D17E  A0 11     LDY #$11                        A:FF X:00 Y:70 P:E5 SP:FB PPU: 34, 25
D180  A2 23     LDX #$23                        A:FF X:00 Y:11 P:65 SP:FB PPU: 34, 31
D182  A9 00     LDA #$00                        A:FF X:23 Y:11 P:65 SP:FB PPU: 34, 37
D184  A5 78     LDA $78 = 55                    A:00 X:23 Y:11 P:67 SP:FB PPU: 34, 43
D186  F0 10     BEQ $D198                       A:55 X:23 Y:11 P:65 SP:FB PPU: 34, 52
D188  30 0E     BMI $D198                       A:55 X:23 Y:11 P:65 SP:FB PPU: 34, 58
D18A  C9 55     CMP #$55                        A:55 X:23 Y:11 P:65 SP:FB PPU: 34, 64
D18C  D0 0A     BNE $D198                       A:55 X:23 Y:11 P:67 SP:FB PPU: 34, 70
D18E  C0 11     CPY #$11                        A:55 X:23 Y:11 P:67 SP:FB PPU: 34, 76
D190  D0 06     BNE $D198                       A:55 X:23 Y:11 P:67 SP:FB PPU: 34, 82
D192  E0 23     CPX #$23                        A:55 X:23 Y:11 P:67 SP:FB PPU: 34, 88
D194  50 02     BVC $D198                       A:55 X:23 Y:11 P:67 SP:FB PPU: 34, 94
D196  F0 04     BEQ $D19C                       A:55 X:23 Y:11 P:67 SP:FB PPU: 34,100
D19C  A9 46     LDA #$46                        A:55 X:23 Y:11 P:67 SP:FB PPU: 34,109
D19E  24 01     BIT $01 = FF                    A:46 X:23 Y:11 P:65 SP:FB PPU: 34,115
D1A0  85 78     STA $78 = 55                    A:46 X:23 Y:11 P:E5 SP:FB PPU: 34,124
D1A2  F0 0A     BEQ $D1AE                       A:46 X:23 Y:11 P:E5 SP:FB PPU: 34,133
D1A4  10 08     BPL $D1AE                       A:46 X:23 Y:11 P:E5 SP:FB PPU: 34,139
D1A6  50 06     BVC $D1AE                       A:46 X:23 Y:11 P:E5 SP:FB PPU: 34,145
D1A8  A5 78     LDA $78 = 46                    A:46 X:23 Y:11 P:E5 SP:FB PPU: 34,151
D1AA  C9 46     CMP #$46                        A:46 X:23 Y:11 P:65 SP:FB PPU: 34,160
D1AC  F0 04     BEQ $D1B2                       A:46 X:23 Y:11 P:67 SP:FB PPU: 34,166
D1B2  A9 55     LDA #$55                        A:46 X:23 Y:11 P:67 SP:FB PPU: 34,175
D1B4  85 78     STA $78 = 46                    A:55 X:23 Y:11 P:65 SP:FB PPU: 34,181
D1B6  24 01     BIT $01 = FF                    A:55 X:23 Y:11 P:65 SP:FB PPU: 34,190
D1B8  A9 11     LDA #$11                        A:55 X:23 Y:11 P:E5 SP:FB PPU: 34,199
D1BA  A2 23     LDX #$23                        A:11 X:23 Y:11 P:65 SP:FB PPU: 34,205
D1BC  A0 00     LDY #$00                        A:11 X:23 Y:11 P:65 SP:FB PPU: 34,211
D1BE  A4 78     LDY $78 = 55                    A:11 X:23 Y:00 P:67 SP:FB PPU: 34,217
D1C0  F0 10     BEQ $D1D2                       A:11 X:23 Y:55 P:65 SP:FB PPU: 34,226
D1C2  30 0E     BMI $D1D2                       A:11 X:23 Y:55 P:65 SP:FB PPU: 34,232
D1C4  C0 55     CPY #$55                        A:11 X:23 Y:55 P:65 SP:FB PPU: 34,238
D1C6  D0 0A     BNE $D1D2                       A:11 X:23 Y:55 P:67 SP:FB PPU: 34,244
D1C8  C9 11     CMP #$11                        A:11 X:23 Y:55 P:67 SP:FB PPU: 34,250
D1CA  D0 06     BNE $D1D2                       A:11 X:23 Y:55 P:67 SP:FB PPU: 34,256
D1CC  E0 23     CPX #$23                        A:11 X:23 Y:55 P:67 SP:FB PPU: 34,262
D1CE  50 02     BVC $D1D2                       A:11 X:23 Y:55 P:67 SP:FB PPU: 34,268
D1D0  F0 04     BEQ $D1D6                       A:11 X:23 Y:55 P:67 SP:FB PPU: 34,274
D1D6  A0 46     LDY #$46                        A:11 X:23 Y:55 P:67 SP:FB PPU: 34,283
D1D8  24 01     BIT $01 = FF                    A:11 X:23 Y:46 P:65 SP:FB PPU: 34,289
D1DA  84 78     STY $78 = 55                    A:11 X:23 Y:46 P:E5 SP:FB PPU: 34,298
D1DC  F0 0A     BEQ $D1E8                       A:11 X:23 Y:46 P:E5 SP:FB PPU: 34,307
D1DE  10 08     BPL $D1E8                       A:11 X:23 Y:46 P:E5 SP:FB PPU: 34,313
D1E0  50 06     BVC $D1E8                       A:11 X:23 Y:46 P:E5 SP:FB PPU: 34,319
D1E2  A4 78     LDY $78 = 46                    A:11 X:23 Y:46 P:E5 SP:FB PPU: 34,325
D1E4  C0 46     CPY #$46                        A:11 X:23 Y:46 P:65 SP:FB PPU: 34,334
D1E6  F0 04     BEQ $D1EC                       A:11 X:23 Y:46 P:67 SP:FB PPU: 34,340
D1EC  24 01     BIT $01 = FF                    A:11 X:23 Y:46 P:67 SP:FB PPU: 35,  8
D1EE  A9 55     LDA #$55                        A:11 X:23 Y:46 P:E5 SP:FB PPU: 35, 17
D1F0  85 78     STA $78 = 46                    A:55 X:23 Y:46 P:65 SP:FB PPU: 35, 23
D1F2  A0 11     LDY #$11                        A:55 X:23 Y:46 P:65 SP:FB PPU: 35, 32
D1F4  A9 23     LDA #$23                        A:55 X:23 Y:11 P:65 SP:FB PPU: 35, 38
D1F6  A2 00     LDX #$00                        A:23 X:23 Y:11 P:65 SP:FB PPU: 35, 44
D1F8  A6 78     LDX $78 = 55                    A:23 X:00 Y:11 P:67 SP:FB PPU: 35, 50
D1FA  F0 10     BEQ $D20C                       A:23 X:55 Y:11 P:65 SP:FB PPU: 35, 59
D1FC  30 0E     BMI $D20C                       A:23 X:55 Y:11 P:65 SP:FB PPU: 35, 65
D1FE  E0 55     CPX #$55                        A:23 X:55 Y:11 P:65 SP:FB PPU: 35, 71
D200  D0 0A     BNE $D20C                       A:23 X:55 Y:11 P:67 SP:FB PPU: 35, 77
D202  C0 11     CPY #$11                        A:23 X:55 Y:11 P:67 SP:FB PPU: 35, 83
D204  D0 06     BNE $D20C                       A:23 X:55 Y:11 P:67 SP:FB PPU: 35, 89
D206  C9 23     CMP #$23                        A:23 X:55 Y:11 P:67 SP:FB PPU: 35, 95
D208  50 02     BVC $D20C                       A:23 X:55 Y:11 P:67 SP:FB PPU: 35,101
D20A  F0 04     BEQ $D210                       A:23 X:55 Y:11 P:67 SP:FB PPU: 35,107
D210  A2 46     LDX #$46                        A:23 X:55 Y:11 P:67 SP:FB PPU: 35,116
D212  24 01     BIT $01 = FF                    A:23 X:46 Y:11 P:65 SP:FB PPU: 35,122
D214  86 78     STX $78 = 55                    A:23 X:46 Y:11 P:E5 SP:FB PPU: 35,131
D216  F0 0A     BEQ $D222                       A:23 X:46 Y:11 P:E5 SP:FB PPU: 35,140
D218  10 08     BPL $D222                       A:23 X:46 Y:11 P:E5 SP:FB PPU: 35,146
D21A  50 06     BVC $D222                       A:23 X:46 Y:11 P:E5 SP:FB PPU: 35,152
D21C  A6 78     LDX $78 = 46                    A:23 X:46 Y:11 P:E5 SP:FB PPU: 35,158
D21E  E0 46     CPX #$46                        A:23 X:46 Y:11 P:65 SP:FB PPU: 35,167
D220  F0 04     BEQ $D226                       A:23 X:46 Y:11 P:67 SP:FB PPU: 35,173
D226  A9 C0     LDA #$C0                        A:23 X:46 Y:11 P:67 SP:FB PPU: 35,182
D228  85 78     STA $78 = 46                    A:C0 X:46 Y:11 P:E5 SP:FB PPU: 35,188
D22A  A2 33     LDX #$33                        A:C0 X:46 Y:11 P:E5 SP:FB PPU: 35,197
D22C  A0 88     LDY #$88                        A:C0 X:33 Y:11 P:65 SP:FB PPU: 35,203
D22E  A9 05     LDA #$05                        A:C0 X:33 Y:88 P:E5 SP:FB PPU: 35,209
D230  24 78     BIT $78 = C0                    A:05 X:33 Y:88 P:65 SP:FB PPU: 35,215
D232  10 10     BPL $D244                       A:05 X:33 Y:88 P:E7 SP:FB PPU: 35,224
D234  50 0E     BVC $D244                       A:05 X:33 Y:88 P:E7 SP:FB PPU: 35,230
D236  D0 0C     BNE $D244                       A:05 X:33 Y:88 P:E7 SP:FB PPU: 35,236
D238  C9 05     CMP #$05                        A:05 X:33 Y:88 P:E7 SP:FB PPU: 35,242
D23A  D0 08     BNE $D244                       A:05 X:33 Y:88 P:67 SP:FB PPU: 35,248
D23C  E0 33     CPX #$33                        A:05 X:33 Y:88 P:67 SP:FB PPU: 35,254
D23E  D0 04     BNE $D244                       A:05 X:33 Y:88 P:67 SP:FB PPU: 35,260
D240  C0 88     CPY #$88                        A:05 X:33 Y:88 P:67 SP:FB PPU: 35,266
D242  F0 04     BEQ $D248                       A:05 X:33 Y:88 P:67 SP:FB PPU: 35,272
D248  A9 03     LDA #$03                        A:05 X:33 Y:88 P:67 SP:FB PPU: 35,281
D24A  85 78     STA $78 = C0                    A:03 X:33 Y:88 P:65 SP:FB PPU: 35,287
D24C  A9 01     LDA #$01                        A:03 X:33 Y:88 P:65 SP:FB PPU: 35,296
D24E  24 78     BIT $78 = 03                    A:01 X:33 Y:88 P:65 SP:FB PPU: 35,302
D250  30 08     BMI $D25A                       A:01 X:33 Y:88 P:25 SP:FB PPU: 35,311
D252  70 06     BVS $D25A                       A:01 X:33 Y:88 P:25 SP:FB PPU: 35,317
D254  F0 04     BEQ $D25A                       A:01 X:33 Y:88 P:25 SP:FB PPU: 35,323
D256  C9 01     CMP #$01                        A:01 X:33 Y:88 P:25 SP:FB PPU: 35,329
D258  F0 04     BEQ $D25E                       A:01 X:33 Y:88 P:27 SP:FB PPU: 35,335
D25E  A0 7E     LDY #$7E                        A:01 X:33 Y:88 P:27 SP:FB PPU: 36,  3
D260  A9 AA     LDA #$AA                        A:01 X:33 Y:7E P:25 SP:FB PPU: 36,  9
D262  85 78     STA $78 = 03                    A:AA X:33 Y:7E P:A5 SP:FB PPU: 36, 15
D264  20 B6 F7  JSR $F7B6                       A:AA X:33 Y:7E P:A5 SP:FB PPU: 36, 24
F7B6  18        CLC                             A:AA X:33 Y:7E P:A5 SP:F9 PPU: 36, 42
F7B7  A9 FF     LDA #$FF                        A:AA X:33 Y:7E P:A4 SP:F9 PPU: 36, 48
F7B9  85 01     STA $01 = FF                    A:FF X:33 Y:7E P:A4 SP:F9 PPU: 36, 54
F7BB  24 01     BIT $01 = FF                    A:FF X:33 Y:7E P:A4 SP:F9 PPU: 36, 63
F7BD  A9 55     LDA #$55                        A:FF X:33 Y:7E P:E4 SP:F9 PPU: 36, 72
F7BF  60        RTS                             A:55 X:33 Y:7E P:64 SP:F9 PPU: 36, 78
D267  05 78     ORA $78 = AA                    A:55 X:33 Y:7E P:64 SP:FB PPU: 36, 96
D269  20 C0 F7  JSR $F7C0                       A:FF X:33 Y:7E P:E4 SP:FB PPU: 36,105
F7C0  B0 09     BCS $F7CB                       A:FF X:33 Y:7E P:E4 SP:F9 PPU: 36,123
F7C2  10 07     BPL $F7CB                       A:FF X:33 Y:7E P:E4 SP:F9 PPU: 36,129
F7C4  C9 FF     CMP #$FF                        A:FF X:33 Y:7E P:E4 SP:F9 PPU: 36,135
F7C6  D0 03     BNE $F7CB                       A:FF X:33 Y:7E P:67 SP:F9 PPU: 36,141
F7C8  50 01     BVC $F7CB                       A:FF X:33 Y:7E P:67 SP:F9 PPU: 36,147
F7CA  60        RTS                             A:FF X:33 Y:7E P:67 SP:F9 PPU: 36,153
D26C  C8        INY                             A:FF X:33 Y:7E P:67 SP:FB PPU: 36,171
D26D  A9 00     LDA #$00                        A:FF X:33 Y:7F P:65 SP:FB PPU: 36,177
D26F  85 78     STA $78 = AA                    A:00 X:33 Y:7F P:67 SP:FB PPU: 36,183
D271  20 CE F7  JSR $F7CE                       A:00 X:33 Y:7F P:67 SP:FB PPU: 36,192
F7CE  38        SEC                             A:00 X:33 Y:7F P:67 SP:F9 PPU: 36,210
F7CF  B8        CLV                             A:00 X:33 Y:7F P:67 SP:F9 PPU: 36,216
F7D0  A9 00     LDA #$00                        A:00 X:33 Y:7F P:27 SP:F9 PPU: 36,222
F7D2  60        RTS                             A:00 X:33 Y:7F P:27 SP:F9 PPU: 36,228
D274  05 78     ORA $78 = 00                    A:00 X:33 Y:7F P:27 SP:FB PPU: 36,246
D276  20 D3 F7  JSR $F7D3                       A:00 X:33 Y:7F P:27 SP:FB PPU: 36,255
F7D3  D0 07     BNE $F7DC                       A:00 X:33 Y:7F P:27 SP:F9 PPU: 36,273
F7D5  70 05     BVS $F7DC                       A:00 X:33 Y:7F P:27 SP:F9 PPU: 36,279
F7D7  90 03     BCC $F7DC                       A:00 X:33 Y:7F P:27 SP:F9 PPU: 36,285
F7D9  30 01     BMI $F7DC                       A:00 X:33 Y:7F P:27 SP:F9 PPU: 36,291
F7DB  60        RTS                             A:00 X:33 Y:7F P:27 SP:F9 PPU: 36,297
D279  C8        INY                             A:00 X:33 Y:7F P:27 SP:FB PPU: 36,315
D27A  A9 AA     LDA #$AA                        A:00 X:33 Y:80 P:A5 SP:FB PPU: 36,321
D27C  85 78     STA $78 = 00                    A:AA X:33 Y:80 P:A5 SP:FB PPU: 36,327
D27E  20 DF F7  JSR $F7DF                       A:AA X:33 Y:80 P:A5 SP:FB PPU: 36,336
F7DF  18        CLC                             A:AA X:33 Y:80 P:A5 SP:F9 PPU: 37, 13
F7E0  24 01     BIT $01 = FF                    A:AA X:33 Y:80 P:A4 SP:F9 PPU: 37, 19
F7E2  A9 55     LDA #$55                        A:AA X:33 Y:80 P:E4 SP:F9 PPU: 37, 28
F7E4  60        RTS                             A:55 X:33 Y:80 P:64 SP:F9 PPU: 37, 34
D281  25 78     AND $78 = AA                    A:55 X:33 Y:80 P:64 SP:FB PPU: 37, 52
D283  20 E5 F7  JSR $F7E5                       A:00 X:33 Y:80 P:66 SP:FB PPU: 37, 61
F7E5  D0 07     BNE $F7EE                       A:00 X:33 Y:80 P:66 SP:F9 PPU: 37, 79
F7E7  50 05     BVC $F7EE                       A:00 X:33 Y:80 P:66 SP:F9 PPU: 37, 85
F7E9  B0 03     BCS $F7EE                       A:00 X:33 Y:80 P:66 SP:F9 PPU: 37, 91
F7EB  30 01     BMI $F7EE                       A:00 X:33 Y:80 P:66 SP:F9 PPU: 37, 97
F7ED  60        RTS                             A:00 X:33 Y:80 P:66 SP:F9 PPU: 37,103
D286  C8        INY                             A:00 X:33 Y:80 P:66 SP:FB PPU: 37,121
D287  A9 EF     LDA #$EF                        A:00 X:33 Y:81 P:E4 SP:FB PPU: 37,127
D289  85 78     STA $78 = AA                    A:EF X:33 Y:81 P:E4 SP:FB PPU: 37,133
D28B  20 F1 F7  JSR $F7F1                       A:EF X:33 Y:81 P:E4 SP:FB PPU: 37,142
F7F1  38        SEC                             A:EF X:33 Y:81 P:E4 SP:F9 PPU: 37,160
F7F2  B8        CLV                             A:EF X:33 Y:81 P:E5 SP:F9 PPU: 37,166
F7F3  A9 F8     LDA #$F8                        A:EF X:33 Y:81 P:A5 SP:F9 PPU: 37,172
F7F5  60        RTS                             A:F8 X:33 Y:81 P:A5 SP:F9 PPU: 37,178
D28E  25 78     AND $78 = EF                    A:F8 X:33 Y:81 P:A5 SP:FB PPU: 37,196
D290  20 F6 F7  JSR $F7F6                       A:E8 X:33 Y:81 P:A5 SP:FB PPU: 37,205
F7F6  90 09     BCC $F801                       A:E8 X:33 Y:81 P:A5 SP:F9 PPU: 37,223
F7F8  10 07     BPL $F801                       A:E8 X:33 Y:81 P:A5 SP:F9 PPU: 37,229
F7FA  C9 E8     CMP #$E8                        A:E8 X:33 Y:81 P:A5 SP:F9 PPU: 37,235
F7FC  D0 03     BNE $F801                       A:E8 X:33 Y:81 P:27 SP:F9 PPU: 37,241
F7FE  70 01     BVS $F801                       A:E8 X:33 Y:81 P:27 SP:F9 PPU: 37,247
F800  60        RTS                             A:E8 X:33 Y:81 P:27 SP:F9 PPU: 37,253
D293  C8        INY                             A:E8 X:33 Y:81 P:27 SP:FB PPU: 37,271
D294  A9 AA     LDA #$AA                        A:E8 X:33 Y:82 P:A5 SP:FB PPU: 37,277
D296  85 78     STA $78 = EF                    A:AA X:33 Y:82 P:A5 SP:FB PPU: 37,283
D298  20 04 F8  JSR $F804                       A:AA X:33 Y:82 P:A5 SP:FB PPU: 37,292
F804  18        CLC                             A:AA X:33 Y:82 P:A5 SP:F9 PPU: 37,310
F805  24 01     BIT $01 = FF                    A:AA X:33 Y:82 P:A4 SP:F9 PPU: 37,316
F807  A9 5F     LDA #$5F                        A:AA X:33 Y:82 P:E4 SP:F9 PPU: 37,325
F809  60        RTS                             A:5F X:33 Y:82 P:64 SP:F9 PPU: 37,331
D29B  45 78     EOR $78 = AA                    A:5F X:33 Y:82 P:64 SP:FB PPU: 38,  8
D29D  20 0A F8  JSR $F80A                       A:F5 X:33 Y:82 P:E4 SP:FB PPU: 38, 17
F80A  B0 09     BCS $F815                       A:F5 X:33 Y:82 P:E4 SP:F9 PPU: 38, 35
F80C  10 07     BPL $F815                       A:F5 X:33 Y:82 P:E4 SP:F9 PPU: 38, 41
F80E  C9 F5     CMP #$F5                        A:F5 X:33 Y:82 P:E4 SP:F9 PPU: 38, 47
F810  D0 03     BNE $F815                       A:F5 X:33 Y:82 P:67 SP:F9 PPU: 38, 53
F812  50 01     BVC $F815                       A:F5 X:33 Y:82 P:67 SP:F9 PPU: 38, 59
F814  60        RTS                             A:F5 X:33 Y:82 P:67 SP:F9 PPU: 38, 65
D2A0  C8        INY                             A:F5 X:33 Y:82 P:67 SP:FB PPU: 38, 83
D2A1  A9 70     LDA #$70                        A:F5 X:33 Y:83 P:E5 SP:FB PPU: 38, 89
D2A3  85 78     STA $78 = AA                    A:70 X:33 Y:83 P:65 SP:FB PPU: 38, 95
D2A5  20 18 F8  JSR $F818                       A:70 X:33 Y:83 P:65 SP:FB PPU: 38,104
F818  38        SEC                             A:70 X:33 Y:83 P:65 SP:F9 PPU: 38,122
F819  B8        CLV                             A:70 X:33 Y:83 P:65 SP:F9 PPU: 38,128
F81A  A9 70     LDA #$70                        A:70 X:33 Y:83 P:25 SP:F9 PPU: 38,134
F81C  60        RTS                             A:70 X:33 Y:83 P:25 SP:F9 PPU: 38,140
D2A8  45 78     EOR $78 = 70                    A:70 X:33 Y:83 P:25 SP:FB PPU: 38,158
D2AA  20 1D F8  JSR $F81D                       A:00 X:33 Y:83 P:27 SP:FB PPU: 38,167
F81D  D0 07     BNE $F826                       A:00 X:33 Y:83 P:27 SP:F9 PPU: 38,185
F81F  70 05     BVS $F826                       A:00 X:33 Y:83 P:27 SP:F9 PPU: 38,191
F821  90 03     BCC $F826                       A:00 X:33 Y:83 P:27 SP:F9 PPU: 38,197
F823  30 01     BMI $F826                       A:00 X:33 Y:83 P:27 SP:F9 PPU: 38,203
F825  60        RTS                             A:00 X:33 Y:83 P:27 SP:F9 PPU: 38,209
D2AD  C8        INY                             A:00 X:33 Y:83 P:27 SP:FB PPU: 38,227
D2AE  A9 69     LDA #$69                        A:00 X:33 Y:84 P:A5 SP:FB PPU: 38,233
D2B0  85 78     STA $78 = 70                    A:69 X:33 Y:84 P:25 SP:FB PPU: 38,239
D2B2  20 29 F8  JSR $F829                       A:69 X:33 Y:84 P:25 SP:FB PPU: 38,248
F829  18        CLC                             A:69 X:33 Y:84 P:25 SP:F9 PPU: 38,266
F82A  24 01     BIT $01 = FF                    A:69 X:33 Y:84 P:24 SP:F9 PPU: 38,272
F82C  A9 00     LDA #$00                        A:69 X:33 Y:84 P:E4 SP:F9 PPU: 38,281
F82E  60        RTS                             A:00 X:33 Y:84 P:66 SP:F9 PPU: 38,287
D2B5  65 78     ADC $78 = 69                    A:00 X:33 Y:84 P:66 SP:FB PPU: 38,305
D2B7  20 2F F8  JSR $F82F                       A:69 X:33 Y:84 P:24 SP:FB PPU: 38,314
F82F  30 09     BMI $F83A                       A:69 X:33 Y:84 P:24 SP:F9 PPU: 38,332
F831  B0 07     BCS $F83A                       A:69 X:33 Y:84 P:24 SP:F9 PPU: 38,338
F833  C9 69     CMP #$69                        A:69 X:33 Y:84 P:24 SP:F9 PPU: 39,  3
F835  D0 03     BNE $F83A                       A:69 X:33 Y:84 P:27 SP:F9 PPU: 39,  9
F837  70 01     BVS $F83A                       A:69 X:33 Y:84 P:27 SP:F9 PPU: 39, 15
F839  60        RTS                             A:69 X:33 Y:84 P:27 SP:F9 PPU: 39, 21
D2BA  C8        INY                             A:69 X:33 Y:84 P:27 SP:FB PPU: 39, 39
D2BB  20 3D F8  JSR $F83D                       A:69 X:33 Y:85 P:A5 SP:FB PPU: 39, 45
F83D  38        SEC                             A:69 X:33 Y:85 P:A5 SP:F9 PPU: 39, 63
F83E  24 01     BIT $01 = FF                    A:69 X:33 Y:85 P:A5 SP:F9 PPU: 39, 69
F840  A9 00     LDA #$00                        A:69 X:33 Y:85 P:E5 SP:F9 PPU: 39, 78
F842  60        RTS                             A:00 X:33 Y:85 P:67 SP:F9 PPU: 39, 84
D2BE  65 78     ADC $78 = 69                    A:00 X:33 Y:85 P:67 SP:FB PPU: 39,102
D2C0  20 43 F8  JSR $F843                       A:6A X:33 Y:85 P:24 SP:FB PPU: 39,111
F843  30 09     BMI $F84E                       A:6A X:33 Y:85 P:24 SP:F9 PPU: 39,129
F845  B0 07     BCS $F84E                       A:6A X:33 Y:85 P:24 SP:F9 PPU: 39,135
F847  C9 6A     CMP #$6A                        A:6A X:33 Y:85 P:24 SP:F9 PPU: 39,141
F849  D0 03     BNE $F84E                       A:6A X:33 Y:85 P:27 SP:F9 PPU: 39,147
F84B  70 01     BVS $F84E                       A:6A X:33 Y:85 P:27 SP:F9 PPU: 39,153
F84D  60        RTS                             A:6A X:33 Y:85 P:27 SP:F9 PPU: 39,159
D2C3  C8        INY                             A:6A X:33 Y:85 P:27 SP:FB PPU: 39,177
D2C4  A9 7F     LDA #$7F                        A:6A X:33 Y:86 P:A5 SP:FB PPU: 39,183
D2C6  85 78     STA $78 = 69                    A:7F X:33 Y:86 P:25 SP:FB PPU: 39,189
D2C8  20 51 F8  JSR $F851                       A:7F X:33 Y:86 P:25 SP:FB PPU: 39,198
F851  38        SEC                             A:7F X:33 Y:86 P:25 SP:F9 PPU: 39,216
F852  B8        CLV                             A:7F X:33 Y:86 P:25 SP:F9 PPU: 39,222
F853  A9 7F     LDA #$7F                        A:7F X:33 Y:86 P:25 SP:F9 PPU: 39,228
F855  60        RTS                             A:7F X:33 Y:86 P:25 SP:F9 PPU: 39,234
D2CB  65 78     ADC $78 = 7F                    A:7F X:33 Y:86 P:25 SP:FB PPU: 39,252
D2CD  20 56 F8  JSR $F856                       A:FF X:33 Y:86 P:E4 SP:FB PPU: 39,261
F856  10 09     BPL $F861                       A:FF X:33 Y:86 P:E4 SP:F9 PPU: 39,279
F858  B0 07     BCS $F861                       A:FF X:33 Y:86 P:E4 SP:F9 PPU: 39,285
F85A  C9 FF     CMP #$FF                        A:FF X:33 Y:86 P:E4 SP:F9 PPU: 39,291
F85C  D0 03     BNE $F861                       A:FF X:33 Y:86 P:67 SP:F9 PPU: 39,297
F85E  50 01     BVC $F861                       A:FF X:33 Y:86 P:67 SP:F9 PPU: 39,303
F860  60        RTS                             A:FF X:33 Y:86 P:67 SP:F9 PPU: 39,309
D2D0  C8        INY                             A:FF X:33 Y:86 P:67 SP:FB PPU: 39,327
D2D1  A9 80     LDA #$80                        A:FF X:33 Y:87 P:E5 SP:FB PPU: 39,333
D2D3  85 78     STA $78 = 7F                    A:80 X:33 Y:87 P:E5 SP:FB PPU: 39,339
D2D5  20 64 F8  JSR $F864                       A:80 X:33 Y:87 P:E5 SP:FB PPU: 40,  7
F864  18        CLC                             A:80 X:33 Y:87 P:E5 SP:F9 PPU: 40, 25
F865  24 01     BIT $01 = FF                    A:80 X:33 Y:87 P:E4 SP:F9 PPU: 40, 31
F867  A9 7F     LDA #$7F                        A:80 X:33 Y:87 P:E4 SP:F9 PPU: 40, 40
F869  60        RTS                             A:7F X:33 Y:87 P:64 SP:F9 PPU: 40, 46
D2D8  65 78     ADC $78 = 80                    A:7F X:33 Y:87 P:64 SP:FB PPU: 40, 64
D2DA  20 6A F8  JSR $F86A                       A:FF X:33 Y:87 P:A4 SP:FB PPU: 40, 73
F86A  10 09     BPL $F875                       A:FF X:33 Y:87 P:A4 SP:F9 PPU: 40, 91
F86C  B0 07     BCS $F875                       A:FF X:33 Y:87 P:A4 SP:F9 PPU: 40, 97
F86E  C9 FF     CMP #$FF                        A:FF X:33 Y:87 P:A4 SP:F9 PPU: 40,103
F870  D0 03     BNE $F875                       A:FF X:33 Y:87 P:27 SP:F9 PPU: 40,109
F872  70 01     BVS $F875                       A:FF X:33 Y:87 P:27 SP:F9 PPU: 40,115
F874  60        RTS                             A:FF X:33 Y:87 P:27 SP:F9 PPU: 40,121
D2DD  C8        INY                             A:FF X:33 Y:87 P:27 SP:FB PPU: 40,139
D2DE  20 78 F8  JSR $F878                       A:FF X:33 Y:88 P:A5 SP:FB PPU: 40,145
F878  38        SEC                             A:FF X:33 Y:88 P:A5 SP:F9 PPU: 40,163
F879  B8        CLV                             A:FF X:33 Y:88 P:A5 SP:F9 PPU: 40,169
F87A  A9 7F     LDA #$7F                        A:FF X:33 Y:88 P:A5 SP:F9 PPU: 40,175
F87C  60        RTS                             A:7F X:33 Y:88 P:25 SP:F9 PPU: 40,181
D2E1  65 78     ADC $78 = 80                    A:7F X:33 Y:88 P:25 SP:FB PPU: 40,199
D2E3  20 7D F8  JSR $F87D                       A:00 X:33 Y:88 P:27 SP:FB PPU: 40,208
F87D  D0 07     BNE $F886                       A:00 X:33 Y:88 P:27 SP:F9 PPU: 40,226
F87F  30 05     BMI $F886                       A:00 X:33 Y:88 P:27 SP:F9 PPU: 40,232
F881  70 03     BVS $F886                       A:00 X:33 Y:88 P:27 SP:F9 PPU: 40,238
F883  90 01     BCC $F886                       A:00 X:33 Y:88 P:27 SP:F9 PPU: 40,244
F885  60        RTS                             A:00 X:33 Y:88 P:27 SP:F9 PPU: 40,250
D2E6  C8        INY                             A:00 X:33 Y:88 P:27 SP:FB PPU: 40,268
D2E7  A9 40     LDA #$40                        A:00 X:33 Y:89 P:A5 SP:FB PPU: 40,274
D2E9  85 78     STA $78 = 80                    A:40 X:33 Y:89 P:25 SP:FB PPU: 40,280
D2EB  20 89 F8  JSR $F889                       A:40 X:33 Y:89 P:25 SP:FB PPU: 40,289
F889  24 01     BIT $01 = FF                    A:40 X:33 Y:89 P:25 SP:F9 PPU: 40,307
F88B  A9 40     LDA #$40                        A:40 X:33 Y:89 P:E5 SP:F9 PPU: 40,316
F88D  60        RTS                             A:40 X:33 Y:89 P:65 SP:F9 PPU: 40,322
D2EE  C5 78     CMP $78 = 40                    A:40 X:33 Y:89 P:65 SP:FB PPU: 40,340
D2F0  20 8E F8  JSR $F88E                       A:40 X:33 Y:89 P:67 SP:FB PPU: 41,  8
F88E  30 07     BMI $F897                       A:40 X:33 Y:89 P:67 SP:F9 PPU: 41, 26
F890  90 05     BCC $F897                       A:40 X:33 Y:89 P:67 SP:F9 PPU: 41, 32
F892  D0 03     BNE $F897                       A:40 X:33 Y:89 P:67 SP:F9 PPU: 41, 38
F894  50 01     BVC $F897                       A:40 X:33 Y:89 P:67 SP:F9 PPU: 41, 44
F896  60        RTS                             A:40 X:33 Y:89 P:67 SP:F9 PPU: 41, 50
D2F3  C8        INY                             A:40 X:33 Y:89 P:67 SP:FB PPU: 41, 68
D2F4  48        PHA                             A:40 X:33 Y:8A P:E5 SP:FB PPU: 41, 74
D2F5  A9 3F     LDA #$3F                        A:40 X:33 Y:8A P:E5 SP:FA PPU: 41, 83
D2F7  85 78     STA $78 = 40                    A:3F X:33 Y:8A P:65 SP:FA PPU: 41, 89
D2F9  68        PLA                             A:3F X:33 Y:8A P:65 SP:FA PPU: 41, 98
D2FA  20 9A F8  JSR $F89A                       A:40 X:33 Y:8A P:65 SP:FB PPU: 41,110
F89A  B8        CLV                             A:40 X:33 Y:8A P:65 SP:F9 PPU: 41,128
F89B  60        RTS                             A:40 X:33 Y:8A P:25 SP:F9 PPU: 41,134
D2FD  C5 78     CMP $78 = 3F                    A:40 X:33 Y:8A P:25 SP:FB PPU: 41,152
D2FF  20 9C F8  JSR $F89C                       A:40 X:33 Y:8A P:25 SP:FB PPU: 41,161
F89C  F0 07     BEQ $F8A5                       A:40 X:33 Y:8A P:25 SP:F9 PPU: 41,179
F89E  30 05     BMI $F8A5                       A:40 X:33 Y:8A P:25 SP:F9 PPU: 41,185
F8A0  90 03     BCC $F8A5                       A:40 X:33 Y:8A P:25 SP:F9 PPU: 41,191
F8A2  70 01     BVS $F8A5                       A:40 X:33 Y:8A P:25 SP:F9 PPU: 41,197
F8A4  60        RTS                             A:40 X:33 Y:8A P:25 SP:F9 PPU: 41,203
D302  C8        INY                             A:40 X:33 Y:8A P:25 SP:FB PPU: 41,221
D303  48        PHA                             A:40 X:33 Y:8B P:A5 SP:FB PPU: 41,227
D304  A9 41     LDA #$41                        A:40 X:33 Y:8B P:A5 SP:FA PPU: 41,236
D306  85 78     STA $78 = 3F                    A:41 X:33 Y:8B P:25 SP:FA PPU: 41,242
D308  68        PLA                             A:41 X:33 Y:8B P:25 SP:FA PPU: 41,251
D309  C5 78     CMP $78 = 41                    A:40 X:33 Y:8B P:25 SP:FB PPU: 41,263
D30B  20 A8 F8  JSR $F8A8                       A:40 X:33 Y:8B P:A4 SP:FB PPU: 41,272
F8A8  F0 05     BEQ $F8AF                       A:40 X:33 Y:8B P:A4 SP:F9 PPU: 41,290
F8AA  10 03     BPL $F8AF                       A:40 X:33 Y:8B P:A4 SP:F9 PPU: 41,296
F8AC  10 01     BPL $F8AF                       A:40 X:33 Y:8B P:A4 SP:F9 PPU: 41,302
F8AE  60        RTS                             A:40 X:33 Y:8B P:A4 SP:F9 PPU: 41,308
D30E  C8        INY                             A:40 X:33 Y:8B P:A4 SP:FB PPU: 41,326
D30F  48        PHA                             A:40 X:33 Y:8C P:A4 SP:FB PPU: 41,332
D310  A9 00     LDA #$00                        A:40 X:33 Y:8C P:A4 SP:FA PPU: 42,  0
D312  85 78     STA $78 = 41                    A:00 X:33 Y:8C P:26 SP:FA PPU: 42,  6
D314  68        PLA                             A:00 X:33 Y:8C P:26 SP:FA PPU: 42, 15
D315  20 B2 F8  JSR $F8B2                       A:40 X:33 Y:8C P:24 SP:FB PPU: 42, 27
F8B2  A9 80     LDA #$80                        A:40 X:33 Y:8C P:24 SP:F9 PPU: 42, 45
F8B4  60        RTS                             A:80 X:33 Y:8C P:A4 SP:F9 PPU: 42, 51
D318  C5 78     CMP $78 = 00                    A:80 X:33 Y:8C P:A4 SP:FB PPU: 42, 69
D31A  20 B5 F8  JSR $F8B5                       A:80 X:33 Y:8C P:A5 SP:FB PPU: 42, 78
F8B5  F0 05     BEQ $F8BC                       A:80 X:33 Y:8C P:A5 SP:F9 PPU: 42, 96
F8B7  10 03     BPL $F8BC                       A:80 X:33 Y:8C P:A5 SP:F9 PPU: 42,102
F8B9  90 01     BCC $F8BC                       A:80 X:33 Y:8C P:A5 SP:F9 PPU: 42,108
F8BB  60        RTS                             A:80 X:33 Y:8C P:A5 SP:F9 PPU: 42,114
D31D  C8        INY                             A:80 X:33 Y:8C P:A5 SP:FB PPU: 42,132
D31E  48        PHA                             A:80 X:33 Y:8D P:A5 SP:FB PPU: 42,138
D31F  A9 80     LDA #$80                        A:80 X:33 Y:8D P:A5 SP:FA PPU: 42,147
D321  85 78     STA $78 = 00                    A:80 X:33 Y:8D P:A5 SP:FA PPU: 42,153
D323  68        PLA                             A:80 X:33 Y:8D P:A5 SP:FA PPU: 42,162
D324  C5 78     CMP $78 = 80                    A:80 X:33 Y:8D P:A5 SP:FB PPU: 42,174
D326  20 BF F8  JSR $F8BF                       A:80 X:33 Y:8D P:27 SP:FB PPU: 42,183
F8BF  D0 05     BNE $F8C6                       A:80 X:33 Y:8D P:27 SP:F9 PPU: 42,201
F8C1  30 03     BMI $F8C6                       A:80 X:33 Y:8D P:27 SP:F9 PPU: 42,207
F8C3  90 01     BCC $F8C6                       A:80 X:33 Y:8D P:27 SP:F9 PPU: 42,213
F8C5  60        RTS                             A:80 X:33 Y:8D P:27 SP:F9 PPU: 42,219
D329  C8        INY                             A:80 X:33 Y:8D P:27 SP:FB PPU: 42,237
D32A  48        PHA                             A:80 X:33 Y:8E P:A5 SP:FB PPU: 42,243
D32B  A9 81     LDA #$81                        A:80 X:33 Y:8E P:A5 SP:FA PPU: 42,252
D32D  85 78     STA $78 = 80                    A:81 X:33 Y:8E P:A5 SP:FA PPU: 42,258
D32F  68        PLA                             A:81 X:33 Y:8E P:A5 SP:FA PPU: 42,267
D330  C5 78     CMP $78 = 81                    A:80 X:33 Y:8E P:A5 SP:FB PPU: 42,279
D332  20 C9 F8  JSR $F8C9                       A:80 X:33 Y:8E P:A4 SP:FB PPU: 42,288
F8C9  B0 05     BCS $F8D0                       A:80 X:33 Y:8E P:A4 SP:F9 PPU: 42,306
F8CB  F0 03     BEQ $F8D0                       A:80 X:33 Y:8E P:A4 SP:F9 PPU: 42,312
F8CD  10 01     BPL $F8D0                       A:80 X:33 Y:8E P:A4 SP:F9 PPU: 42,318
F8CF  60        RTS                             A:80 X:33 Y:8E P:A4 SP:F9 PPU: 42,324
D335  C8        INY                             A:80 X:33 Y:8E P:A4 SP:FB PPU: 43,  1
D336  48        PHA                             A:80 X:33 Y:8F P:A4 SP:FB PPU: 43,  7
D337  A9 7F     LDA #$7F                        A:80 X:33 Y:8F P:A4 SP:FA PPU: 43, 16
D339  85 78     STA $78 = 81                    A:7F X:33 Y:8F P:24 SP:FA PPU: 43, 22
D33B  68        PLA                             A:7F X:33 Y:8F P:24 SP:FA PPU: 43, 31
D33C  C5 78     CMP $78 = 7F                    A:80 X:33 Y:8F P:A4 SP:FB PPU: 43, 43
D33E  20 D3 F8  JSR $F8D3                       A:80 X:33 Y:8F P:25 SP:FB PPU: 43, 52
F8D3  90 05     BCC $F8DA                       A:80 X:33 Y:8F P:25 SP:F9 PPU: 43, 70
F8D5  F0 03     BEQ $F8DA                       A:80 X:33 Y:8F P:25 SP:F9 PPU: 43, 76
F8D7  30 01     BMI $F8DA                       A:80 X:33 Y:8F P:25 SP:F9 PPU: 43, 82
F8D9  60        RTS                             A:80 X:33 Y:8F P:25 SP:F9 PPU: 43, 88
D341  C8        INY                             A:80 X:33 Y:8F P:25 SP:FB PPU: 43,106
D342  A9 40     LDA #$40                        A:80 X:33 Y:90 P:A5 SP:FB PPU: 43,112
D344  85 78     STA $78 = 7F                    A:40 X:33 Y:90 P:25 SP:FB PPU: 43,118
D346  20 31 F9  JSR $F931                       A:40 X:33 Y:90 P:25 SP:FB PPU: 43,127
F931  24 01     BIT $01 = FF                    A:40 X:33 Y:90 P:25 SP:F9 PPU: 43,145
F933  A9 40     LDA #$40                        A:40 X:33 Y:90 P:E5 SP:F9 PPU: 43,154
F935  38        SEC                             A:40 X:33 Y:90 P:65 SP:F9 PPU: 43,160
F936  60        RTS                             A:40 X:33 Y:90 P:65 SP:F9 PPU: 43,166
D349  E5 78     SBC $78 = 40                    A:40 X:33 Y:90 P:65 SP:FB PPU: 43,184
D34B  20 37 F9  JSR $F937                       A:00 X:33 Y:90 P:27 SP:FB PPU: 43,193
F937  30 0B     BMI $F944                       A:00 X:33 Y:90 P:27 SP:F9 PPU: 43,211
F939  90 09     BCC $F944                       A:00 X:33 Y:90 P:27 SP:F9 PPU: 43,217
F93B  D0 07     BNE $F944                       A:00 X:33 Y:90 P:27 SP:F9 PPU: 43,223
F93D  70 05     BVS $F944                       A:00 X:33 Y:90 P:27 SP:F9 PPU: 43,229
F93F  C9 00     CMP #$00                        A:00 X:33 Y:90 P:27 SP:F9 PPU: 43,235
F941  D0 01     BNE $F944                       A:00 X:33 Y:90 P:27 SP:F9 PPU: 43,241
F943  60        RTS                             A:00 X:33 Y:90 P:27 SP:F9 PPU: 43,247
D34E  C8        INY                             A:00 X:33 Y:90 P:27 SP:FB PPU: 43,265
D34F  A9 3F     LDA #$3F                        A:00 X:33 Y:91 P:A5 SP:FB PPU: 43,271
D351  85 78     STA $78 = 40                    A:3F X:33 Y:91 P:25 SP:FB PPU: 43,277
D353  20 47 F9  JSR $F947                       A:3F X:33 Y:91 P:25 SP:FB PPU: 43,286
F947  B8        CLV                             A:3F X:33 Y:91 P:25 SP:F9 PPU: 43,304
F948  38        SEC                             A:3F X:33 Y:91 P:25 SP:F9 PPU: 43,310
F949  A9 40     LDA #$40                        A:3F X:33 Y:91 P:25 SP:F9 PPU: 43,316
F94B  60        RTS                             A:40 X:33 Y:91 P:25 SP:F9 PPU: 43,322
D356  E5 78     SBC $78 = 3F                    A:40 X:33 Y:91 P:25 SP:FB PPU: 43,340
D358  20 4C F9  JSR $F94C                       A:01 X:33 Y:91 P:25 SP:FB PPU: 44,  8
F94C  F0 0B     BEQ $F959                       A:01 X:33 Y:91 P:25 SP:F9 PPU: 44, 26
F94E  30 09     BMI $F959                       A:01 X:33 Y:91 P:25 SP:F9 PPU: 44, 32
F950  90 07     BCC $F959                       A:01 X:33 Y:91 P:25 SP:F9 PPU: 44, 38
F952  70 05     BVS $F959                       A:01 X:33 Y:91 P:25 SP:F9 PPU: 44, 44
F954  C9 01     CMP #$01                        A:01 X:33 Y:91 P:25 SP:F9 PPU: 44, 50
F956  D0 01     BNE $F959                       A:01 X:33 Y:91 P:27 SP:F9 PPU: 44, 56
F958  60        RTS                             A:01 X:33 Y:91 P:27 SP:F9 PPU: 44, 62
D35B  C8        INY                             A:01 X:33 Y:91 P:27 SP:FB PPU: 44, 80
D35C  A9 41     LDA #$41                        A:01 X:33 Y:92 P:A5 SP:FB PPU: 44, 86
D35E  85 78     STA $78 = 3F                    A:41 X:33 Y:92 P:25 SP:FB PPU: 44, 92
D360  20 5C F9  JSR $F95C                       A:41 X:33 Y:92 P:25 SP:FB PPU: 44,101
F95C  A9 40     LDA #$40                        A:41 X:33 Y:92 P:25 SP:F9 PPU: 44,119
F95E  38        SEC                             A:40 X:33 Y:92 P:25 SP:F9 PPU: 44,125
F95F  24 01     BIT $01 = FF                    A:40 X:33 Y:92 P:25 SP:F9 PPU: 44,131
F961  60        RTS                             A:40 X:33 Y:92 P:E5 SP:F9 PPU: 44,140
D363  E5 78     SBC $78 = 41                    A:40 X:33 Y:92 P:E5 SP:FB PPU: 44,158
D365  20 62 F9  JSR $F962                       A:FF X:33 Y:92 P:A4 SP:FB PPU: 44,167
F962  B0 0B     BCS $F96F                       A:FF X:33 Y:92 P:A4 SP:F9 PPU: 44,185
F964  F0 09     BEQ $F96F                       A:FF X:33 Y:92 P:A4 SP:F9 PPU: 44,191
F966  10 07     BPL $F96F                       A:FF X:33 Y:92 P:A4 SP:F9 PPU: 44,197
F968  70 05     BVS $F96F                       A:FF X:33 Y:92 P:A4 SP:F9 PPU: 44,203
F96A  C9 FF     CMP #$FF                        A:FF X:33 Y:92 P:A4 SP:F9 PPU: 44,209
F96C  D0 01     BNE $F96F                       A:FF X:33 Y:92 P:27 SP:F9 PPU: 44,215
F96E  60        RTS                             A:FF X:33 Y:92 P:27 SP:F9 PPU: 44,221
D368  C8        INY                             A:FF X:33 Y:92 P:27 SP:FB PPU: 44,239
D369  A9 00     LDA #$00                        A:FF X:33 Y:93 P:A5 SP:FB PPU: 44,245
D36B  85 78     STA $78 = 41                    A:00 X:33 Y:93 P:27 SP:FB PPU: 44,251
D36D  20 72 F9  JSR $F972                       A:00 X:33 Y:93 P:27 SP:FB PPU: 44,260
F972  18        CLC                             A:00 X:33 Y:93 P:27 SP:F9 PPU: 44,278
F973  A9 80     LDA #$80                        A:00 X:33 Y:93 P:26 SP:F9 PPU: 44,284
F975  60        RTS                             A:80 X:33 Y:93 P:A4 SP:F9 PPU: 44,290
D370  E5 78     SBC $78 = 00                    A:80 X:33 Y:93 P:A4 SP:FB PPU: 44,308
D372  20 76 F9  JSR $F976                       A:7F X:33 Y:93 P:65 SP:FB PPU: 44,317
F976  90 05     BCC $F97D                       A:7F X:33 Y:93 P:65 SP:F9 PPU: 44,335
F978  C9 7F     CMP #$7F                        A:7F X:33 Y:93 P:65 SP:F9 PPU: 45,  0
F97A  D0 01     BNE $F97D                       A:7F X:33 Y:93 P:67 SP:F9 PPU: 45,  6
F97C  60        RTS                             A:7F X:33 Y:93 P:67 SP:F9 PPU: 45, 12
D375  C8        INY                             A:7F X:33 Y:93 P:67 SP:FB PPU: 45, 30
D376  A9 7F     LDA #$7F                        A:7F X:33 Y:94 P:E5 SP:FB PPU: 45, 36
D378  85 78     STA $78 = 00                    A:7F X:33 Y:94 P:65 SP:FB PPU: 45, 42
D37A  20 80 F9  JSR $F980                       A:7F X:33 Y:94 P:65 SP:FB PPU: 45, 51
F980  38        SEC                             A:7F X:33 Y:94 P:65 SP:F9 PPU: 45, 69
F981  A9 81     LDA #$81                        A:7F X:33 Y:94 P:65 SP:F9 PPU: 45, 75
F983  60        RTS                             A:81 X:33 Y:94 P:E5 SP:F9 PPU: 45, 81
D37D  E5 78     SBC $78 = 7F                    A:81 X:33 Y:94 P:E5 SP:FB PPU: 45, 99
D37F  20 84 F9  JSR $F984                       A:02 X:33 Y:94 P:65 SP:FB PPU: 45,108
F984  50 07     BVC $F98D                       A:02 X:33 Y:94 P:65 SP:F9 PPU: 45,126
F986  90 05     BCC $F98D                       A:02 X:33 Y:94 P:65 SP:F9 PPU: 45,132
F988  C9 02     CMP #$02                        A:02 X:33 Y:94 P:65 SP:F9 PPU: 45,138
F98A  D0 01     BNE $F98D                       A:02 X:33 Y:94 P:67 SP:F9 PPU: 45,144
F98C  60        RTS                             A:02 X:33 Y:94 P:67 SP:F9 PPU: 45,150
D382  C8        INY                             A:02 X:33 Y:94 P:67 SP:FB PPU: 45,168
D383  A9 40     LDA #$40                        A:02 X:33 Y:95 P:E5 SP:FB PPU: 45,174
D385  85 78     STA $78 = 7F                    A:40 X:33 Y:95 P:65 SP:FB PPU: 45,180
D387  20 89 F8  JSR $F889                       A:40 X:33 Y:95 P:65 SP:FB PPU: 45,189
F889  24 01     BIT $01 = FF                    A:40 X:33 Y:95 P:65 SP:F9 PPU: 45,207
F88B  A9 40     LDA #$40                        A:40 X:33 Y:95 P:E5 SP:F9 PPU: 45,216
F88D  60        RTS                             A:40 X:33 Y:95 P:65 SP:F9 PPU: 45,222
D38A  AA        TAX                             A:40 X:33 Y:95 P:65 SP:FB PPU: 45,240
D38B  E4 78     CPX $78 = 40                    A:40 X:40 Y:95 P:65 SP:FB PPU: 45,246
D38D  20 8E F8  JSR $F88E                       A:40 X:40 Y:95 P:67 SP:FB PPU: 45,255
F88E  30 07     BMI $F897                       A:40 X:40 Y:95 P:67 SP:F9 PPU: 45,273
F890  90 05     BCC $F897                       A:40 X:40 Y:95 P:67 SP:F9 PPU: 45,279
F892  D0 03     BNE $F897                       A:40 X:40 Y:95 P:67 SP:F9 PPU: 45,285
F894  50 01     BVC $F897                       A:40 X:40 Y:95 P:67 SP:F9 PPU: 45,291
F896  60        RTS                             A:40 X:40 Y:95 P:67 SP:F9 PPU: 45,297
D390  C8        INY                             A:40 X:40 Y:95 P:67 SP:FB PPU: 45,315
D391  A9 3F     LDA #$3F                        A:40 X:40 Y:96 P:E5 SP:FB PPU: 45,321
D393  85 78     STA $78 = 40                    A:3F X:40 Y:96 P:65 SP:FB PPU: 45,327
D395  20 9A F8  JSR $F89A                       A:3F X:40 Y:96 P:65 SP:FB PPU: 45,336
F89A  B8        CLV                             A:3F X:40 Y:96 P:65 SP:F9 PPU: 46, 13
F89B  60        RTS                             A:3F X:40 Y:96 P:25 SP:F9 PPU: 46, 19
D398  E4 78     CPX $78 = 3F                    A:3F X:40 Y:96 P:25 SP:FB PPU: 46, 37
D39A  20 9C F8  JSR $F89C                       A:3F X:40 Y:96 P:25 SP:FB PPU: 46, 46
F89C  F0 07     BEQ $F8A5                       A:3F X:40 Y:96 P:25 SP:F9 PPU: 46, 64
F89E  30 05     BMI $F8A5                       A:3F X:40 Y:96 P:25 SP:F9 PPU: 46, 70
F8A0  90 03     BCC $F8A5                       A:3F X:40 Y:96 P:25 SP:F9 PPU: 46, 76
F8A2  70 01     BVS $F8A5                       A:3F X:40 Y:96 P:25 SP:F9 PPU: 46, 82
F8A4  60        RTS                             A:3F X:40 Y:96 P:25 SP:F9 PPU: 46, 88
D39D  C8        INY                             A:3F X:40 Y:96 P:25 SP:FB PPU: 46,106
D39E  A9 41     LDA #$41                        A:3F X:40 Y:97 P:A5 SP:FB PPU: 46,112
D3A0  85 78     STA $78 = 3F                    A:41 X:40 Y:97 P:25 SP:FB PPU: 46,118
D3A2  E4 78     CPX $78 = 41                    A:41 X:40 Y:97 P:25 SP:FB PPU: 46,127
D3A4  20 A8 F8  JSR $F8A8                       A:41 X:40 Y:97 P:A4 SP:FB PPU: 46,136
F8A8  F0 05     BEQ $F8AF                       A:41 X:40 Y:97 P:A4 SP:F9 PPU: 46,154
F8AA  10 03     BPL $F8AF                       A:41 X:40 Y:97 P:A4 SP:F9 PPU: 46,160
F8AC  10 01     BPL $F8AF                       A:41 X:40 Y:97 P:A4 SP:F9 PPU: 46,166
F8AE  60        RTS                             A:41 X:40 Y:97 P:A4 SP:F9 PPU: 46,172
D3A7  C8        INY                             A:41 X:40 Y:97 P:A4 SP:FB PPU: 46,190
D3A8  A9 00     LDA #$00                        A:41 X:40 Y:98 P:A4 SP:FB PPU: 46,196
D3AA  85 78     STA $78 = 41                    A:00 X:40 Y:98 P:26 SP:FB PPU: 46,202
D3AC  20 B2 F8  JSR $F8B2                       A:00 X:40 Y:98 P:26 SP:FB PPU: 46,211
F8B2  A9 80     LDA #$80                        A:00 X:40 Y:98 P:26 SP:F9 PPU: 46,229
F8B4  60        RTS                             A:80 X:40 Y:98 P:A4 SP:F9 PPU: 46,235
D3AF  AA        TAX                             A:80 X:40 Y:98 P:A4 SP:FB PPU: 46,253
D3B0  E4 78     CPX $78 = 00                    A:80 X:80 Y:98 P:A4 SP:FB PPU: 46,259
D3B2  20 B5 F8  JSR $F8B5                       A:80 X:80 Y:98 P:A5 SP:FB PPU: 46,268
F8B5  F0 05     BEQ $F8BC                       A:80 X:80 Y:98 P:A5 SP:F9 PPU: 46,286
F8B7  10 03     BPL $F8BC                       A:80 X:80 Y:98 P:A5 SP:F9 PPU: 46,292
F8B9  90 01     BCC $F8BC                       A:80 X:80 Y:98 P:A5 SP:F9 PPU: 46,298
F8BB  60        RTS                             A:80 X:80 Y:98 P:A5 SP:F9 PPU: 46,304
D3B5  C8        INY                             A:80 X:80 Y:98 P:A5 SP:FB PPU: 46,322
D3B6  A9 80     LDA #$80                        A:80 X:80 Y:99 P:A5 SP:FB PPU: 46,328
D3B8  85 78     STA $78 = 00                    A:80 X:80 Y:99 P:A5 SP:FB PPU: 46,334
D3BA  E4 78     CPX $78 = 80                    A:80 X:80 Y:99 P:A5 SP:FB PPU: 47,  2
D3BC  20 BF F8  JSR $F8BF                       A:80 X:80 Y:99 P:27 SP:FB PPU: 47, 11
F8BF  D0 05     BNE $F8C6                       A:80 X:80 Y:99 P:27 SP:F9 PPU: 47, 29
F8C1  30 03     BMI $F8C6                       A:80 X:80 Y:99 P:27 SP:F9 PPU: 47, 35
F8C3  90 01     BCC $F8C6                       A:80 X:80 Y:99 P:27 SP:F9 PPU: 47, 41
F8C5  60        RTS                             A:80 X:80 Y:99 P:27 SP:F9 PPU: 47, 47
D3BF  C8        INY                             A:80 X:80 Y:99 P:27 SP:FB PPU: 47, 65
D3C0  A9 81     LDA #$81                        A:80 X:80 Y:9A P:A5 SP:FB PPU: 47, 71
D3C2  85 78     STA $78 = 80                    A:81 X:80 Y:9A P:A5 SP:FB PPU: 47, 77
D3C4  E4 78     CPX $78 = 81                    A:81 X:80 Y:9A P:A5 SP:FB PPU: 47, 86
D3C6  20 C9 F8  JSR $F8C9                       A:81 X:80 Y:9A P:A4 SP:FB PPU: 47, 95
F8C9  B0 05     BCS $F8D0                       A:81 X:80 Y:9A P:A4 SP:F9 PPU: 47,113
F8CB  F0 03     BEQ $F8D0                       A:81 X:80 Y:9A P:A4 SP:F9 PPU: 47,119
F8CD  10 01     BPL $F8D0                       A:81 X:80 Y:9A P:A4 SP:F9 PPU: 47,125
F8CF  60        RTS                             A:81 X:80 Y:9A P:A4 SP:F9 PPU: 47,131
D3C9  C8        INY                             A:81 X:80 Y:9A P:A4 SP:FB PPU: 47,149
D3CA  A9 7F     LDA #$7F                        A:81 X:80 Y:9B P:A4 SP:FB PPU: 47,155
D3CC  85 78     STA $78 = 81                    A:7F X:80 Y:9B P:24 SP:FB PPU: 47,161
D3CE  E4 78     CPX $78 = 7F                    A:7F X:80 Y:9B P:24 SP:FB PPU: 47,170
D3D0  20 D3 F8  JSR $F8D3                       A:7F X:80 Y:9B P:25 SP:FB PPU: 47,179
F8D3  90 05     BCC $F8DA                       A:7F X:80 Y:9B P:25 SP:F9 PPU: 47,197
F8D5  F0 03     BEQ $F8DA                       A:7F X:80 Y:9B P:25 SP:F9 PPU: 47,203
F8D7  30 01     BMI $F8DA                       A:7F X:80 Y:9B P:25 SP:F9 PPU: 47,209
F8D9  60        RTS                             A:7F X:80 Y:9B P:25 SP:F9 PPU: 47,215
D3D3  C8        INY                             A:7F X:80 Y:9B P:25 SP:FB PPU: 47,233
D3D4  98        TYA                             A:7F X:80 Y:9C P:A5 SP:FB PPU: 47,239
D3D5  AA        TAX                             A:9C X:80 Y:9C P:A5 SP:FB PPU: 47,245
D3D6  A9 40     LDA #$40                        A:9C X:9C Y:9C P:A5 SP:FB PPU: 47,251
D3D8  85 78     STA $78 = 7F                    A:40 X:9C Y:9C P:25 SP:FB PPU: 47,257
D3DA  20 DD F8  JSR $F8DD                       A:40 X:9C Y:9C P:25 SP:FB PPU: 47,266
F8DD  24 01     BIT $01 = FF                    A:40 X:9C Y:9C P:25 SP:F9 PPU: 47,284
F8DF  A0 40     LDY #$40                        A:40 X:9C Y:9C P:E5 SP:F9 PPU: 47,293
F8E1  60        RTS                             A:40 X:9C Y:40 P:65 SP:F9 PPU: 47,299
D3DD  C4 78     CPY $78 = 40                    A:40 X:9C Y:40 P:65 SP:FB PPU: 47,317
D3DF  20 E2 F8  JSR $F8E2                       A:40 X:9C Y:40 P:67 SP:FB PPU: 47,326
F8E2  30 07     BMI $F8EB                       A:40 X:9C Y:40 P:67 SP:F9 PPU: 48,  3
F8E4  90 05     BCC $F8EB                       A:40 X:9C Y:40 P:67 SP:F9 PPU: 48,  9
F8E6  D0 03     BNE $F8EB                       A:40 X:9C Y:40 P:67 SP:F9 PPU: 48, 15
F8E8  50 01     BVC $F8EB                       A:40 X:9C Y:40 P:67 SP:F9 PPU: 48, 21
F8EA  60        RTS                             A:40 X:9C Y:40 P:67 SP:F9 PPU: 48, 27
D3E2  E8        INX                             A:40 X:9C Y:40 P:67 SP:FB PPU: 48, 45
D3E3  A9 3F     LDA #$3F                        A:40 X:9D Y:40 P:E5 SP:FB PPU: 48, 51
D3E5  85 78     STA $78 = 40                    A:3F X:9D Y:40 P:65 SP:FB PPU: 48, 57
D3E7  20 EE F8  JSR $F8EE                       A:3F X:9D Y:40 P:65 SP:FB PPU: 48, 66
F8EE  B8        CLV                             A:3F X:9D Y:40 P:65 SP:F9 PPU: 48, 84
F8EF  60        RTS                             A:3F X:9D Y:40 P:25 SP:F9 PPU: 48, 90
D3EA  C4 78     CPY $78 = 3F                    A:3F X:9D Y:40 P:25 SP:FB PPU: 48,108
D3EC  20 F0 F8  JSR $F8F0                       A:3F X:9D Y:40 P:25 SP:FB PPU: 48,117
F8F0  F0 07     BEQ $F8F9                       A:3F X:9D Y:40 P:25 SP:F9 PPU: 48,135
F8F2  30 05     BMI $F8F9                       A:3F X:9D Y:40 P:25 SP:F9 PPU: 48,141
F8F4  90 03     BCC $F8F9                       A:3F X:9D Y:40 P:25 SP:F9 PPU: 48,147
F8F6  70 01     BVS $F8F9                       A:3F X:9D Y:40 P:25 SP:F9 PPU: 48,153
F8F8  60        RTS                             A:3F X:9D Y:40 P:25 SP:F9 PPU: 48,159
D3EF  E8        INX                             A:3F X:9D Y:40 P:25 SP:FB PPU: 48,177
D3F0  A9 41     LDA #$41                        A:3F X:9E Y:40 P:A5 SP:FB PPU: 48,183
D3F2  85 78     STA $78 = 3F                    A:41 X:9E Y:40 P:25 SP:FB PPU: 48,189
D3F4  C4 78     CPY $78 = 41                    A:41 X:9E Y:40 P:25 SP:FB PPU: 48,198
D3F6  20 FC F8  JSR $F8FC                       A:41 X:9E Y:40 P:A4 SP:FB PPU: 48,207
F8FC  F0 05     BEQ $F903                       A:41 X:9E Y:40 P:A4 SP:F9 PPU: 48,225
F8FE  10 03     BPL $F903                       A:41 X:9E Y:40 P:A4 SP:F9 PPU: 48,231
F900  10 01     BPL $F903                       A:41 X:9E Y:40 P:A4 SP:F9 PPU: 48,237
F902  60        RTS                             A:41 X:9E Y:40 P:A4 SP:F9 PPU: 48,243
D3F9  E8        INX                             A:41 X:9E Y:40 P:A4 SP:FB PPU: 48,261
D3FA  A9 00     LDA #$00                        A:41 X:9F Y:40 P:A4 SP:FB PPU: 48,267
D3FC  85 78     STA $78 = 41                    A:00 X:9F Y:40 P:26 SP:FB PPU: 48,273
D3FE  20 06 F9  JSR $F906                       A:00 X:9F Y:40 P:26 SP:FB PPU: 48,282
F906  A0 80     LDY #$80                        A:00 X:9F Y:40 P:26 SP:F9 PPU: 48,300
F908  60        RTS                             A:00 X:9F Y:80 P:A4 SP:F9 PPU: 48,306
D401  C4 78     CPY $78 = 00                    A:00 X:9F Y:80 P:A4 SP:FB PPU: 48,324
D403  20 09 F9  JSR $F909                       A:00 X:9F Y:80 P:A5 SP:FB PPU: 48,333
F909  F0 05     BEQ $F910                       A:00 X:9F Y:80 P:A5 SP:F9 PPU: 49, 10
F90B  10 03     BPL $F910                       A:00 X:9F Y:80 P:A5 SP:F9 PPU: 49, 16
F90D  90 01     BCC $F910                       A:00 X:9F Y:80 P:A5 SP:F9 PPU: 49, 22
F90F  60        RTS                             A:00 X:9F Y:80 P:A5 SP:F9 PPU: 49, 28
D406  E8        INX                             A:00 X:9F Y:80 P:A5 SP:FB PPU: 49, 46
D407  A9 80     LDA #$80                        A:00 X:A0 Y:80 P:A5 SP:FB PPU: 49, 52
D409  85 78     STA $78 = 00                    A:80 X:A0 Y:80 P:A5 SP:FB PPU: 49, 58
D40B  C4 78     CPY $78 = 80                    A:80 X:A0 Y:80 P:A5 SP:FB PPU: 49, 67
D40D  20 13 F9  JSR $F913                       A:80 X:A0 Y:80 P:27 SP:FB PPU: 49, 76
F913  D0 05     BNE $F91A                       A:80 X:A0 Y:80 P:27 SP:F9 PPU: 49, 94
F915  30 03     BMI $F91A                       A:80 X:A0 Y:80 P:27 SP:F9 PPU: 49,100
F917  90 01     BCC $F91A                       A:80 X:A0 Y:80 P:27 SP:F9 PPU: 49,106
F919  60        RTS                             A:80 X:A0 Y:80 P:27 SP:F9 PPU: 49,112
D410  E8        INX                             A:80 X:A0 Y:80 P:27 SP:FB PPU: 49,130
D411  A9 81     LDA #$81                        A:80 X:A1 Y:80 P:A5 SP:FB PPU: 49,136
D413  85 78     STA $78 = 80                    A:81 X:A1 Y:80 P:A5 SP:FB PPU: 49,142
D415  C4 78     CPY $78 = 81                    A:81 X:A1 Y:80 P:A5 SP:FB PPU: 49,151
D417  20 1D F9  JSR $F91D                       A:81 X:A1 Y:80 P:A4 SP:FB PPU: 49,160
F91D  B0 05     BCS $F924                       A:81 X:A1 Y:80 P:A4 SP:F9 PPU: 49,178
F91F  F0 03     BEQ $F924                       A:81 X:A1 Y:80 P:A4 SP:F9 PPU: 49,184
F921  10 01     BPL $F924                       A:81 X:A1 Y:80 P:A4 SP:F9 PPU: 49,190
F923  60        RTS                             A:81 X:A1 Y:80 P:A4 SP:F9 PPU: 49,196
D41A  E8        INX                             A:81 X:A1 Y:80 P:A4 SP:FB PPU: 49,214
D41B  A9 7F     LDA #$7F                        A:81 X:A2 Y:80 P:A4 SP:FB PPU: 49,220
D41D  85 78     STA $78 = 81                    A:7F X:A2 Y:80 P:24 SP:FB PPU: 49,226
D41F  C4 78     CPY $78 = 7F                    A:7F X:A2 Y:80 P:24 SP:FB PPU: 49,235
D421  20 27 F9  JSR $F927                       A:7F X:A2 Y:80 P:25 SP:FB PPU: 49,244
F927  90 05     BCC $F92E                       A:7F X:A2 Y:80 P:25 SP:F9 PPU: 49,262
F929  F0 03     BEQ $F92E                       A:7F X:A2 Y:80 P:25 SP:F9 PPU: 49,268
F92B  30 01     BMI $F92E                       A:7F X:A2 Y:80 P:25 SP:F9 PPU: 49,274
F92D  60        RTS                             A:7F X:A2 Y:80 P:25 SP:F9 PPU: 49,280
D424  E8        INX                             A:7F X:A2 Y:80 P:25 SP:FB PPU: 49,298
D425  8A        TXA                             A:7F X:A3 Y:80 P:A5 SP:FB PPU: 49,304
D426  A8        TAY                             A:A3 X:A3 Y:80 P:A5 SP:FB PPU: 49,310
D427  20 90 F9  JSR $F990                       A:A3 X:A3 Y:A3 P:A5 SP:FB PPU: 49,316
F990  A2 55     LDX #$55                        A:A3 X:A3 Y:A3 P:A5 SP:F9 PPU: 49,334
F992  A9 FF     LDA #$FF                        A:A3 X:55 Y:A3 P:25 SP:F9 PPU: 49,340
F994  85 01     STA $01 = FF                    A:FF X:55 Y:A3 P:A5 SP:F9 PPU: 50,  5
F996  EA        NOP                             A:FF X:55 Y:A3 P:A5 SP:F9 PPU: 50, 14
F997  24 01     BIT $01 = FF                    A:FF X:55 Y:A3 P:A5 SP:F9 PPU: 50, 20
F999  38        SEC                             A:FF X:55 Y:A3 P:E5 SP:F9 PPU: 50, 29
F99A  A9 01     LDA #$01                        A:FF X:55 Y:A3 P:E5 SP:F9 PPU: 50, 35
F99C  60        RTS                             A:01 X:55 Y:A3 P:65 SP:F9 PPU: 50, 41
D42A  85 78     STA $78 = 7F                    A:01 X:55 Y:A3 P:65 SP:FB PPU: 50, 59
D42C  46 78     LSR $78 = 01                    A:01 X:55 Y:A3 P:65 SP:FB PPU: 50, 68
D42E  A5 78     LDA $78 = 00                    A:01 X:55 Y:A3 P:67 SP:FB PPU: 50, 83
D430  20 9D F9  JSR $F99D                       A:00 X:55 Y:A3 P:67 SP:FB PPU: 50, 92
F99D  90 1B     BCC $F9BA                       A:00 X:55 Y:A3 P:67 SP:F9 PPU: 50,110
F99F  D0 19     BNE $F9BA                       A:00 X:55 Y:A3 P:67 SP:F9 PPU: 50,116
F9A1  30 17     BMI $F9BA                       A:00 X:55 Y:A3 P:67 SP:F9 PPU: 50,122
F9A3  50 15     BVC $F9BA                       A:00 X:55 Y:A3 P:67 SP:F9 PPU: 50,128
F9A5  C9 00     CMP #$00                        A:00 X:55 Y:A3 P:67 SP:F9 PPU: 50,134
F9A7  D0 11     BNE $F9BA                       A:00 X:55 Y:A3 P:67 SP:F9 PPU: 50,140
F9A9  B8        CLV                             A:00 X:55 Y:A3 P:67 SP:F9 PPU: 50,146
F9AA  A9 AA     LDA #$AA                        A:00 X:55 Y:A3 P:27 SP:F9 PPU: 50,152
F9AC  60        RTS                             A:AA X:55 Y:A3 P:A5 SP:F9 PPU: 50,158
D433  C8        INY                             A:AA X:55 Y:A3 P:A5 SP:FB PPU: 50,176
D434  85 78     STA $78 = 00                    A:AA X:55 Y:A4 P:A5 SP:FB PPU: 50,182
D436  46 78     LSR $78 = AA                    A:AA X:55 Y:A4 P:A5 SP:FB PPU: 50,191
D438  A5 78     LDA $78 = 55                    A:AA X:55 Y:A4 P:24 SP:FB PPU: 50,206
D43A  20 AD F9  JSR $F9AD                       A:55 X:55 Y:A4 P:24 SP:FB PPU: 50,215
F9AD  B0 0B     BCS $F9BA                       A:55 X:55 Y:A4 P:24 SP:F9 PPU: 50,233
F9AF  F0 09     BEQ $F9BA                       A:55 X:55 Y:A4 P:24 SP:F9 PPU: 50,239
F9B1  30 07     BMI $F9BA                       A:55 X:55 Y:A4 P:24 SP:F9 PPU: 50,245
F9B3  70 05     BVS $F9BA                       A:55 X:55 Y:A4 P:24 SP:F9 PPU: 50,251
F9B5  C9 55     CMP #$55                        A:55 X:55 Y:A4 P:24 SP:F9 PPU: 50,257
F9B7  D0 01     BNE $F9BA                       A:55 X:55 Y:A4 P:27 SP:F9 PPU: 50,263
F9B9  60        RTS                             A:55 X:55 Y:A4 P:27 SP:F9 PPU: 50,269
D43D  C8        INY                             A:55 X:55 Y:A4 P:27 SP:FB PPU: 50,287
D43E  20 BD F9  JSR $F9BD                       A:55 X:55 Y:A5 P:A5 SP:FB PPU: 50,293
F9BD  24 01     BIT $01 = FF                    A:55 X:55 Y:A5 P:A5 SP:F9 PPU: 50,311
F9BF  38        SEC                             A:55 X:55 Y:A5 P:E5 SP:F9 PPU: 50,320
F9C0  A9 80     LDA #$80                        A:55 X:55 Y:A5 P:E5 SP:F9 PPU: 50,326
F9C2  60        RTS                             A:80 X:55 Y:A5 P:E5 SP:F9 PPU: 50,332
D441  85 78     STA $78 = 55                    A:80 X:55 Y:A5 P:E5 SP:FB PPU: 51,  9
D443  06 78     ASL $78 = 80                    A:80 X:55 Y:A5 P:E5 SP:FB PPU: 51, 18
D445  A5 78     LDA $78 = 00                    A:80 X:55 Y:A5 P:67 SP:FB PPU: 51, 33
D447  20 C3 F9  JSR $F9C3                       A:00 X:55 Y:A5 P:67 SP:FB PPU: 51, 42
F9C3  90 1C     BCC $F9E1                       A:00 X:55 Y:A5 P:67 SP:F9 PPU: 51, 60
F9C5  D0 1A     BNE $F9E1                       A:00 X:55 Y:A5 P:67 SP:F9 PPU: 51, 66
F9C7  30 18     BMI $F9E1                       A:00 X:55 Y:A5 P:67 SP:F9 PPU: 51, 72
F9C9  50 16     BVC $F9E1                       A:00 X:55 Y:A5 P:67 SP:F9 PPU: 51, 78
F9CB  C9 00     CMP #$00                        A:00 X:55 Y:A5 P:67 SP:F9 PPU: 51, 84
F9CD  D0 12     BNE $F9E1                       A:00 X:55 Y:A5 P:67 SP:F9 PPU: 51, 90
F9CF  B8        CLV                             A:00 X:55 Y:A5 P:67 SP:F9 PPU: 51, 96
F9D0  A9 55     LDA #$55                        A:00 X:55 Y:A5 P:27 SP:F9 PPU: 51,102
F9D2  38        SEC                             A:55 X:55 Y:A5 P:25 SP:F9 PPU: 51,108
F9D3  60        RTS                             A:55 X:55 Y:A5 P:25 SP:F9 PPU: 51,114
D44A  C8        INY                             A:55 X:55 Y:A5 P:25 SP:FB PPU: 51,132
D44B  85 78     STA $78 = 00                    A:55 X:55 Y:A6 P:A5 SP:FB PPU: 51,138
D44D  06 78     ASL $78 = 55                    A:55 X:55 Y:A6 P:A5 SP:FB PPU: 51,147
D44F  A5 78     LDA $78 = AA                    A:55 X:55 Y:A6 P:A4 SP:FB PPU: 51,162
D451  20 D4 F9  JSR $F9D4                       A:AA X:55 Y:A6 P:A4 SP:FB PPU: 51,171
F9D4  B0 0B     BCS $F9E1                       A:AA X:55 Y:A6 P:A4 SP:F9 PPU: 51,189
F9D6  F0 09     BEQ $F9E1                       A:AA X:55 Y:A6 P:A4 SP:F9 PPU: 51,195
F9D8  10 07     BPL $F9E1                       A:AA X:55 Y:A6 P:A4 SP:F9 PPU: 51,201
F9DA  70 05     BVS $F9E1                       A:AA X:55 Y:A6 P:A4 SP:F9 PPU: 51,207
F9DC  C9 AA     CMP #$AA                        A:AA X:55 Y:A6 P:A4 SP:F9 PPU: 51,213
F9DE  D0 01     BNE $F9E1                       A:AA X:55 Y:A6 P:27 SP:F9 PPU: 51,219
F9E0  60        RTS                             A:AA X:55 Y:A6 P:27 SP:F9 PPU: 51,225
D454  C8        INY                             A:AA X:55 Y:A6 P:27 SP:FB PPU: 51,243
D455  20 E4 F9  JSR $F9E4                       A:AA X:55 Y:A7 P:A5 SP:FB PPU: 51,249
F9E4  24 01     BIT $01 = FF                    A:AA X:55 Y:A7 P:A5 SP:F9 PPU: 51,267
F9E6  38        SEC                             A:AA X:55 Y:A7 P:E5 SP:F9 PPU: 51,276
F9E7  A9 01     LDA #$01                        A:AA X:55 Y:A7 P:E5 SP:F9 PPU: 51,282
F9E9  60        RTS                             A:01 X:55 Y:A7 P:65 SP:F9 PPU: 51,288
D458  85 78     STA $78 = AA                    A:01 X:55 Y:A7 P:65 SP:FB PPU: 51,306
D45A  66 78     ROR $78 = 01                    A:01 X:55 Y:A7 P:65 SP:FB PPU: 51,315
D45C  A5 78     LDA $78 = 80                    A:01 X:55 Y:A7 P:E5 SP:FB PPU: 51,330
D45E  20 EA F9  JSR $F9EA                       A:80 X:55 Y:A7 P:E5 SP:FB PPU: 51,339
F9EA  90 1C     BCC $FA08                       A:80 X:55 Y:A7 P:E5 SP:F9 PPU: 52, 16
F9EC  F0 1A     BEQ $FA08                       A:80 X:55 Y:A7 P:E5 SP:F9 PPU: 52, 22
F9EE  10 18     BPL $FA08                       A:80 X:55 Y:A7 P:E5 SP:F9 PPU: 52, 28
F9F0  50 16     BVC $FA08                       A:80 X:55 Y:A7 P:E5 SP:F9 PPU: 52, 34
F9F2  C9 80     CMP #$80                        A:80 X:55 Y:A7 P:E5 SP:F9 PPU: 52, 40
F9F4  D0 12     BNE $FA08                       A:80 X:55 Y:A7 P:67 SP:F9 PPU: 52, 46
F9F6  B8        CLV                             A:80 X:55 Y:A7 P:67 SP:F9 PPU: 52, 52
F9F7  18        CLC                             A:80 X:55 Y:A7 P:27 SP:F9 PPU: 52, 58
F9F8  A9 55     LDA #$55                        A:80 X:55 Y:A7 P:26 SP:F9 PPU: 52, 64
F9FA  60        RTS                             A:55 X:55 Y:A7 P:24 SP:F9 PPU: 52, 70
D461  C8        INY                             A:55 X:55 Y:A7 P:24 SP:FB PPU: 52, 88
D462  85 78     STA $78 = 80                    A:55 X:55 Y:A8 P:A4 SP:FB PPU: 52, 94
D464  66 78     ROR $78 = 55                    A:55 X:55 Y:A8 P:A4 SP:FB PPU: 52,103
D466  A5 78     LDA $78 = 2A                    A:55 X:55 Y:A8 P:25 SP:FB PPU: 52,118
D468  20 FB F9  JSR $F9FB                       A:2A X:55 Y:A8 P:25 SP:FB PPU: 52,127
F9FB  90 0B     BCC $FA08                       A:2A X:55 Y:A8 P:25 SP:F9 PPU: 52,145
F9FD  F0 09     BEQ $FA08                       A:2A X:55 Y:A8 P:25 SP:F9 PPU: 52,151
F9FF  30 07     BMI $FA08                       A:2A X:55 Y:A8 P:25 SP:F9 PPU: 52,157
FA01  70 05     BVS $FA08                       A:2A X:55 Y:A8 P:25 SP:F9 PPU: 52,163
FA03  C9 2A     CMP #$2A                        A:2A X:55 Y:A8 P:25 SP:F9 PPU: 52,169
FA05  D0 01     BNE $FA08                       A:2A X:55 Y:A8 P:27 SP:F9 PPU: 52,175
FA07  60        RTS                             A:2A X:55 Y:A8 P:27 SP:F9 PPU: 52,181
D46B  C8        INY                             A:2A X:55 Y:A8 P:27 SP:FB PPU: 52,199
D46C  20 0A FA  JSR $FA0A                       A:2A X:55 Y:A9 P:A5 SP:FB PPU: 52,205
FA0A  24 01     BIT $01 = FF                    A:2A X:55 Y:A9 P:A5 SP:F9 PPU: 52,223
FA0C  38        SEC                             A:2A X:55 Y:A9 P:E5 SP:F9 PPU: 52,232
FA0D  A9 80     LDA #$80                        A:2A X:55 Y:A9 P:E5 SP:F9 PPU: 52,238
FA0F  60        RTS                             A:80 X:55 Y:A9 P:E5 SP:F9 PPU: 52,244
D46F  85 78     STA $78 = 2A                    A:80 X:55 Y:A9 P:E5 SP:FB PPU: 52,262
D471  26 78     ROL $78 = 80                    A:80 X:55 Y:A9 P:E5 SP:FB PPU: 52,271
D473  A5 78     LDA $78 = 01                    A:80 X:55 Y:A9 P:65 SP:FB PPU: 52,286
D475  20 10 FA  JSR $FA10                       A:01 X:55 Y:A9 P:65 SP:FB PPU: 52,295
FA10  90 1C     BCC $FA2E                       A:01 X:55 Y:A9 P:65 SP:F9 PPU: 52,313
FA12  F0 1A     BEQ $FA2E                       A:01 X:55 Y:A9 P:65 SP:F9 PPU: 52,319
FA14  30 18     BMI $FA2E                       A:01 X:55 Y:A9 P:65 SP:F9 PPU: 52,325
FA16  50 16     BVC $FA2E                       A:01 X:55 Y:A9 P:65 SP:F9 PPU: 52,331
FA18  C9 01     CMP #$01                        A:01 X:55 Y:A9 P:65 SP:F9 PPU: 52,337
FA1A  D0 12     BNE $FA2E                       A:01 X:55 Y:A9 P:67 SP:F9 PPU: 53,  2
FA1C  B8        CLV                             A:01 X:55 Y:A9 P:67 SP:F9 PPU: 53,  8
FA1D  18        CLC                             A:01 X:55 Y:A9 P:27 SP:F9 PPU: 53, 14
FA1E  A9 55     LDA #$55                        A:01 X:55 Y:A9 P:26 SP:F9 PPU: 53, 20
FA20  60        RTS                             A:55 X:55 Y:A9 P:24 SP:F9 PPU: 53, 26
D478  C8        INY                             A:55 X:55 Y:A9 P:24 SP:FB PPU: 53, 44
D479  85 78     STA $78 = 01                    A:55 X:55 Y:AA P:A4 SP:FB PPU: 53, 50
D47B  26 78     ROL $78 = 55                    A:55 X:55 Y:AA P:A4 SP:FB PPU: 53, 59
D47D  A5 78     LDA $78 = AA                    A:55 X:55 Y:AA P:A4 SP:FB PPU: 53, 74
D47F  20 21 FA  JSR $FA21                       A:AA X:55 Y:AA P:A4 SP:FB PPU: 53, 83
FA21  B0 0B     BCS $FA2E                       A:AA X:55 Y:AA P:A4 SP:F9 PPU: 53,101
FA23  F0 09     BEQ $FA2E                       A:AA X:55 Y:AA P:A4 SP:F9 PPU: 53,107
FA25  10 07     BPL $FA2E                       A:AA X:55 Y:AA P:A4 SP:F9 PPU: 53,113
FA27  70 05     BVS $FA2E                       A:AA X:55 Y:AA P:A4 SP:F9 PPU: 53,119
FA29  C9 AA     CMP #$AA                        A:AA X:55 Y:AA P:A4 SP:F9 PPU: 53,125
FA2B  D0 01     BNE $FA2E                       A:AA X:55 Y:AA P:27 SP:F9 PPU: 53,131
FA2D  60        RTS                             A:AA X:55 Y:AA P:27 SP:F9 PPU: 53,137
D482  A9 FF     LDA #$FF                        A:AA X:55 Y:AA P:27 SP:FB PPU: 53,155
D484  85 78     STA $78 = AA                    A:FF X:55 Y:AA P:A5 SP:FB PPU: 53,161
D486  85 01     STA $01 = FF                    A:FF X:55 Y:AA P:A5 SP:FB PPU: 53,170
D488  24 01     BIT $01 = FF                    A:FF X:55 Y:AA P:A5 SP:FB PPU: 53,179
D48A  38        SEC                             A:FF X:55 Y:AA P:E5 SP:FB PPU: 53,188
D48B  E6 78     INC $78 = FF                    A:FF X:55 Y:AA P:E5 SP:FB PPU: 53,194
D48D  D0 0C     BNE $D49B                       A:FF X:55 Y:AA P:67 SP:FB PPU: 53,209
D48F  30 0A     BMI $D49B                       A:FF X:55 Y:AA P:67 SP:FB PPU: 53,215
D491  50 08     BVC $D49B                       A:FF X:55 Y:AA P:67 SP:FB PPU: 53,221
D493  90 06     BCC $D49B                       A:FF X:55 Y:AA P:67 SP:FB PPU: 53,227
D495  A5 78     LDA $78 = 00                    A:FF X:55 Y:AA P:67 SP:FB PPU: 53,233
D497  C9 00     CMP #$00                        A:00 X:55 Y:AA P:67 SP:FB PPU: 53,242
D499  F0 04     BEQ $D49F                       A:00 X:55 Y:AA P:67 SP:FB PPU: 53,248
D49F  A9 7F     LDA #$7F                        A:00 X:55 Y:AA P:67 SP:FB PPU: 53,257
D4A1  85 78     STA $78 = 00                    A:7F X:55 Y:AA P:65 SP:FB PPU: 53,263
D4A3  B8        CLV                             A:7F X:55 Y:AA P:65 SP:FB PPU: 53,272
D4A4  18        CLC                             A:7F X:55 Y:AA P:25 SP:FB PPU: 53,278
D4A5  E6 78     INC $78 = 7F                    A:7F X:55 Y:AA P:24 SP:FB PPU: 53,284
D4A7  F0 0C     BEQ $D4B5                       A:7F X:55 Y:AA P:A4 SP:FB PPU: 53,299
D4A9  10 0A     BPL $D4B5                       A:7F X:55 Y:AA P:A4 SP:FB PPU: 53,305
D4AB  70 08     BVS $D4B5                       A:7F X:55 Y:AA P:A4 SP:FB PPU: 53,311
D4AD  B0 06     BCS $D4B5                       A:7F X:55 Y:AA P:A4 SP:FB PPU: 53,317
D4AF  A5 78     LDA $78 = 80                    A:7F X:55 Y:AA P:A4 SP:FB PPU: 53,323
D4B1  C9 80     CMP #$80                        A:80 X:55 Y:AA P:A4 SP:FB PPU: 53,332
D4B3  F0 04     BEQ $D4B9                       A:80 X:55 Y:AA P:27 SP:FB PPU: 53,338
D4B9  A9 00     LDA #$00                        A:80 X:55 Y:AA P:27 SP:FB PPU: 54,  6
D4BB  85 78     STA $78 = 80                    A:00 X:55 Y:AA P:27 SP:FB PPU: 54, 12
D4BD  24 01     BIT $01 = FF                    A:00 X:55 Y:AA P:27 SP:FB PPU: 54, 21
D4BF  38        SEC                             A:00 X:55 Y:AA P:E7 SP:FB PPU: 54, 30
D4C0  C6 78     DEC $78 = 00                    A:00 X:55 Y:AA P:E7 SP:FB PPU: 54, 36
D4C2  F0 0C     BEQ $D4D0                       A:00 X:55 Y:AA P:E5 SP:FB PPU: 54, 51
D4C4  10 0A     BPL $D4D0                       A:00 X:55 Y:AA P:E5 SP:FB PPU: 54, 57
D4C6  50 08     BVC $D4D0                       A:00 X:55 Y:AA P:E5 SP:FB PPU: 54, 63
D4C8  90 06     BCC $D4D0                       A:00 X:55 Y:AA P:E5 SP:FB PPU: 54, 69
D4CA  A5 78     LDA $78 = FF                    A:00 X:55 Y:AA P:E5 SP:FB PPU: 54, 75
D4CC  C9 FF     CMP #$FF                        A:FF X:55 Y:AA P:E5 SP:FB PPU: 54, 84
D4CE  F0 04     BEQ $D4D4                       A:FF X:55 Y:AA P:67 SP:FB PPU: 54, 90
D4D4  A9 80     LDA #$80                        A:FF X:55 Y:AA P:67 SP:FB PPU: 54, 99
D4D6  85 78     STA $78 = FF                    A:80 X:55 Y:AA P:E5 SP:FB PPU: 54,105
D4D8  B8        CLV                             A:80 X:55 Y:AA P:E5 SP:FB PPU: 54,114
D4D9  18        CLC                             A:80 X:55 Y:AA P:A5 SP:FB PPU: 54,120
D4DA  C6 78     DEC $78 = 80                    A:80 X:55 Y:AA P:A4 SP:FB PPU: 54,126
D4DC  F0 0C     BEQ $D4EA                       A:80 X:55 Y:AA P:24 SP:FB PPU: 54,141
D4DE  30 0A     BMI $D4EA                       A:80 X:55 Y:AA P:24 SP:FB PPU: 54,147
D4E0  70 08     BVS $D4EA                       A:80 X:55 Y:AA P:24 SP:FB PPU: 54,153
D4E2  B0 06     BCS $D4EA                       A:80 X:55 Y:AA P:24 SP:FB PPU: 54,159
D4E4  A5 78     LDA $78 = 7F                    A:80 X:55 Y:AA P:24 SP:FB PPU: 54,165
D4E6  C9 7F     CMP #$7F                        A:7F X:55 Y:AA P:24 SP:FB PPU: 54,174
D4E8  F0 04     BEQ $D4EE                       A:7F X:55 Y:AA P:27 SP:FB PPU: 54,180
D4EE  A9 01     LDA #$01                        A:7F X:55 Y:AA P:27 SP:FB PPU: 54,189
D4F0  85 78     STA $78 = 7F                    A:01 X:55 Y:AA P:25 SP:FB PPU: 54,195
D4F2  C6 78     DEC $78 = 01                    A:01 X:55 Y:AA P:25 SP:FB PPU: 54,204
D4F4  F0 04     BEQ $D4FA                       A:01 X:55 Y:AA P:27 SP:FB PPU: 54,219
D4FA  60        RTS                             A:01 X:55 Y:AA P:27 SP:FB PPU: 54,228
C615  20 FB D4  JSR $D4FB                       A:01 X:55 Y:AA P:27 SP:FD PPU: 54,246
D4FB  A9 55     LDA #$55                        A:01 X:55 Y:AA P:27 SP:FB PPU: 54,264
D4FD  8D 78 06  STA $0678 = 00                  A:55 X:55 Y:AA P:25 SP:FB PPU: 54,270
D500  A9 FF     LDA #$FF                        A:55 X:55 Y:AA P:25 SP:FB PPU: 54,282
D502  85 01     STA $01 = FF                    A:FF X:55 Y:AA P:A5 SP:FB PPU: 54,288
D504  24 01     BIT $01 = FF                    A:FF X:55 Y:AA P:A5 SP:FB PPU: 54,297
D506  A0 11     LDY #$11                        A:FF X:55 Y:AA P:E5 SP:FB PPU: 54,306
D508  A2 23     LDX #$23                        A:FF X:55 Y:11 P:65 SP:FB PPU: 54,312
D50A  A9 00     LDA #$00                        A:FF X:23 Y:11 P:65 SP:FB PPU: 54,318
D50C  AD 78 06  LDA $0678 = 55                  A:00 X:23 Y:11 P:67 SP:FB PPU: 54,324
D50F  F0 10     BEQ $D521                       A:55 X:23 Y:11 P:65 SP:FB PPU: 54,336
D511  30 0E     BMI $D521                       A:55 X:23 Y:11 P:65 SP:FB PPU: 55,  1
D513  C9 55     CMP #$55                        A:55 X:23 Y:11 P:65 SP:FB PPU: 55,  7
D515  D0 0A     BNE $D521                       A:55 X:23 Y:11 P:67 SP:FB PPU: 55, 13
D517  C0 11     CPY #$11                        A:55 X:23 Y:11 P:67 SP:FB PPU: 55, 19
D519  D0 06     BNE $D521                       A:55 X:23 Y:11 P:67 SP:FB PPU: 55, 25
D51B  E0 23     CPX #$23                        A:55 X:23 Y:11 P:67 SP:FB PPU: 55, 31
D51D  50 02     BVC $D521                       A:55 X:23 Y:11 P:67 SP:FB PPU: 55, 37
D51F  F0 04     BEQ $D525                       A:55 X:23 Y:11 P:67 SP:FB PPU: 55, 43
D525  A9 46     LDA #$46                        A:55 X:23 Y:11 P:67 SP:FB PPU: 55, 52
D527  24 01     BIT $01 = FF                    A:46 X:23 Y:11 P:65 SP:FB PPU: 55, 58
D529  8D 78 06  STA $0678 = 55                  A:46 X:23 Y:11 P:E5 SP:FB PPU: 55, 67
D52C  F0 0B     BEQ $D539                       A:46 X:23 Y:11 P:E5 SP:FB PPU: 55, 79
D52E  10 09     BPL $D539                       A:46 X:23 Y:11 P:E5 SP:FB PPU: 55, 85
D530  50 07     BVC $D539                       A:46 X:23 Y:11 P:E5 SP:FB PPU: 55, 91
D532  AD 78 06  LDA $0678 = 46                  A:46 X:23 Y:11 P:E5 SP:FB PPU: 55, 97
D535  C9 46     CMP #$46                        A:46 X:23 Y:11 P:65 SP:FB PPU: 55,109
D537  F0 04     BEQ $D53D                       A:46 X:23 Y:11 P:67 SP:FB PPU: 55,115
D53D  A9 55     LDA #$55                        A:46 X:23 Y:11 P:67 SP:FB PPU: 55,124
D53F  8D 78 06  STA $0678 = 46                  A:55 X:23 Y:11 P:65 SP:FB PPU: 55,130
D542  24 01     BIT $01 = FF                    A:55 X:23 Y:11 P:65 SP:FB PPU: 55,142
D544  A9 11     LDA #$11                        A:55 X:23 Y:11 P:E5 SP:FB PPU: 55,151
D546  A2 23     LDX #$23                        A:11 X:23 Y:11 P:65 SP:FB PPU: 55,157
D548  A0 00     LDY #$00                        A:11 X:23 Y:11 P:65 SP:FB PPU: 55,163
D54A  AC 78 06  LDY $0678 = 55                  A:11 X:23 Y:00 P:67 SP:FB PPU: 55,169
D54D  F0 10     BEQ $D55F                       A:11 X:23 Y:55 P:65 SP:FB PPU: 55,181
D54F  30 0E     BMI $D55F                       A:11 X:23 Y:55 P:65 SP:FB PPU: 55,187
D551  C0 55     CPY #$55                        A:11 X:23 Y:55 P:65 SP:FB PPU: 55,193
D553  D0 0A     BNE $D55F                       A:11 X:23 Y:55 P:67 SP:FB PPU: 55,199
D555  C9 11     CMP #$11                        A:11 X:23 Y:55 P:67 SP:FB PPU: 55,205
D557  D0 06     BNE $D55F                       A:11 X:23 Y:55 P:67 SP:FB PPU: 55,211
D559  E0 23     CPX #$23                        A:11 X:23 Y:55 P:67 SP:FB PPU: 55,217
D55B  50 02     BVC $D55F                       A:11 X:23 Y:55 P:67 SP:FB PPU: 55,223
D55D  F0 04     BEQ $D563                       A:11 X:23 Y:55 P:67 SP:FB PPU: 55,229
D563  A0 46     LDY #$46                        A:11 X:23 Y:55 P:67 SP:FB PPU: 55,238
D565  24 01     BIT $01 = FF                    A:11 X:23 Y:46 P:65 SP:FB PPU: 55,244
D567  8C 78 06  STY $0678 = 55                  A:11 X:23 Y:46 P:E5 SP:FB PPU: 55,253
D56A  F0 0B     BEQ $D577                       A:11 X:23 Y:46 P:E5 SP:FB PPU: 55,265
D56C  10 09     BPL $D577                       A:11 X:23 Y:46 P:E5 SP:FB PPU: 55,271
D56E  50 07     BVC $D577                       A:11 X:23 Y:46 P:E5 SP:FB PPU: 55,277
D570  AC 78 06  LDY $0678 = 46                  A:11 X:23 Y:46 P:E5 SP:FB PPU: 55,283
D573  C0 46     CPY #$46                        A:11 X:23 Y:46 P:65 SP:FB PPU: 55,295
D575  F0 04     BEQ $D57B                       A:11 X:23 Y:46 P:67 SP:FB PPU: 55,301
D57B  24 01     BIT $01 = FF                    A:11 X:23 Y:46 P:67 SP:FB PPU: 55,310
D57D  A9 55     LDA #$55                        A:11 X:23 Y:46 P:E5 SP:FB PPU: 55,319
D57F  8D 78 06  STA $0678 = 46                  A:55 X:23 Y:46 P:65 SP:FB PPU: 55,325
D582  A0 11     LDY #$11                        A:55 X:23 Y:46 P:65 SP:FB PPU: 55,337
D584  A9 23     LDA #$23                        A:55 X:23 Y:11 P:65 SP:FB PPU: 56,  2
D586  A2 00     LDX #$00                        A:23 X:23 Y:11 P:65 SP:FB PPU: 56,  8
D588  AE 78 06  LDX $0678 = 55                  A:23 X:00 Y:11 P:67 SP:FB PPU: 56, 14
D58B  F0 10     BEQ $D59D                       A:23 X:55 Y:11 P:65 SP:FB PPU: 56, 26
D58D  30 0E     BMI $D59D                       A:23 X:55 Y:11 P:65 SP:FB PPU: 56, 32
D58F  E0 55     CPX #$55                        A:23 X:55 Y:11 P:65 SP:FB PPU: 56, 38
D591  D0 0A     BNE $D59D                       A:23 X:55 Y:11 P:67 SP:FB PPU: 56, 44
D593  C0 11     CPY #$11                        A:23 X:55 Y:11 P:67 SP:FB PPU: 56, 50
D595  D0 06     BNE $D59D                       A:23 X:55 Y:11 P:67 SP:FB PPU: 56, 56
D597  C9 23     CMP #$23                        A:23 X:55 Y:11 P:67 SP:FB PPU: 56, 62
D599  50 02     BVC $D59D                       A:23 X:55 Y:11 P:67 SP:FB PPU: 56, 68
D59B  F0 04     BEQ $D5A1                       A:23 X:55 Y:11 P:67 SP:FB PPU: 56, 74
D5A1  A2 46     LDX #$46                        A:23 X:55 Y:11 P:67 SP:FB PPU: 56, 83
D5A3  24 01     BIT $01 = FF                    A:23 X:46 Y:11 P:65 SP:FB PPU: 56, 89
D5A5  8E 78 06  STX $0678 = 55                  A:23 X:46 Y:11 P:E5 SP:FB PPU: 56, 98
D5A8  F0 0B     BEQ $D5B5                       A:23 X:46 Y:11 P:E5 SP:FB PPU: 56,110
D5AA  10 09     BPL $D5B5                       A:23 X:46 Y:11 P:E5 SP:FB PPU: 56,116
D5AC  50 07     BVC $D5B5                       A:23 X:46 Y:11 P:E5 SP:FB PPU: 56,122
D5AE  AE 78 06  LDX $0678 = 46                  A:23 X:46 Y:11 P:E5 SP:FB PPU: 56,128
D5B1  E0 46     CPX #$46                        A:23 X:46 Y:11 P:65 SP:FB PPU: 56,140
D5B3  F0 04     BEQ $D5B9                       A:23 X:46 Y:11 P:67 SP:FB PPU: 56,146
D5B9  A9 C0     LDA #$C0                        A:23 X:46 Y:11 P:67 SP:FB PPU: 56,155
D5BB  8D 78 06  STA $0678 = 46                  A:C0 X:46 Y:11 P:E5 SP:FB PPU: 56,161
D5BE  A2 33     LDX #$33                        A:C0 X:46 Y:11 P:E5 SP:FB PPU: 56,173
D5C0  A0 88     LDY #$88                        A:C0 X:33 Y:11 P:65 SP:FB PPU: 56,179
D5C2  A9 05     LDA #$05                        A:C0 X:33 Y:88 P:E5 SP:FB PPU: 56,185
D5C4  2C 78 06  BIT $0678 = C0                  A:05 X:33 Y:88 P:65 SP:FB PPU: 56,191
D5C7  10 10     BPL $D5D9                       A:05 X:33 Y:88 P:E7 SP:FB PPU: 56,203
D5C9  50 0E     BVC $D5D9                       A:05 X:33 Y:88 P:E7 SP:FB PPU: 56,209
D5CB  D0 0C     BNE $D5D9                       A:05 X:33 Y:88 P:E7 SP:FB PPU: 56,215
D5CD  C9 05     CMP #$05                        A:05 X:33 Y:88 P:E7 SP:FB PPU: 56,221
D5CF  D0 08     BNE $D5D9                       A:05 X:33 Y:88 P:67 SP:FB PPU: 56,227
D5D1  E0 33     CPX #$33                        A:05 X:33 Y:88 P:67 SP:FB PPU: 56,233
D5D3  D0 04     BNE $D5D9                       A:05 X:33 Y:88 P:67 SP:FB PPU: 56,239
D5D5  C0 88     CPY #$88                        A:05 X:33 Y:88 P:67 SP:FB PPU: 56,245
D5D7  F0 04     BEQ $D5DD                       A:05 X:33 Y:88 P:67 SP:FB PPU: 56,251
D5DD  A9 03     LDA #$03                        A:05 X:33 Y:88 P:67 SP:FB PPU: 56,260
D5DF  8D 78 06  STA $0678 = C0                  A:03 X:33 Y:88 P:65 SP:FB PPU: 56,266
D5E2  A9 01     LDA #$01                        A:03 X:33 Y:88 P:65 SP:FB PPU: 56,278
D5E4  2C 78 06  BIT $0678 = 03                  A:01 X:33 Y:88 P:65 SP:FB PPU: 56,284
D5E7  30 08     BMI $D5F1                       A:01 X:33 Y:88 P:25 SP:FB PPU: 56,296
D5E9  70 06     BVS $D5F1                       A:01 X:33 Y:88 P:25 SP:FB PPU: 56,302
D5EB  F0 04     BEQ $D5F1                       A:01 X:33 Y:88 P:25 SP:FB PPU: 56,308
D5ED  C9 01     CMP #$01                        A:01 X:33 Y:88 P:25 SP:FB PPU: 56,314
D5EF  F0 04     BEQ $D5F5                       A:01 X:33 Y:88 P:27 SP:FB PPU: 56,320
D5F5  A0 B8     LDY #$B8                        A:01 X:33 Y:88 P:27 SP:FB PPU: 56,329
D5F7  A9 AA     LDA #$AA                        A:01 X:33 Y:B8 P:A5 SP:FB PPU: 56,335
D5F9  8D 78 06  STA $0678 = 03                  A:AA X:33 Y:B8 P:A5 SP:FB PPU: 57,  0
D5FC  20 B6 F7  JSR $F7B6                       A:AA X:33 Y:B8 P:A5 SP:FB PPU: 57, 12
F7B6  18        CLC                             A:AA X:33 Y:B8 P:A5 SP:F9 PPU: 57, 30
F7B7  A9 FF     LDA #$FF                        A:AA X:33 Y:B8 P:A4 SP:F9 PPU: 57, 36
F7B9  85 01     STA $01 = FF                    A:FF X:33 Y:B8 P:A4 SP:F9 PPU: 57, 42
F7BB  24 01     BIT $01 = FF                    A:FF X:33 Y:B8 P:A4 SP:F9 PPU: 57, 51
F7BD  A9 55     LDA #$55                        A:FF X:33 Y:B8 P:E4 SP:F9 PPU: 57, 60
F7BF  60        RTS                             A:55 X:33 Y:B8 P:64 SP:F9 PPU: 57, 66
D5FF  0D 78 06  ORA $0678 = AA                  A:55 X:33 Y:B8 P:64 SP:FB PPU: 57, 84
D602  20 C0 F7  JSR $F7C0                       A:FF X:33 Y:B8 P:E4 SP:FB PPU: 57, 96
F7C0  B0 09     BCS $F7CB                       A:FF X:33 Y:B8 P:E4 SP:F9 PPU: 57,114
F7C2  10 07     BPL $F7CB                       A:FF X:33 Y:B8 P:E4 SP:F9 PPU: 57,120
F7C4  C9 FF     CMP #$FF                        A:FF X:33 Y:B8 P:E4 SP:F9 PPU: 57,126
F7C6  D0 03     BNE $F7CB                       A:FF X:33 Y:B8 P:67 SP:F9 PPU: 57,132
F7C8  50 01     BVC $F7CB                       A:FF X:33 Y:B8 P:67 SP:F9 PPU: 57,138
F7CA  60        RTS                             A:FF X:33 Y:B8 P:67 SP:F9 PPU: 57,144
D605  C8        INY                             A:FF X:33 Y:B8 P:67 SP:FB PPU: 57,162
D606  A9 00     LDA #$00                        A:FF X:33 Y:B9 P:E5 SP:FB PPU: 57,168
D608  8D 78 06  STA $0678 = AA                  A:00 X:33 Y:B9 P:67 SP:FB PPU: 57,174
D60B  20 CE F7  JSR $F7CE                       A:00 X:33 Y:B9 P:67 SP:FB PPU: 57,186
F7CE  38        SEC                             A:00 X:33 Y:B9 P:67 SP:F9 PPU: 57,204
F7CF  B8        CLV                             A:00 X:33 Y:B9 P:67 SP:F9 PPU: 57,210
F7D0  A9 00     LDA #$00                        A:00 X:33 Y:B9 P:27 SP:F9 PPU: 57,216
F7D2  60        RTS                             A:00 X:33 Y:B9 P:27 SP:F9 PPU: 57,222
D60E  0D 78 06  ORA $0678 = 00                  A:00 X:33 Y:B9 P:27 SP:FB PPU: 57,240
D611  20 D3 F7  JSR $F7D3                       A:00 X:33 Y:B9 P:27 SP:FB PPU: 57,252
F7D3  D0 07     BNE $F7DC                       A:00 X:33 Y:B9 P:27 SP:F9 PPU: 57,270
F7D5  70 05     BVS $F7DC                       A:00 X:33 Y:B9 P:27 SP:F9 PPU: 57,276
F7D7  90 03     BCC $F7DC                       A:00 X:33 Y:B9 P:27 SP:F9 PPU: 57,282
F7D9  30 01     BMI $F7DC                       A:00 X:33 Y:B9 P:27 SP:F9 PPU: 57,288
F7DB  60        RTS                             A:00 X:33 Y:B9 P:27 SP:F9 PPU: 57,294
D614  C8        INY                             A:00 X:33 Y:B9 P:27 SP:FB PPU: 57,312
D615  A9 AA     LDA #$AA                        A:00 X:33 Y:BA P:A5 SP:FB PPU: 57,318
D617  8D 78 06  STA $0678 = 00                  A:AA X:33 Y:BA P:A5 SP:FB PPU: 57,324
D61A  20 DF F7  JSR $F7DF                       A:AA X:33 Y:BA P:A5 SP:FB PPU: 57,336
F7DF  18        CLC                             A:AA X:33 Y:BA P:A5 SP:F9 PPU: 58, 13
F7E0  24 01     BIT $01 = FF                    A:AA X:33 Y:BA P:A4 SP:F9 PPU: 58, 19
F7E2  A9 55     LDA #$55                        A:AA X:33 Y:BA P:E4 SP:F9 PPU: 58, 28
F7E4  60        RTS                             A:55 X:33 Y:BA P:64 SP:F9 PPU: 58, 34
D61D  2D 78 06  AND $0678 = AA                  A:55 X:33 Y:BA P:64 SP:FB PPU: 58, 52
D620  20 E5 F7  JSR $F7E5                       A:00 X:33 Y:BA P:66 SP:FB PPU: 58, 64
F7E5  D0 07     BNE $F7EE                       A:00 X:33 Y:BA P:66 SP:F9 PPU: 58, 82
F7E7  50 05     BVC $F7EE                       A:00 X:33 Y:BA P:66 SP:F9 PPU: 58, 88
F7E9  B0 03     BCS $F7EE                       A:00 X:33 Y:BA P:66 SP:F9 PPU: 58, 94
F7EB  30 01     BMI $F7EE                       A:00 X:33 Y:BA P:66 SP:F9 PPU: 58,100
F7ED  60        RTS                             A:00 X:33 Y:BA P:66 SP:F9 PPU: 58,106
D623  C8        INY                             A:00 X:33 Y:BA P:66 SP:FB PPU: 58,124
D624  A9 EF     LDA #$EF                        A:00 X:33 Y:BB P:E4 SP:FB PPU: 58,130
D626  8D 78 06  STA $0678 = AA                  A:EF X:33 Y:BB P:E4 SP:FB PPU: 58,136
D629  20 F1 F7  JSR $F7F1                       A:EF X:33 Y:BB P:E4 SP:FB PPU: 58,148
F7F1  38        SEC                             A:EF X:33 Y:BB P:E4 SP:F9 PPU: 58,166
F7F2  B8        CLV                             A:EF X:33 Y:BB P:E5 SP:F9 PPU: 58,172
F7F3  A9 F8     LDA #$F8                        A:EF X:33 Y:BB P:A5 SP:F9 PPU: 58,178
F7F5  60        RTS                             A:F8 X:33 Y:BB P:A5 SP:F9 PPU: 58,184
D62C  2D 78 06  AND $0678 = EF                  A:F8 X:33 Y:BB P:A5 SP:FB PPU: 58,202
D62F  20 F6 F7  JSR $F7F6                       A:E8 X:33 Y:BB P:A5 SP:FB PPU: 58,214
F7F6  90 09     BCC $F801                       A:E8 X:33 Y:BB P:A5 SP:F9 PPU: 58,232
F7F8  10 07     BPL $F801                       A:E8 X:33 Y:BB P:A5 SP:F9 PPU: 58,238
F7FA  C9 E8     CMP #$E8                        A:E8 X:33 Y:BB P:A5 SP:F9 PPU: 58,244
F7FC  D0 03     BNE $F801                       A:E8 X:33 Y:BB P:27 SP:F9 PPU: 58,250
F7FE  70 01     BVS $F801                       A:E8 X:33 Y:BB P:27 SP:F9 PPU: 58,256
F800  60        RTS                             A:E8 X:33 Y:BB P:27 SP:F9 PPU: 58,262
D632  C8        INY                             A:E8 X:33 Y:BB P:27 SP:FB PPU: 58,280
D633  A9 AA     LDA #$AA                        A:E8 X:33 Y:BC P:A5 SP:FB PPU: 58,286
D635  8D 78 06  STA $0678 = EF                  A:AA X:33 Y:BC P:A5 SP:FB PPU: 58,292
D638  20 04 F8  JSR $F804                       A:AA X:33 Y:BC P:A5 SP:FB PPU: 58,304
F804  18        CLC                             A:AA X:33 Y:BC P:A5 SP:F9 PPU: 58,322
F805  24 01     BIT $01 = FF                    A:AA X:33 Y:BC P:A4 SP:F9 PPU: 58,328
F807  A9 5F     LDA #$5F                        A:AA X:33 Y:BC P:E4 SP:F9 PPU: 58,337
F809  60        RTS                             A:5F X:33 Y:BC P:64 SP:F9 PPU: 59,  2
D63B  4D 78 06  EOR $0678 = AA                  A:5F X:33 Y:BC P:64 SP:FB PPU: 59, 20
D63E  20 0A F8  JSR $F80A                       A:F5 X:33 Y:BC P:E4 SP:FB PPU: 59, 32
F80A  B0 09     BCS $F815                       A:F5 X:33 Y:BC P:E4 SP:F9 PPU: 59, 50
F80C  10 07     BPL $F815                       A:F5 X:33 Y:BC P:E4 SP:F9 PPU: 59, 56
F80E  C9 F5     CMP #$F5                        A:F5 X:33 Y:BC P:E4 SP:F9 PPU: 59, 62
F810  D0 03     BNE $F815                       A:F5 X:33 Y:BC P:67 SP:F9 PPU: 59, 68
F812  50 01     BVC $F815                       A:F5 X:33 Y:BC P:67 SP:F9 PPU: 59, 74
F814  60        RTS                             A:F5 X:33 Y:BC P:67 SP:F9 PPU: 59, 80
D641  C8        INY                             A:F5 X:33 Y:BC P:67 SP:FB PPU: 59, 98
D642  A9 70     LDA #$70                        A:F5 X:33 Y:BD P:E5 SP:FB PPU: 59,104
D644  8D 78 06  STA $0678 = AA                  A:70 X:33 Y:BD P:65 SP:FB PPU: 59,110
D647  20 18 F8  JSR $F818                       A:70 X:33 Y:BD P:65 SP:FB PPU: 59,122
F818  38        SEC                             A:70 X:33 Y:BD P:65 SP:F9 PPU: 59,140
F819  B8        CLV                             A:70 X:33 Y:BD P:65 SP:F9 PPU: 59,146
F81A  A9 70     LDA #$70                        A:70 X:33 Y:BD P:25 SP:F9 PPU: 59,152
F81C  60        RTS                             A:70 X:33 Y:BD P:25 SP:F9 PPU: 59,158
D64A  4D 78 06  EOR $0678 = 70                  A:70 X:33 Y:BD P:25 SP:FB PPU: 59,176
D64D  20 1D F8  JSR $F81D                       A:00 X:33 Y:BD P:27 SP:FB PPU: 59,188
F81D  D0 07     BNE $F826                       A:00 X:33 Y:BD P:27 SP:F9 PPU: 59,206
F81F  70 05     BVS $F826                       A:00 X:33 Y:BD P:27 SP:F9 PPU: 59,212
F821  90 03     BCC $F826                       A:00 X:33 Y:BD P:27 SP:F9 PPU: 59,218
F823  30 01     BMI $F826                       A:00 X:33 Y:BD P:27 SP:F9 PPU: 59,224
F825  60        RTS                             A:00 X:33 Y:BD P:27 SP:F9 PPU: 59,230
D650  C8        INY                             A:00 X:33 Y:BD P:27 SP:FB PPU: 59,248
D651  A9 69     LDA #$69                        A:00 X:33 Y:BE P:A5 SP:FB PPU: 59,254
D653  8D 78 06  STA $0678 = 70                  A:69 X:33 Y:BE P:25 SP:FB PPU: 59,260
D656  20 29 F8  JSR $F829                       A:69 X:33 Y:BE P:25 SP:FB PPU: 59,272
F829  18        CLC                             A:69 X:33 Y:BE P:25 SP:F9 PPU: 59,290
F82A  24 01     BIT $01 = FF                    A:69 X:33 Y:BE P:24 SP:F9 PPU: 59,296
F82C  A9 00     LDA #$00                        A:69 X:33 Y:BE P:E4 SP:F9 PPU: 59,305
F82E  60        RTS                             A:00 X:33 Y:BE P:66 SP:F9 PPU: 59,311
D659  6D 78 06  ADC $0678 = 69                  A:00 X:33 Y:BE P:66 SP:FB PPU: 59,329
D65C  20 2F F8  JSR $F82F                       A:69 X:33 Y:BE P:24 SP:FB PPU: 60,  0
F82F  30 09     BMI $F83A                       A:69 X:33 Y:BE P:24 SP:F9 PPU: 60, 18
F831  B0 07     BCS $F83A                       A:69 X:33 Y:BE P:24 SP:F9 PPU: 60, 24
F833  C9 69     CMP #$69                        A:69 X:33 Y:BE P:24 SP:F9 PPU: 60, 30
F835  D0 03     BNE $F83A                       A:69 X:33 Y:BE P:27 SP:F9 PPU: 60, 36
F837  70 01     BVS $F83A                       A:69 X:33 Y:BE P:27 SP:F9 PPU: 60, 42
F839  60        RTS                             A:69 X:33 Y:BE P:27 SP:F9 PPU: 60, 48
D65F  C8        INY                             A:69 X:33 Y:BE P:27 SP:FB PPU: 60, 66
D660  20 3D F8  JSR $F83D                       A:69 X:33 Y:BF P:A5 SP:FB PPU: 60, 72
F83D  38        SEC                             A:69 X:33 Y:BF P:A5 SP:F9 PPU: 60, 90
F83E  24 01     BIT $01 = FF                    A:69 X:33 Y:BF P:A5 SP:F9 PPU: 60, 96
F840  A9 00     LDA #$00                        A:69 X:33 Y:BF P:E5 SP:F9 PPU: 60,105
F842  60        RTS                             A:00 X:33 Y:BF P:67 SP:F9 PPU: 60,111
D663  6D 78 06  ADC $0678 = 69                  A:00 X:33 Y:BF P:67 SP:FB PPU: 60,129
D666  20 43 F8  JSR $F843                       A:6A X:33 Y:BF P:24 SP:FB PPU: 60,141
F843  30 09     BMI $F84E                       A:6A X:33 Y:BF P:24 SP:F9 PPU: 60,159
F845  B0 07     BCS $F84E                       A:6A X:33 Y:BF P:24 SP:F9 PPU: 60,165
F847  C9 6A     CMP #$6A                        A:6A X:33 Y:BF P:24 SP:F9 PPU: 60,171
F849  D0 03     BNE $F84E                       A:6A X:33 Y:BF P:27 SP:F9 PPU: 60,177
F84B  70 01     BVS $F84E                       A:6A X:33 Y:BF P:27 SP:F9 PPU: 60,183
F84D  60        RTS                             A:6A X:33 Y:BF P:27 SP:F9 PPU: 60,189
D669  C8        INY                             A:6A X:33 Y:BF P:27 SP:FB PPU: 60,207
D66A  A9 7F     LDA #$7F                        A:6A X:33 Y:C0 P:A5 SP:FB PPU: 60,213
D66C  8D 78 06  STA $0678 = 69                  A:7F X:33 Y:C0 P:25 SP:FB PPU: 60,219
D66F  20 51 F8  JSR $F851                       A:7F X:33 Y:C0 P:25 SP:FB PPU: 60,231
F851  38        SEC                             A:7F X:33 Y:C0 P:25 SP:F9 PPU: 60,249
F852  B8        CLV                             A:7F X:33 Y:C0 P:25 SP:F9 PPU: 60,255
F853  A9 7F     LDA #$7F                        A:7F X:33 Y:C0 P:25 SP:F9 PPU: 60,261
F855  60        RTS                             A:7F X:33 Y:C0 P:25 SP:F9 PPU: 60,267
D672  6D 78 06  ADC $0678 = 7F                  A:7F X:33 Y:C0 P:25 SP:FB PPU: 60,285
D675  20 56 F8  JSR $F856                       A:FF X:33 Y:C0 P:E4 SP:FB PPU: 60,297
F856  10 09     BPL $F861                       A:FF X:33 Y:C0 P:E4 SP:F9 PPU: 60,315
F858  B0 07     BCS $F861                       A:FF X:33 Y:C0 P:E4 SP:F9 PPU: 60,321
F85A  C9 FF     CMP #$FF                        A:FF X:33 Y:C0 P:E4 SP:F9 PPU: 60,327
F85C  D0 03     BNE $F861                       A:FF X:33 Y:C0 P:67 SP:F9 PPU: 60,333
F85E  50 01     BVC $F861                       A:FF X:33 Y:C0 P:67 SP:F9 PPU: 60,339
F860  60        RTS                             A:FF X:33 Y:C0 P:67 SP:F9 PPU: 61,  4
D678  C8        INY                             A:FF X:33 Y:C0 P:67 SP:FB PPU: 61, 22
D679  A9 80     LDA #$80                        A:FF X:33 Y:C1 P:E5 SP:FB PPU: 61, 28
D67B  8D 78 06  STA $0678 = 7F                  A:80 X:33 Y:C1 P:E5 SP:FB PPU: 61, 34
D67E  20 64 F8  JSR $F864                       A:80 X:33 Y:C1 P:E5 SP:FB PPU: 61, 46
F864  18        CLC                             A:80 X:33 Y:C1 P:E5 SP:F9 PPU: 61, 64
F865  24 01     BIT $01 = FF                    A:80 X:33 Y:C1 P:E4 SP:F9 PPU: 61, 70
F867  A9 7F     LDA #$7F                        A:80 X:33 Y:C1 P:E4 SP:F9 PPU: 61, 79
F869  60        RTS                             A:7F X:33 Y:C1 P:64 SP:F9 PPU: 61, 85
D681  6D 78 06  ADC $0678 = 80                  A:7F X:33 Y:C1 P:64 SP:FB PPU: 61,103
D684  20 6A F8  JSR $F86A                       A:FF X:33 Y:C1 P:A4 SP:FB PPU: 61,115
F86A  10 09     BPL $F875                       A:FF X:33 Y:C1 P:A4 SP:F9 PPU: 61,133
F86C  B0 07     BCS $F875                       A:FF X:33 Y:C1 P:A4 SP:F9 PPU: 61,139
F86E  C9 FF     CMP #$FF                        A:FF X:33 Y:C1 P:A4 SP:F9 PPU: 61,145
F870  D0 03     BNE $F875                       A:FF X:33 Y:C1 P:27 SP:F9 PPU: 61,151
F872  70 01     BVS $F875                       A:FF X:33 Y:C1 P:27 SP:F9 PPU: 61,157
F874  60        RTS                             A:FF X:33 Y:C1 P:27 SP:F9 PPU: 61,163
D687  C8        INY                             A:FF X:33 Y:C1 P:27 SP:FB PPU: 61,181
D688  20 78 F8  JSR $F878                       A:FF X:33 Y:C2 P:A5 SP:FB PPU: 61,187
F878  38        SEC                             A:FF X:33 Y:C2 P:A5 SP:F9 PPU: 61,205
F879  B8        CLV                             A:FF X:33 Y:C2 P:A5 SP:F9 PPU: 61,211
F87A  A9 7F     LDA #$7F                        A:FF X:33 Y:C2 P:A5 SP:F9 PPU: 61,217
F87C  60        RTS                             A:7F X:33 Y:C2 P:25 SP:F9 PPU: 61,223
D68B  6D 78 06  ADC $0678 = 80                  A:7F X:33 Y:C2 P:25 SP:FB PPU: 61,241
D68E  20 7D F8  JSR $F87D                       A:00 X:33 Y:C2 P:27 SP:FB PPU: 61,253
F87D  D0 07     BNE $F886                       A:00 X:33 Y:C2 P:27 SP:F9 PPU: 61,271
F87F  30 05     BMI $F886                       A:00 X:33 Y:C2 P:27 SP:F9 PPU: 61,277
F881  70 03     BVS $F886                       A:00 X:33 Y:C2 P:27 SP:F9 PPU: 61,283
F883  90 01     BCC $F886                       A:00 X:33 Y:C2 P:27 SP:F9 PPU: 61,289
F885  60        RTS                             A:00 X:33 Y:C2 P:27 SP:F9 PPU: 61,295
D691  C8        INY                             A:00 X:33 Y:C2 P:27 SP:FB PPU: 61,313
D692  A9 40     LDA #$40                        A:00 X:33 Y:C3 P:A5 SP:FB PPU: 61,319
D694  8D 78 06  STA $0678 = 80                  A:40 X:33 Y:C3 P:25 SP:FB PPU: 61,325
D697  20 89 F8  JSR $F889                       A:40 X:33 Y:C3 P:25 SP:FB PPU: 61,337
F889  24 01     BIT $01 = FF                    A:40 X:33 Y:C3 P:25 SP:F9 PPU: 62, 14
F88B  A9 40     LDA #$40                        A:40 X:33 Y:C3 P:E5 SP:F9 PPU: 62, 23
F88D  60        RTS                             A:40 X:33 Y:C3 P:65 SP:F9 PPU: 62, 29
D69A  CD 78 06  CMP $0678 = 40                  A:40 X:33 Y:C3 P:65 SP:FB PPU: 62, 47
D69D  20 8E F8  JSR $F88E                       A:40 X:33 Y:C3 P:67 SP:FB PPU: 62, 59
F88E  30 07     BMI $F897                       A:40 X:33 Y:C3 P:67 SP:F9 PPU: 62, 77
F890  90 05     BCC $F897                       A:40 X:33 Y:C3 P:67 SP:F9 PPU: 62, 83
F892  D0 03     BNE $F897                       A:40 X:33 Y:C3 P:67 SP:F9 PPU: 62, 89
F894  50 01     BVC $F897                       A:40 X:33 Y:C3 P:67 SP:F9 PPU: 62, 95
F896  60        RTS                             A:40 X:33 Y:C3 P:67 SP:F9 PPU: 62,101
D6A0  C8        INY                             A:40 X:33 Y:C3 P:67 SP:FB PPU: 62,119
D6A1  48        PHA                             A:40 X:33 Y:C4 P:E5 SP:FB PPU: 62,125
D6A2  A9 3F     LDA #$3F                        A:40 X:33 Y:C4 P:E5 SP:FA PPU: 62,134
D6A4  8D 78 06  STA $0678 = 40                  A:3F X:33 Y:C4 P:65 SP:FA PPU: 62,140
D6A7  68        PLA                             A:3F X:33 Y:C4 P:65 SP:FA PPU: 62,152
D6A8  20 9A F8  JSR $F89A                       A:40 X:33 Y:C4 P:65 SP:FB PPU: 62,164
F89A  B8        CLV                             A:40 X:33 Y:C4 P:65 SP:F9 PPU: 62,182
F89B  60        RTS                             A:40 X:33 Y:C4 P:25 SP:F9 PPU: 62,188
D6AB  CD 78 06  CMP $0678 = 3F                  A:40 X:33 Y:C4 P:25 SP:FB PPU: 62,206
D6AE  20 9C F8  JSR $F89C                       A:40 X:33 Y:C4 P:25 SP:FB PPU: 62,218
F89C  F0 07     BEQ $F8A5                       A:40 X:33 Y:C4 P:25 SP:F9 PPU: 62,236
F89E  30 05     BMI $F8A5                       A:40 X:33 Y:C4 P:25 SP:F9 PPU: 62,242
F8A0  90 03     BCC $F8A5                       A:40 X:33 Y:C4 P:25 SP:F9 PPU: 62,248
F8A2  70 01     BVS $F8A5                       A:40 X:33 Y:C4 P:25 SP:F9 PPU: 62,254
F8A4  60        RTS                             A:40 X:33 Y:C4 P:25 SP:F9 PPU: 62,260
D6B1  C8        INY                             A:40 X:33 Y:C4 P:25 SP:FB PPU: 62,278
D6B2  48        PHA                             A:40 X:33 Y:C5 P:A5 SP:FB PPU: 62,284
D6B3  A9 41     LDA #$41                        A:40 X:33 Y:C5 P:A5 SP:FA PPU: 62,293
D6B5  8D 78 06  STA $0678 = 3F                  A:41 X:33 Y:C5 P:25 SP:FA PPU: 62,299
D6B8  68        PLA                             A:41 X:33 Y:C5 P:25 SP:FA PPU: 62,311
D6B9  CD 78 06  CMP $0678 = 41                  A:40 X:33 Y:C5 P:25 SP:FB PPU: 62,323
D6BC  20 A8 F8  JSR $F8A8                       A:40 X:33 Y:C5 P:A4 SP:FB PPU: 62,335
F8A8  F0 05     BEQ $F8AF                       A:40 X:33 Y:C5 P:A4 SP:F9 PPU: 63, 12
F8AA  10 03     BPL $F8AF                       A:40 X:33 Y:C5 P:A4 SP:F9 PPU: 63, 18
F8AC  10 01     BPL $F8AF                       A:40 X:33 Y:C5 P:A4 SP:F9 PPU: 63, 24
F8AE  60        RTS                             A:40 X:33 Y:C5 P:A4 SP:F9 PPU: 63, 30
D6BF  C8        INY                             A:40 X:33 Y:C5 P:A4 SP:FB PPU: 63, 48
D6C0  48        PHA                             A:40 X:33 Y:C6 P:A4 SP:FB PPU: 63, 54
D6C1  A9 00     LDA #$00                        A:40 X:33 Y:C6 P:A4 SP:FA PPU: 63, 63
D6C3  8D 78 06  STA $0678 = 41                  A:00 X:33 Y:C6 P:26 SP:FA PPU: 63, 69
D6C6  68        PLA                             A:00 X:33 Y:C6 P:26 SP:FA PPU: 63, 81
D6C7  20 B2 F8  JSR $F8B2                       A:40 X:33 Y:C6 P:24 SP:FB PPU: 63, 93
F8B2  A9 80     LDA #$80                        A:40 X:33 Y:C6 P:24 SP:F9 PPU: 63,111
F8B4  60        RTS                             A:80 X:33 Y:C6 P:A4 SP:F9 PPU: 63,117
D6CA  CD 78 06  CMP $0678 = 00                  A:80 X:33 Y:C6 P:A4 SP:FB PPU: 63,135
D6CD  20 B5 F8  JSR $F8B5                       A:80 X:33 Y:C6 P:A5 SP:FB PPU: 63,147
F8B5  F0 05     BEQ $F8BC                       A:80 X:33 Y:C6 P:A5 SP:F9 PPU: 63,165
F8B7  10 03     BPL $F8BC                       A:80 X:33 Y:C6 P:A5 SP:F9 PPU: 63,171
F8B9  90 01     BCC $F8BC                       A:80 X:33 Y:C6 P:A5 SP:F9 PPU: 63,177
F8BB  60        RTS                             A:80 X:33 Y:C6 P:A5 SP:F9 PPU: 63,183
D6D0  C8        INY                             A:80 X:33 Y:C6 P:A5 SP:FB PPU: 63,201
D6D1  48        PHA                             A:80 X:33 Y:C7 P:A5 SP:FB PPU: 63,207
D6D2  A9 80     LDA #$80                        A:80 X:33 Y:C7 P:A5 SP:FA PPU: 63,216
D6D4  8D 78 06  STA $0678 = 00                  A:80 X:33 Y:C7 P:A5 SP:FA PPU: 63,222
D6D7  68        PLA                             A:80 X:33 Y:C7 P:A5 SP:FA PPU: 63,234
D6D8  CD 78 06  CMP $0678 = 80                  A:80 X:33 Y:C7 P:A5 SP:FB PPU: 63,246
D6DB  20 BF F8  JSR $F8BF                       A:80 X:33 Y:C7 P:27 SP:FB PPU: 63,258
F8BF  D0 05     BNE $F8C6                       A:80 X:33 Y:C7 P:27 SP:F9 PPU: 63,276
F8C1  30 03     BMI $F8C6                       A:80 X:33 Y:C7 P:27 SP:F9 PPU: 63,282
F8C3  90 01     BCC $F8C6                       A:80 X:33 Y:C7 P:27 SP:F9 PPU: 63,288
F8C5  60        RTS                             A:80 X:33 Y:C7 P:27 SP:F9 PPU: 63,294
D6DE  C8        INY                             A:80 X:33 Y:C7 P:27 SP:FB PPU: 63,312
D6DF  48        PHA                             A:80 X:33 Y:C8 P:A5 SP:FB PPU: 63,318
D6E0  A9 81     LDA #$81                        A:80 X:33 Y:C8 P:A5 SP:FA PPU: 63,327
D6E2  8D 78 06  STA $0678 = 80                  A:81 X:33 Y:C8 P:A5 SP:FA PPU: 63,333
D6E5  68        PLA                             A:81 X:33 Y:C8 P:A5 SP:FA PPU: 64,  4
D6E6  CD 78 06  CMP $0678 = 81                  A:80 X:33 Y:C8 P:A5 SP:FB PPU: 64, 16
D6E9  20 C9 F8  JSR $F8C9                       A:80 X:33 Y:C8 P:A4 SP:FB PPU: 64, 28
F8C9  B0 05     BCS $F8D0                       A:80 X:33 Y:C8 P:A4 SP:F9 PPU: 64, 46
F8CB  F0 03     BEQ $F8D0                       A:80 X:33 Y:C8 P:A4 SP:F9 PPU: 64, 52
F8CD  10 01     BPL $F8D0                       A:80 X:33 Y:C8 P:A4 SP:F9 PPU: 64, 58
F8CF  60        RTS                             A:80 X:33 Y:C8 P:A4 SP:F9 PPU: 64, 64
D6EC  C8        INY                             A:80 X:33 Y:C8 P:A4 SP:FB PPU: 64, 82
D6ED  48        PHA                             A:80 X:33 Y:C9 P:A4 SP:FB PPU: 64, 88
D6EE  A9 7F     LDA #$7F                        A:80 X:33 Y:C9 P:A4 SP:FA PPU: 64, 97
D6F0  8D 78 06  STA $0678 = 81                  A:7F X:33 Y:C9 P:24 SP:FA PPU: 64,103
D6F3  68        PLA                             A:7F X:33 Y:C9 P:24 SP:FA PPU: 64,115
D6F4  CD 78 06  CMP $0678 = 7F                  A:80 X:33 Y:C9 P:A4 SP:FB PPU: 64,127
D6F7  20 D3 F8  JSR $F8D3                       A:80 X:33 Y:C9 P:25 SP:FB PPU: 64,139
F8D3  90 05     BCC $F8DA                       A:80 X:33 Y:C9 P:25 SP:F9 PPU: 64,157
F8D5  F0 03     BEQ $F8DA                       A:80 X:33 Y:C9 P:25 SP:F9 PPU: 64,163
F8D7  30 01     BMI $F8DA                       A:80 X:33 Y:C9 P:25 SP:F9 PPU: 64,169
F8D9  60        RTS                             A:80 X:33 Y:C9 P:25 SP:F9 PPU: 64,175
D6FA  C8        INY                             A:80 X:33 Y:C9 P:25 SP:FB PPU: 64,193
D6FB  A9 40     LDA #$40                        A:80 X:33 Y:CA P:A5 SP:FB PPU: 64,199
D6FD  8D 78 06  STA $0678 = 7F                  A:40 X:33 Y:CA P:25 SP:FB PPU: 64,205
D700  20 31 F9  JSR $F931                       A:40 X:33 Y:CA P:25 SP:FB PPU: 64,217
F931  24 01     BIT $01 = FF                    A:40 X:33 Y:CA P:25 SP:F9 PPU: 64,235
F933  A9 40     LDA #$40                        A:40 X:33 Y:CA P:E5 SP:F9 PPU: 64,244
F935  38        SEC                             A:40 X:33 Y:CA P:65 SP:F9 PPU: 64,250
F936  60        RTS                             A:40 X:33 Y:CA P:65 SP:F9 PPU: 64,256
D703  ED 78 06  SBC $0678 = 40                  A:40 X:33 Y:CA P:65 SP:FB PPU: 64,274
D706  20 37 F9  JSR $F937                       A:00 X:33 Y:CA P:27 SP:FB PPU: 64,286
F937  30 0B     BMI $F944                       A:00 X:33 Y:CA P:27 SP:F9 PPU: 64,304
F939  90 09     BCC $F944                       A:00 X:33 Y:CA P:27 SP:F9 PPU: 64,310
F93B  D0 07     BNE $F944                       A:00 X:33 Y:CA P:27 SP:F9 PPU: 64,316
F93D  70 05     BVS $F944                       A:00 X:33 Y:CA P:27 SP:F9 PPU: 64,322
F93F  C9 00     CMP #$00                        A:00 X:33 Y:CA P:27 SP:F9 PPU: 64,328
F941  D0 01     BNE $F944                       A:00 X:33 Y:CA P:27 SP:F9 PPU: 64,334
F943  60        RTS                             A:00 X:33 Y:CA P:27 SP:F9 PPU: 64,340
D709  C8        INY                             A:00 X:33 Y:CA P:27 SP:FB PPU: 65, 17
D70A  A9 3F     LDA #$3F                        A:00 X:33 Y:CB P:A5 SP:FB PPU: 65, 23
D70C  8D 78 06  STA $0678 = 40                  A:3F X:33 Y:CB P:25 SP:FB PPU: 65, 29
D70F  20 47 F9  JSR $F947                       A:3F X:33 Y:CB P:25 SP:FB PPU: 65, 41
F947  B8        CLV                             A:3F X:33 Y:CB P:25 SP:F9 PPU: 65, 59
F948  38        SEC                             A:3F X:33 Y:CB P:25 SP:F9 PPU: 65, 65
F949  A9 40     LDA #$40                        A:3F X:33 Y:CB P:25 SP:F9 PPU: 65, 71
F94B  60        RTS                             A:40 X:33 Y:CB P:25 SP:F9 PPU: 65, 77
D712  ED 78 06  SBC $0678 = 3F                  A:40 X:33 Y:CB P:25 SP:FB PPU: 65, 95
D715  20 4C F9  JSR $F94C                       A:01 X:33 Y:CB P:25 SP:FB PPU: 65,107
F94C  F0 0B     BEQ $F959                       A:01 X:33 Y:CB P:25 SP:F9 PPU: 65,125
F94E  30 09     BMI $F959                       A:01 X:33 Y:CB P:25 SP:F9 PPU: 65,131
F950  90 07     BCC $F959                       A:01 X:33 Y:CB P:25 SP:F9 PPU: 65,137
F952  70 05     BVS $F959                       A:01 X:33 Y:CB P:25 SP:F9 PPU: 65,143
F954  C9 01     CMP #$01                        A:01 X:33 Y:CB P:25 SP:F9 PPU: 65,149
F956  D0 01     BNE $F959                       A:01 X:33 Y:CB P:27 SP:F9 PPU: 65,155
F958  60        RTS                             A:01 X:33 Y:CB P:27 SP:F9 PPU: 65,161
D718  C8        INY                             A:01 X:33 Y:CB P:27 SP:FB PPU: 65,179
D719  A9 41     LDA #$41                        A:01 X:33 Y:CC P:A5 SP:FB PPU: 65,185
D71B  8D 78 06  STA $0678 = 3F                  A:41 X:33 Y:CC P:25 SP:FB PPU: 65,191
D71E  20 5C F9  JSR $F95C                       A:41 X:33 Y:CC P:25 SP:FB PPU: 65,203
F95C  A9 40     LDA #$40                        A:41 X:33 Y:CC P:25 SP:F9 PPU: 65,221
F95E  38        SEC                             A:40 X:33 Y:CC P:25 SP:F9 PPU: 65,227
F95F  24 01     BIT $01 = FF                    A:40 X:33 Y:CC P:25 SP:F9 PPU: 65,233
F961  60        RTS                             A:40 X:33 Y:CC P:E5 SP:F9 PPU: 65,242
D721  ED 78 06  SBC $0678 = 41                  A:40 X:33 Y:CC P:E5 SP:FB PPU: 65,260
D724  20 62 F9  JSR $F962                       A:FF X:33 Y:CC P:A4 SP:FB PPU: 65,272
F962  B0 0B     BCS $F96F                       A:FF X:33 Y:CC P:A4 SP:F9 PPU: 65,290
F964  F0 09     BEQ $F96F                       A:FF X:33 Y:CC P:A4 SP:F9 PPU: 65,296
F966  10 07     BPL $F96F                       A:FF X:33 Y:CC P:A4 SP:F9 PPU: 65,302
F968  70 05     BVS $F96F                       A:FF X:33 Y:CC P:A4 SP:F9 PPU: 65,308
F96A  C9 FF     CMP #$FF                        A:FF X:33 Y:CC P:A4 SP:F9 PPU: 65,314
F96C  D0 01     BNE $F96F                       A:FF X:33 Y:CC P:27 SP:F9 PPU: 65,320
F96E  60        RTS                             A:FF X:33 Y:CC P:27 SP:F9 PPU: 65,326
D727  C8        INY                             A:FF X:33 Y:CC P:27 SP:FB PPU: 66,  3
D728  A9 00     LDA #$00                        A:FF X:33 Y:CD P:A5 SP:FB PPU: 66,  9
D72A  8D 78 06  STA $0678 = 41                  A:00 X:33 Y:CD P:27 SP:FB PPU: 66, 15
D72D  20 72 F9  JSR $F972                       A:00 X:33 Y:CD P:27 SP:FB PPU: 66, 27
F972  18        CLC                             A:00 X:33 Y:CD P:27 SP:F9 PPU: 66, 45
F973  A9 80     LDA #$80                        A:00 X:33 Y:CD P:26 SP:F9 PPU: 66, 51
F975  60        RTS                             A:80 X:33 Y:CD P:A4 SP:F9 PPU: 66, 57
D730  ED 78 06  SBC $0678 = 00                  A:80 X:33 Y:CD P:A4 SP:FB PPU: 66, 75
D733  20 76 F9  JSR $F976                       A:7F X:33 Y:CD P:65 SP:FB PPU: 66, 87
F976  90 05     BCC $F97D                       A:7F X:33 Y:CD P:65 SP:F9 PPU: 66,105
F978  C9 7F     CMP #$7F                        A:7F X:33 Y:CD P:65 SP:F9 PPU: 66,111
F97A  D0 01     BNE $F97D                       A:7F X:33 Y:CD P:67 SP:F9 PPU: 66,117
F97C  60        RTS                             A:7F X:33 Y:CD P:67 SP:F9 PPU: 66,123
D736  C8        INY                             A:7F X:33 Y:CD P:67 SP:FB PPU: 66,141
D737  A9 7F     LDA #$7F                        A:7F X:33 Y:CE P:E5 SP:FB PPU: 66,147
D739  8D 78 06  STA $0678 = 00                  A:7F X:33 Y:CE P:65 SP:FB PPU: 66,153
D73C  20 80 F9  JSR $F980                       A:7F X:33 Y:CE P:65 SP:FB PPU: 66,165
F980  38        SEC                             A:7F X:33 Y:CE P:65 SP:F9 PPU: 66,183
F981  A9 81     LDA #$81                        A:7F X:33 Y:CE P:65 SP:F9 PPU: 66,189
F983  60        RTS                             A:81 X:33 Y:CE P:E5 SP:F9 PPU: 66,195
D73F  ED 78 06  SBC $0678 = 7F                  A:81 X:33 Y:CE P:E5 SP:FB PPU: 66,213
D742  20 84 F9  JSR $F984                       A:02 X:33 Y:CE P:65 SP:FB PPU: 66,225
F984  50 07     BVC $F98D                       A:02 X:33 Y:CE P:65 SP:F9 PPU: 66,243
F986  90 05     BCC $F98D                       A:02 X:33 Y:CE P:65 SP:F9 PPU: 66,249
F988  C9 02     CMP #$02                        A:02 X:33 Y:CE P:65 SP:F9 PPU: 66,255
F98A  D0 01     BNE $F98D                       A:02 X:33 Y:CE P:67 SP:F9 PPU: 66,261
F98C  60        RTS                             A:02 X:33 Y:CE P:67 SP:F9 PPU: 66,267
D745  C8        INY                             A:02 X:33 Y:CE P:67 SP:FB PPU: 66,285
D746  A9 40     LDA #$40                        A:02 X:33 Y:CF P:E5 SP:FB PPU: 66,291
D748  8D 78 06  STA $0678 = 7F                  A:40 X:33 Y:CF P:65 SP:FB PPU: 66,297
D74B  20 89 F8  JSR $F889                       A:40 X:33 Y:CF P:65 SP:FB PPU: 66,309
F889  24 01     BIT $01 = FF                    A:40 X:33 Y:CF P:65 SP:F9 PPU: 66,327
F88B  A9 40     LDA #$40                        A:40 X:33 Y:CF P:E5 SP:F9 PPU: 66,336
F88D  60        RTS                             A:40 X:33 Y:CF P:65 SP:F9 PPU: 67,  1
D74E  AA        TAX                             A:40 X:33 Y:CF P:65 SP:FB PPU: 67, 19
D74F  EC 78 06  CPX $0678 = 40                  A:40 X:40 Y:CF P:65 SP:FB PPU: 67, 25
D752  20 8E F8  JSR $F88E                       A:40 X:40 Y:CF P:67 SP:FB PPU: 67, 37
F88E  30 07     BMI $F897                       A:40 X:40 Y:CF P:67 SP:F9 PPU: 67, 55
F890  90 05     BCC $F897                       A:40 X:40 Y:CF P:67 SP:F9 PPU: 67, 61
F892  D0 03     BNE $F897                       A:40 X:40 Y:CF P:67 SP:F9 PPU: 67, 67
F894  50 01     BVC $F897                       A:40 X:40 Y:CF P:67 SP:F9 PPU: 67, 73
F896  60        RTS                             A:40 X:40 Y:CF P:67 SP:F9 PPU: 67, 79
D755  C8        INY                             A:40 X:40 Y:CF P:67 SP:FB PPU: 67, 97
D756  A9 3F     LDA #$3F                        A:40 X:40 Y:D0 P:E5 SP:FB PPU: 67,103
D758  8D 78 06  STA $0678 = 40                  A:3F X:40 Y:D0 P:65 SP:FB PPU: 67,109
D75B  20 9A F8  JSR $F89A                       A:3F X:40 Y:D0 P:65 SP:FB PPU: 67,121
F89A  B8        CLV                             A:3F X:40 Y:D0 P:65 SP:F9 PPU: 67,139
F89B  60        RTS                             A:3F X:40 Y:D0 P:25 SP:F9 PPU: 67,145
D75E  EC 78 06  CPX $0678 = 3F                  A:3F X:40 Y:D0 P:25 SP:FB PPU: 67,163
D761  20 9C F8  JSR $F89C                       A:3F X:40 Y:D0 P:25 SP:FB PPU: 67,175
F89C  F0 07     BEQ $F8A5                       A:3F X:40 Y:D0 P:25 SP:F9 PPU: 67,193
F89E  30 05     BMI $F8A5                       A:3F X:40 Y:D0 P:25 SP:F9 PPU: 67,199
F8A0  90 03     BCC $F8A5                       A:3F X:40 Y:D0 P:25 SP:F9 PPU: 67,205
F8A2  70 01     BVS $F8A5                       A:3F X:40 Y:D0 P:25 SP:F9 PPU: 67,211
F8A4  60        RTS                             A:3F X:40 Y:D0 P:25 SP:F9 PPU: 67,217
D764  C8        INY                             A:3F X:40 Y:D0 P:25 SP:FB PPU: 67,235
D765  A9 41     LDA #$41                        A:3F X:40 Y:D1 P:A5 SP:FB PPU: 67,241
D767  8D 78 06  STA $0678 = 3F                  A:41 X:40 Y:D1 P:25 SP:FB PPU: 67,247
D76A  EC 78 06  CPX $0678 = 41                  A:41 X:40 Y:D1 P:25 SP:FB PPU: 67,259
D76D  20 A8 F8  JSR $F8A8                       A:41 X:40 Y:D1 P:A4 SP:FB PPU: 67,271
F8A8  F0 05     BEQ $F8AF                       A:41 X:40 Y:D1 P:A4 SP:F9 PPU: 67,289
F8AA  10 03     BPL $F8AF                       A:41 X:40 Y:D1 P:A4 SP:F9 PPU: 67,295
F8AC  10 01     BPL $F8AF                       A:41 X:40 Y:D1 P:A4 SP:F9 PPU: 67,301
F8AE  60        RTS                             A:41 X:40 Y:D1 P:A4 SP:F9 PPU: 67,307
D770  C8        INY                             A:41 X:40 Y:D1 P:A4 SP:FB PPU: 67,325
D771  A9 00     LDA #$00                        A:41 X:40 Y:D2 P:A4 SP:FB PPU: 67,331
D773  8D 78 06  STA $0678 = 41                  A:00 X:40 Y:D2 P:26 SP:FB PPU: 67,337
D776  20 B2 F8  JSR $F8B2                       A:00 X:40 Y:D2 P:26 SP:FB PPU: 68,  8
F8B2  A9 80     LDA #$80                        A:00 X:40 Y:D2 P:26 SP:F9 PPU: 68, 26
F8B4  60        RTS                             A:80 X:40 Y:D2 P:A4 SP:F9 PPU: 68, 32
D779  AA        TAX                             A:80 X:40 Y:D2 P:A4 SP:FB PPU: 68, 50
D77A  EC 78 06  CPX $0678 = 00                  A:80 X:80 Y:D2 P:A4 SP:FB PPU: 68, 56
D77D  20 B5 F8  JSR $F8B5                       A:80 X:80 Y:D2 P:A5 SP:FB PPU: 68, 68
F8B5  F0 05     BEQ $F8BC                       A:80 X:80 Y:D2 P:A5 SP:F9 PPU: 68, 86
F8B7  10 03     BPL $F8BC                       A:80 X:80 Y:D2 P:A5 SP:F9 PPU: 68, 92
F8B9  90 01     BCC $F8BC                       A:80 X:80 Y:D2 P:A5 SP:F9 PPU: 68, 98
F8BB  60        RTS                             A:80 X:80 Y:D2 P:A5 SP:F9 PPU: 68,104
D780  C8        INY                             A:80 X:80 Y:D2 P:A5 SP:FB PPU: 68,122
D781  A9 80     LDA #$80                        A:80 X:80 Y:D3 P:A5 SP:FB PPU: 68,128
D783  8D 78 06  STA $0678 = 00                  A:80 X:80 Y:D3 P:A5 SP:FB PPU: 68,134
D786  EC 78 06  CPX $0678 = 80                  A:80 X:80 Y:D3 P:A5 SP:FB PPU: 68,146
D789  20 BF F8  JSR $F8BF                       A:80 X:80 Y:D3 P:27 SP:FB PPU: 68,158
F8BF  D0 05     BNE $F8C6                       A:80 X:80 Y:D3 P:27 SP:F9 PPU: 68,176
F8C1  30 03     BMI $F8C6                       A:80 X:80 Y:D3 P:27 SP:F9 PPU: 68,182
F8C3  90 01     BCC $F8C6                       A:80 X:80 Y:D3 P:27 SP:F9 PPU: 68,188
F8C5  60        RTS                             A:80 X:80 Y:D3 P:27 SP:F9 PPU: 68,194
D78C  C8        INY                             A:80 X:80 Y:D3 P:27 SP:FB PPU: 68,212
D78D  A9 81     LDA #$81                        A:80 X:80 Y:D4 P:A5 SP:FB PPU: 68,218
D78F  8D 78 06  STA $0678 = 80                  A:81 X:80 Y:D4 P:A5 SP:FB PPU: 68,224
D792  EC 78 06  CPX $0678 = 81                  A:81 X:80 Y:D4 P:A5 SP:FB PPU: 68,236
D795  20 C9 F8  JSR $F8C9                       A:81 X:80 Y:D4 P:A4 SP:FB PPU: 68,248
F8C9  B0 05     BCS $F8D0                       A:81 X:80 Y:D4 P:A4 SP:F9 PPU: 68,266
F8CB  F0 03     BEQ $F8D0                       A:81 X:80 Y:D4 P:A4 SP:F9 PPU: 68,272
F8CD  10 01     BPL $F8D0                       A:81 X:80 Y:D4 P:A4 SP:F9 PPU: 68,278
F8CF  60        RTS                             A:81 X:80 Y:D4 P:A4 SP:F9 PPU: 68,284
D798  C8        INY                             A:81 X:80 Y:D4 P:A4 SP:FB PPU: 68,302
D799  A9 7F     LDA #$7F                        A:81 X:80 Y:D5 P:A4 SP:FB PPU: 68,308
D79B  8D 78 06  STA $0678 = 81                  A:7F X:80 Y:D5 P:24 SP:FB PPU: 68,314
D79E  EC 78 06  CPX $0678 = 7F                  A:7F X:80 Y:D5 P:24 SP:FB PPU: 68,326
D7A1  20 D3 F8  JSR $F8D3                       A:7F X:80 Y:D5 P:25 SP:FB PPU: 68,338
F8D3  90 05     BCC $F8DA                       A:7F X:80 Y:D5 P:25 SP:F9 PPU: 69, 15
F8D5  F0 03     BEQ $F8DA                       A:7F X:80 Y:D5 P:25 SP:F9 PPU: 69, 21
F8D7  30 01     BMI $F8DA                       A:7F X:80 Y:D5 P:25 SP:F9 PPU: 69, 27
F8D9  60        RTS                             A:7F X:80 Y:D5 P:25 SP:F9 PPU: 69, 33
D7A4  C8        INY                             A:7F X:80 Y:D5 P:25 SP:FB PPU: 69, 51
D7A5  98        TYA                             A:7F X:80 Y:D6 P:A5 SP:FB PPU: 69, 57
D7A6  AA        TAX                             A:D6 X:80 Y:D6 P:A5 SP:FB PPU: 69, 63
D7A7  A9 40     LDA #$40                        A:D6 X:D6 Y:D6 P:A5 SP:FB PPU: 69, 69
D7A9  8D 78 06  STA $0678 = 7F                  A:40 X:D6 Y:D6 P:25 SP:FB PPU: 69, 75
D7AC  20 DD F8  JSR $F8DD                       A:40 X:D6 Y:D6 P:25 SP:FB PPU: 69, 87
F8DD  24 01     BIT $01 = FF                    A:40 X:D6 Y:D6 P:25 SP:F9 PPU: 69,105
F8DF  A0 40     LDY #$40                        A:40 X:D6 Y:D6 P:E5 SP:F9 PPU: 69,114
F8E1  60        RTS                             A:40 X:D6 Y:40 P:65 SP:F9 PPU: 69,120
D7AF  CC 78 06  CPY $0678 = 40                  A:40 X:D6 Y:40 P:65 SP:FB PPU: 69,138
D7B2  20 E2 F8  JSR $F8E2                       A:40 X:D6 Y:40 P:67 SP:FB PPU: 69,150
F8E2  30 07     BMI $F8EB                       A:40 X:D6 Y:40 P:67 SP:F9 PPU: 69,168
F8E4  90 05     BCC $F8EB                       A:40 X:D6 Y:40 P:67 SP:F9 PPU: 69,174
F8E6  D0 03     BNE $F8EB                       A:40 X:D6 Y:40 P:67 SP:F9 PPU: 69,180
F8E8  50 01     BVC $F8EB                       A:40 X:D6 Y:40 P:67 SP:F9 PPU: 69,186
F8EA  60        RTS                             A:40 X:D6 Y:40 P:67 SP:F9 PPU: 69,192
D7B5  E8        INX                             A:40 X:D6 Y:40 P:67 SP:FB PPU: 69,210
D7B6  A9 3F     LDA #$3F                        A:40 X:D7 Y:40 P:E5 SP:FB PPU: 69,216
D7B8  8D 78 06  STA $0678 = 40                  A:3F X:D7 Y:40 P:65 SP:FB PPU: 69,222
D7BB  20 EE F8  JSR $F8EE                       A:3F X:D7 Y:40 P:65 SP:FB PPU: 69,234
F8EE  B8        CLV                             A:3F X:D7 Y:40 P:65 SP:F9 PPU: 69,252
F8EF  60        RTS                             A:3F X:D7 Y:40 P:25 SP:F9 PPU: 69,258
D7BE  CC 78 06  CPY $0678 = 3F                  A:3F X:D7 Y:40 P:25 SP:FB PPU: 69,276
D7C1  20 F0 F8  JSR $F8F0                       A:3F X:D7 Y:40 P:25 SP:FB PPU: 69,288
F8F0  F0 07     BEQ $F8F9                       A:3F X:D7 Y:40 P:25 SP:F9 PPU: 69,306
F8F2  30 05     BMI $F8F9                       A:3F X:D7 Y:40 P:25 SP:F9 PPU: 69,312
F8F4  90 03     BCC $F8F9                       A:3F X:D7 Y:40 P:25 SP:F9 PPU: 69,318
F8F6  70 01     BVS $F8F9                       A:3F X:D7 Y:40 P:25 SP:F9 PPU: 69,324
F8F8  60        RTS                             A:3F X:D7 Y:40 P:25 SP:F9 PPU: 69,330
D7C4  E8        INX                             A:3F X:D7 Y:40 P:25 SP:FB PPU: 70,  7
D7C5  A9 41     LDA #$41                        A:3F X:D8 Y:40 P:A5 SP:FB PPU: 70, 13
D7C7  8D 78 06  STA $0678 = 3F                  A:41 X:D8 Y:40 P:25 SP:FB PPU: 70, 19
D7CA  CC 78 06  CPY $0678 = 41                  A:41 X:D8 Y:40 P:25 SP:FB PPU: 70, 31
D7CD  20 FC F8  JSR $F8FC                       A:41 X:D8 Y:40 P:A4 SP:FB PPU: 70, 43
F8FC  F0 05     BEQ $F903                       A:41 X:D8 Y:40 P:A4 SP:F9 PPU: 70, 61
F8FE  10 03     BPL $F903                       A:41 X:D8 Y:40 P:A4 SP:F9 PPU: 70, 67
F900  10 01     BPL $F903                       A:41 X:D8 Y:40 P:A4 SP:F9 PPU: 70, 73
F902  60        RTS                             A:41 X:D8 Y:40 P:A4 SP:F9 PPU: 70, 79
D7D0  E8        INX                             A:41 X:D8 Y:40 P:A4 SP:FB PPU: 70, 97
D7D1  A9 00     LDA #$00                        A:41 X:D9 Y:40 P:A4 SP:FB PPU: 70,103
D7D3  8D 78 06  STA $0678 = 41                  A:00 X:D9 Y:40 P:26 SP:FB PPU: 70,109
D7D6  20 06 F9  JSR $F906                       A:00 X:D9 Y:40 P:26 SP:FB PPU: 70,121
F906  A0 80     LDY #$80                        A:00 X:D9 Y:40 P:26 SP:F9 PPU: 70,139
F908  60        RTS                             A:00 X:D9 Y:80 P:A4 SP:F9 PPU: 70,145
D7D9  CC 78 06  CPY $0678 = 00                  A:00 X:D9 Y:80 P:A4 SP:FB PPU: 70,163
D7DC  20 09 F9  JSR $F909                       A:00 X:D9 Y:80 P:A5 SP:FB PPU: 70,175
F909  F0 05     BEQ $F910                       A:00 X:D9 Y:80 P:A5 SP:F9 PPU: 70,193
F90B  10 03     BPL $F910                       A:00 X:D9 Y:80 P:A5 SP:F9 PPU: 70,199
F90D  90 01     BCC $F910                       A:00 X:D9 Y:80 P:A5 SP:F9 PPU: 70,205
F90F  60        RTS                             A:00 X:D9 Y:80 P:A5 SP:F9 PPU: 70,211
D7DF  E8        INX                             A:00 X:D9 Y:80 P:A5 SP:FB PPU: 70,229
D7E0  A9 80     LDA #$80                        A:00 X:DA Y:80 P:A5 SP:FB PPU: 70,235
D7E2  8D 78 06  STA $0678 = 00                  A:80 X:DA Y:80 P:A5 SP:FB PPU: 70,241
D7E5  CC 78 06  CPY $0678 = 80                  A:80 X:DA Y:80 P:A5 SP:FB PPU: 70,253
D7E8  20 13 F9  JSR $F913                       A:80 X:DA Y:80 P:27 SP:FB PPU: 70,265
F913  D0 05     BNE $F91A                       A:80 X:DA Y:80 P:27 SP:F9 PPU: 70,283
F915  30 03     BMI $F91A                       A:80 X:DA Y:80 P:27 SP:F9 PPU: 70,289
F917  90 01     BCC $F91A                       A:80 X:DA Y:80 P:27 SP:F9 PPU: 70,295
F919  60        RTS                             A:80 X:DA Y:80 P:27 SP:F9 PPU: 70,301
D7EB  E8        INX                             A:80 X:DA Y:80 P:27 SP:FB PPU: 70,319
D7EC  A9 81     LDA #$81                        A:80 X:DB Y:80 P:A5 SP:FB PPU: 70,325
D7EE  8D 78 06  STA $0678 = 80                  A:81 X:DB Y:80 P:A5 SP:FB PPU: 70,331
D7F1  CC 78 06  CPY $0678 = 81                  A:81 X:DB Y:80 P:A5 SP:FB PPU: 71,  2
D7F4  20 1D F9  JSR $F91D                       A:81 X:DB Y:80 P:A4 SP:FB PPU: 71, 14
F91D  B0 05     BCS $F924                       A:81 X:DB Y:80 P:A4 SP:F9 PPU: 71, 32
F91F  F0 03     BEQ $F924                       A:81 X:DB Y:80 P:A4 SP:F9 PPU: 71, 38
F921  10 01     BPL $F924                       A:81 X:DB Y:80 P:A4 SP:F9 PPU: 71, 44
F923  60        RTS                             A:81 X:DB Y:80 P:A4 SP:F9 PPU: 71, 50
D7F7  E8        INX                             A:81 X:DB Y:80 P:A4 SP:FB PPU: 71, 68
D7F8  A9 7F     LDA #$7F                        A:81 X:DC Y:80 P:A4 SP:FB PPU: 71, 74
D7FA  8D 78 06  STA $0678 = 81                  A:7F X:DC Y:80 P:24 SP:FB PPU: 71, 80
D7FD  CC 78 06  CPY $0678 = 7F                  A:7F X:DC Y:80 P:24 SP:FB PPU: 71, 92
D800  20 27 F9  JSR $F927                       A:7F X:DC Y:80 P:25 SP:FB PPU: 71,104
F927  90 05     BCC $F92E                       A:7F X:DC Y:80 P:25 SP:F9 PPU: 71,122
F929  F0 03     BEQ $F92E                       A:7F X:DC Y:80 P:25 SP:F9 PPU: 71,128
F92B  30 01     BMI $F92E                       A:7F X:DC Y:80 P:25 SP:F9 PPU: 71,134
F92D  60        RTS                             A:7F X:DC Y:80 P:25 SP:F9 PPU: 71,140
D803  E8        INX                             A:7F X:DC Y:80 P:25 SP:FB PPU: 71,158
D804  8A        TXA                             A:7F X:DD Y:80 P:A5 SP:FB PPU: 71,164
D805  A8        TAY                             A:DD X:DD Y:80 P:A5 SP:FB PPU: 71,170
D806  20 90 F9  JSR $F990                       A:DD X:DD Y:DD P:A5 SP:FB PPU: 71,176
F990  A2 55     LDX #$55                        A:DD X:DD Y:DD P:A5 SP:F9 PPU: 71,194
F992  A9 FF     LDA #$FF                        A:DD X:55 Y:DD P:25 SP:F9 PPU: 71,200
F994  85 01     STA $01 = FF                    A:FF X:55 Y:DD P:A5 SP:F9 PPU: 71,206
F996  EA        NOP                             A:FF X:55 Y:DD P:A5 SP:F9 PPU: 71,215
F997  24 01     BIT $01 = FF                    A:FF X:55 Y:DD P:A5 SP:F9 PPU: 71,221
F999  38        SEC                             A:FF X:55 Y:DD P:E5 SP:F9 PPU: 71,230
F99A  A9 01     LDA #$01                        A:FF X:55 Y:DD P:E5 SP:F9 PPU: 71,236
F99C  60        RTS                             A:01 X:55 Y:DD P:65 SP:F9 PPU: 71,242
D809  8D 78 06  STA $0678 = 7F                  A:01 X:55 Y:DD P:65 SP:FB PPU: 71,260
D80C  4E 78 06  LSR $0678 = 01                  A:01 X:55 Y:DD P:65 SP:FB PPU: 71,272
D80F  AD 78 06  LDA $0678 = 00                  A:01 X:55 Y:DD P:67 SP:FB PPU: 71,290
D812  20 9D F9  JSR $F99D                       A:00 X:55 Y:DD P:67 SP:FB PPU: 71,302
F99D  90 1B     BCC $F9BA                       A:00 X:55 Y:DD P:67 SP:F9 PPU: 71,320
F99F  D0 19     BNE $F9BA                       A:00 X:55 Y:DD P:67 SP:F9 PPU: 71,326
F9A1  30 17     BMI $F9BA                       A:00 X:55 Y:DD P:67 SP:F9 PPU: 71,332
F9A3  50 15     BVC $F9BA                       A:00 X:55 Y:DD P:67 SP:F9 PPU: 71,338
F9A5  C9 00     CMP #$00                        A:00 X:55 Y:DD P:67 SP:F9 PPU: 72,  3
F9A7  D0 11     BNE $F9BA                       A:00 X:55 Y:DD P:67 SP:F9 PPU: 72,  9
F9A9  B8        CLV                             A:00 X:55 Y:DD P:67 SP:F9 PPU: 72, 15
F9AA  A9 AA     LDA #$AA                        A:00 X:55 Y:DD P:27 SP:F9 PPU: 72, 21
F9AC  60        RTS                             A:AA X:55 Y:DD P:A5 SP:F9 PPU: 72, 27
D815  C8        INY                             A:AA X:55 Y:DD P:A5 SP:FB PPU: 72, 45
D816  8D 78 06  STA $0678 = 00                  A:AA X:55 Y:DE P:A5 SP:FB PPU: 72, 51
D819  4E 78 06  LSR $0678 = AA                  A:AA X:55 Y:DE P:A5 SP:FB PPU: 72, 63
D81C  AD 78 06  LDA $0678 = 55                  A:AA X:55 Y:DE P:24 SP:FB PPU: 72, 81
D81F  20 AD F9  JSR $F9AD                       A:55 X:55 Y:DE P:24 SP:FB PPU: 72, 93
F9AD  B0 0B     BCS $F9BA                       A:55 X:55 Y:DE P:24 SP:F9 PPU: 72,111
F9AF  F0 09     BEQ $F9BA                       A:55 X:55 Y:DE P:24 SP:F9 PPU: 72,117
F9B1  30 07     BMI $F9BA                       A:55 X:55 Y:DE P:24 SP:F9 PPU: 72,123
F9B3  70 05     BVS $F9BA                       A:55 X:55 Y:DE P:24 SP:F9 PPU: 72,129
F9B5  C9 55     CMP #$55                        A:55 X:55 Y:DE P:24 SP:F9 PPU: 72,135
F9B7  D0 01     BNE $F9BA                       A:55 X:55 Y:DE P:27 SP:F9 PPU: 72,141
F9B9  60        RTS                             A:55 X:55 Y:DE P:27 SP:F9 PPU: 72,147
D822  C8        INY                             A:55 X:55 Y:DE P:27 SP:FB PPU: 72,165
D823  20 BD F9  JSR $F9BD                       A:55 X:55 Y:DF P:A5 SP:FB PPU: 72,171
F9BD  24 01     BIT $01 = FF                    A:55 X:55 Y:DF P:A5 SP:F9 PPU: 72,189
F9BF  38        SEC                             A:55 X:55 Y:DF P:E5 SP:F9 PPU: 72,198
F9C0  A9 80     LDA #$80                        A:55 X:55 Y:DF P:E5 SP:F9 PPU: 72,204
F9C2  60        RTS                             A:80 X:55 Y:DF P:E5 SP:F9 PPU: 72,210
D826  8D 78 06  STA $0678 = 55                  A:80 X:55 Y:DF P:E5 SP:FB PPU: 72,228
D829  0E 78 06  ASL $0678 = 80                  A:80 X:55 Y:DF P:E5 SP:FB PPU: 72,240
D82C  AD 78 06  LDA $0678 = 00                  A:80 X:55 Y:DF P:67 SP:FB PPU: 72,258
D82F  20 C3 F9  JSR $F9C3                       A:00 X:55 Y:DF P:67 SP:FB PPU: 72,270
F9C3  90 1C     BCC $F9E1                       A:00 X:55 Y:DF P:67 SP:F9 PPU: 72,288
F9C5  D0 1A     BNE $F9E1                       A:00 X:55 Y:DF P:67 SP:F9 PPU: 72,294
F9C7  30 18     BMI $F9E1                       A:00 X:55 Y:DF P:67 SP:F9 PPU: 72,300
F9C9  50 16     BVC $F9E1                       A:00 X:55 Y:DF P:67 SP:F9 PPU: 72,306
F9CB  C9 00     CMP #$00                        A:00 X:55 Y:DF P:67 SP:F9 PPU: 72,312
F9CD  D0 12     BNE $F9E1                       A:00 X:55 Y:DF P:67 SP:F9 PPU: 72,318
F9CF  B8        CLV                             A:00 X:55 Y:DF P:67 SP:F9 PPU: 72,324
F9D0  A9 55     LDA #$55                        A:00 X:55 Y:DF P:27 SP:F9 PPU: 72,330
F9D2  38        SEC                             A:55 X:55 Y:DF P:25 SP:F9 PPU: 72,336
F9D3  60        RTS                             A:55 X:55 Y:DF P:25 SP:F9 PPU: 73,  1
D832  C8        INY                             A:55 X:55 Y:DF P:25 SP:FB PPU: 73, 19
D833  8D 78 06  STA $0678 = 00                  A:55 X:55 Y:E0 P:A5 SP:FB PPU: 73, 25
D836  0E 78 06  ASL $0678 = 55                  A:55 X:55 Y:E0 P:A5 SP:FB PPU: 73, 37
D839  AD 78 06  LDA $0678 = AA                  A:55 X:55 Y:E0 P:A4 SP:FB PPU: 73, 55
D83C  20 D4 F9  JSR $F9D4                       A:AA X:55 Y:E0 P:A4 SP:FB PPU: 73, 67
F9D4  B0 0B     BCS $F9E1                       A:AA X:55 Y:E0 P:A4 SP:F9 PPU: 73, 85
F9D6  F0 09     BEQ $F9E1                       A:AA X:55 Y:E0 P:A4 SP:F9 PPU: 73, 91
F9D8  10 07     BPL $F9E1                       A:AA X:55 Y:E0 P:A4 SP:F9 PPU: 73, 97
F9DA  70 05     BVS $F9E1                       A:AA X:55 Y:E0 P:A4 SP:F9 PPU: 73,103
F9DC  C9 AA     CMP #$AA                        A:AA X:55 Y:E0 P:A4 SP:F9 PPU: 73,109
F9DE  D0 01     BNE $F9E1                       A:AA X:55 Y:E0 P:27 SP:F9 PPU: 73,115
F9E0  60        RTS                             A:AA X:55 Y:E0 P:27 SP:F9 PPU: 73,121
D83F  C8        INY                             A:AA X:55 Y:E0 P:27 SP:FB PPU: 73,139
D840  20 E4 F9  JSR $F9E4                       A:AA X:55 Y:E1 P:A5 SP:FB PPU: 73,145
F9E4  24 01     BIT $01 = FF                    A:AA X:55 Y:E1 P:A5 SP:F9 PPU: 73,163
F9E6  38        SEC                             A:AA X:55 Y:E1 P:E5 SP:F9 PPU: 73,172
F9E7  A9 01     LDA #$01                        A:AA X:55 Y:E1 P:E5 SP:F9 PPU: 73,178
F9E9  60        RTS                             A:01 X:55 Y:E1 P:65 SP:F9 PPU: 73,184
D843  8D 78 06  STA $0678 = AA                  A:01 X:55 Y:E1 P:65 SP:FB PPU: 73,202
D846  6E 78 06  ROR $0678 = 01                  A:01 X:55 Y:E1 P:65 SP:FB PPU: 73,214
D849  AD 78 06  LDA $0678 = 80                  A:01 X:55 Y:E1 P:E5 SP:FB PPU: 73,232
D84C  20 EA F9  JSR $F9EA                       A:80 X:55 Y:E1 P:E5 SP:FB PPU: 73,244
F9EA  90 1C     BCC $FA08                       A:80 X:55 Y:E1 P:E5 SP:F9 PPU: 73,262
F9EC  F0 1A     BEQ $FA08                       A:80 X:55 Y:E1 P:E5 SP:F9 PPU: 73,268
F9EE  10 18     BPL $FA08                       A:80 X:55 Y:E1 P:E5 SP:F9 PPU: 73,274
F9F0  50 16     BVC $FA08                       A:80 X:55 Y:E1 P:E5 SP:F9 PPU: 73,280
F9F2  C9 80     CMP #$80                        A:80 X:55 Y:E1 P:E5 SP:F9 PPU: 73,286
F9F4  D0 12     BNE $FA08                       A:80 X:55 Y:E1 P:67 SP:F9 PPU: 73,292
F9F6  B8        CLV                             A:80 X:55 Y:E1 P:67 SP:F9 PPU: 73,298
F9F7  18        CLC                             A:80 X:55 Y:E1 P:27 SP:F9 PPU: 73,304
F9F8  A9 55     LDA #$55                        A:80 X:55 Y:E1 P:26 SP:F9 PPU: 73,310
F9FA  60        RTS                             A:55 X:55 Y:E1 P:24 SP:F9 PPU: 73,316
D84F  C8        INY                             A:55 X:55 Y:E1 P:24 SP:FB PPU: 73,334
D850  8D 78 06  STA $0678 = 80                  A:55 X:55 Y:E2 P:A4 SP:FB PPU: 73,340
D853  6E 78 06  ROR $0678 = 55                  A:55 X:55 Y:E2 P:A4 SP:FB PPU: 74, 11
D856  AD 78 06  LDA $0678 = 2A                  A:55 X:55 Y:E2 P:25 SP:FB PPU: 74, 29
D859  20 FB F9  JSR $F9FB                       A:2A X:55 Y:E2 P:25 SP:FB PPU: 74, 41
F9FB  90 0B     BCC $FA08                       A:2A X:55 Y:E2 P:25 SP:F9 PPU: 74, 59
F9FD  F0 09     BEQ $FA08                       A:2A X:55 Y:E2 P:25 SP:F9 PPU: 74, 65
F9FF  30 07     BMI $FA08                       A:2A X:55 Y:E2 P:25 SP:F9 PPU: 74, 71
FA01  70 05     BVS $FA08                       A:2A X:55 Y:E2 P:25 SP:F9 PPU: 74, 77
FA03  C9 2A     CMP #$2A                        A:2A X:55 Y:E2 P:25 SP:F9 PPU: 74, 83
FA05  D0 01     BNE $FA08                       A:2A X:55 Y:E2 P:27 SP:F9 PPU: 74, 89
FA07  60        RTS                             A:2A X:55 Y:E2 P:27 SP:F9 PPU: 74, 95
D85C  C8        INY                             A:2A X:55 Y:E2 P:27 SP:FB PPU: 74,113
D85D  20 0A FA  JSR $FA0A                       A:2A X:55 Y:E3 P:A5 SP:FB PPU: 74,119
FA0A  24 01     BIT $01 = FF                    A:2A X:55 Y:E3 P:A5 SP:F9 PPU: 74,137
FA0C  38        SEC                             A:2A X:55 Y:E3 P:E5 SP:F9 PPU: 74,146
FA0D  A9 80     LDA #$80                        A:2A X:55 Y:E3 P:E5 SP:F9 PPU: 74,152
FA0F  60        RTS                             A:80 X:55 Y:E3 P:E5 SP:F9 PPU: 74,158
D860  8D 78 06  STA $0678 = 2A                  A:80 X:55 Y:E3 P:E5 SP:FB PPU: 74,176
D863  2E 78 06  ROL $0678 = 80                  A:80 X:55 Y:E3 P:E5 SP:FB PPU: 74,188
D866  AD 78 06  LDA $0678 = 01                  A:80 X:55 Y:E3 P:65 SP:FB PPU: 74,206
D869  20 10 FA  JSR $FA10                       A:01 X:55 Y:E3 P:65 SP:FB PPU: 74,218
FA10  90 1C     BCC $FA2E                       A:01 X:55 Y:E3 P:65 SP:F9 PPU: 74,236
FA12  F0 1A     BEQ $FA2E                       A:01 X:55 Y:E3 P:65 SP:F9 PPU: 74,242
FA14  30 18     BMI $FA2E                       A:01 X:55 Y:E3 P:65 SP:F9 PPU: 74,248
FA16  50 16     BVC $FA2E                       A:01 X:55 Y:E3 P:65 SP:F9 PPU: 74,254
FA18  C9 01     CMP #$01                        A:01 X:55 Y:E3 P:65 SP:F9 PPU: 74,260
FA1A  D0 12     BNE $FA2E                       A:01 X:55 Y:E3 P:67 SP:F9 PPU: 74,266
FA1C  B8        CLV                             A:01 X:55 Y:E3 P:67 SP:F9 PPU: 74,272
FA1D  18        CLC                             A:01 X:55 Y:E3 P:27 SP:F9 PPU: 74,278
FA1E  A9 55     LDA #$55                        A:01 X:55 Y:E3 P:26 SP:F9 PPU: 74,284
FA20  60        RTS                             A:55 X:55 Y:E3 P:24 SP:F9 PPU: 74,290
D86C  C8        INY                             A:55 X:55 Y:E3 P:24 SP:FB PPU: 74,308
D86D  8D 78 06  STA $0678 = 01                  A:55 X:55 Y:E4 P:A4 SP:FB PPU: 74,314
D870  2E 78 06  ROL $0678 = 55                  A:55 X:55 Y:E4 P:A4 SP:FB PPU: 74,326
D873  AD 78 06  LDA $0678 = AA                  A:55 X:55 Y:E4 P:A4 SP:FB PPU: 75,  3
D876  20 21 FA  JSR $FA21                       A:AA X:55 Y:E4 P:A4 SP:FB PPU: 75, 15
FA21  B0 0B     BCS $FA2E                       A:AA X:55 Y:E4 P:A4 SP:F9 PPU: 75, 33
FA23  F0 09     BEQ $FA2E                       A:AA X:55 Y:E4 P:A4 SP:F9 PPU: 75, 39
FA25  10 07     BPL $FA2E                       A:AA X:55 Y:E4 P:A4 SP:F9 PPU: 75, 45
FA27  70 05     BVS $FA2E                       A:AA X:55 Y:E4 P:A4 SP:F9 PPU: 75, 51
FA29  C9 AA     CMP #$AA                        A:AA X:55 Y:E4 P:A4 SP:F9 PPU: 75, 57
FA2B  D0 01     BNE $FA2E                       A:AA X:55 Y:E4 P:27 SP:F9 PPU: 75, 63
FA2D  60        RTS                             A:AA X:55 Y:E4 P:27 SP:F9 PPU: 75, 69
D879  A9 FF     LDA #$FF                        A:AA X:55 Y:E4 P:27 SP:FB PPU: 75, 87
D87B  8D 78 06  STA $0678 = AA                  A:FF X:55 Y:E4 P:A5 SP:FB PPU: 75, 93
D87E  85 01     STA $01 = FF                    A:FF X:55 Y:E4 P:A5 SP:FB PPU: 75,105
D880  24 01     BIT $01 = FF                    A:FF X:55 Y:E4 P:A5 SP:FB PPU: 75,114
D882  38        SEC                             A:FF X:55 Y:E4 P:E5 SP:FB PPU: 75,123
D883  EE 78 06  INC $0678 = FF                  A:FF X:55 Y:E4 P:E5 SP:FB PPU: 75,129
D886  D0 0D     BNE $D895                       A:FF X:55 Y:E4 P:67 SP:FB PPU: 75,147
D888  30 0B     BMI $D895                       A:FF X:55 Y:E4 P:67 SP:FB PPU: 75,153
D88A  50 09     BVC $D895                       A:FF X:55 Y:E4 P:67 SP:FB PPU: 75,159
D88C  90 07     BCC $D895                       A:FF X:55 Y:E4 P:67 SP:FB PPU: 75,165
D88E  AD 78 06  LDA $0678 = 00                  A:FF X:55 Y:E4 P:67 SP:FB PPU: 75,171
D891  C9 00     CMP #$00                        A:00 X:55 Y:E4 P:67 SP:FB PPU: 75,183
D893  F0 04     BEQ $D899                       A:00 X:55 Y:E4 P:67 SP:FB PPU: 75,189
D899  A9 7F     LDA #$7F                        A:00 X:55 Y:E4 P:67 SP:FB PPU: 75,198
D89B  8D 78 06  STA $0678 = 00                  A:7F X:55 Y:E4 P:65 SP:FB PPU: 75,204
D89E  B8        CLV                             A:7F X:55 Y:E4 P:65 SP:FB PPU: 75,216
D89F  18        CLC                             A:7F X:55 Y:E4 P:25 SP:FB PPU: 75,222
D8A0  EE 78 06  INC $0678 = 7F                  A:7F X:55 Y:E4 P:24 SP:FB PPU: 75,228
D8A3  F0 0D     BEQ $D8B2                       A:7F X:55 Y:E4 P:A4 SP:FB PPU: 75,246
D8A5  10 0B     BPL $D8B2                       A:7F X:55 Y:E4 P:A4 SP:FB PPU: 75,252
D8A7  70 09     BVS $D8B2                       A:7F X:55 Y:E4 P:A4 SP:FB PPU: 75,258
D8A9  B0 07     BCS $D8B2                       A:7F X:55 Y:E4 P:A4 SP:FB PPU: 75,264
D8AB  AD 78 06  LDA $0678 = 80                  A:7F X:55 Y:E4 P:A4 SP:FB PPU: 75,270
D8AE  C9 80     CMP #$80                        A:80 X:55 Y:E4 P:A4 SP:FB PPU: 75,282
D8B0  F0 04     BEQ $D8B6                       A:80 X:55 Y:E4 P:27 SP:FB PPU: 75,288
D8B6  A9 00     LDA #$00                        A:80 X:55 Y:E4 P:27 SP:FB PPU: 75,297
D8B8  8D 78 06  STA $0678 = 80                  A:00 X:55 Y:E4 P:27 SP:FB PPU: 75,303
D8BB  24 01     BIT $01 = FF                    A:00 X:55 Y:E4 P:27 SP:FB PPU: 75,315
D8BD  38        SEC                             A:00 X:55 Y:E4 P:E7 SP:FB PPU: 75,324
D8BE  CE 78 06  DEC $0678 = 00                  A:00 X:55 Y:E4 P:E7 SP:FB PPU: 75,330
D8C1  F0 0D     BEQ $D8D0                       A:00 X:55 Y:E4 P:E5 SP:FB PPU: 76,  7
D8C3  10 0B     BPL $D8D0                       A:00 X:55 Y:E4 P:E5 SP:FB PPU: 76, 13
D8C5  50 09     BVC $D8D0                       A:00 X:55 Y:E4 P:E5 SP:FB PPU: 76, 19
D8C7  90 07     BCC $D8D0                       A:00 X:55 Y:E4 P:E5 SP:FB PPU: 76, 25
D8C9  AD 78 06  LDA $0678 = FF                  A:00 X:55 Y:E4 P:E5 SP:FB PPU: 76, 31
D8CC  C9 FF     CMP #$FF                        A:FF X:55 Y:E4 P:E5 SP:FB PPU: 76, 43
D8CE  F0 04     BEQ $D8D4                       A:FF X:55 Y:E4 P:67 SP:FB PPU: 76, 49
D8D4  A9 80     LDA #$80                        A:FF X:55 Y:E4 P:67 SP:FB PPU: 76, 58
D8D6  8D 78 06  STA $0678 = FF                  A:80 X:55 Y:E4 P:E5 SP:FB PPU: 76, 64
D8D9  B8        CLV                             A:80 X:55 Y:E4 P:E5 SP:FB PPU: 76, 76
D8DA  18        CLC                             A:80 X:55 Y:E4 P:A5 SP:FB PPU: 76, 82
D8DB  CE 78 06  DEC $0678 = 80                  A:80 X:55 Y:E4 P:A4 SP:FB PPU: 76, 88
D8DE  F0 0D     BEQ $D8ED                       A:80 X:55 Y:E4 P:24 SP:FB PPU: 76,106
D8E0  30 0B     BMI $D8ED                       A:80 X:55 Y:E4 P:24 SP:FB PPU: 76,112
D8E2  70 09     BVS $D8ED                       A:80 X:55 Y:E4 P:24 SP:FB PPU: 76,118
D8E4  B0 07     BCS $D8ED                       A:80 X:55 Y:E4 P:24 SP:FB PPU: 76,124
D8E6  AD 78 06  LDA $0678 = 7F                  A:80 X:55 Y:E4 P:24 SP:FB PPU: 76,130
D8E9  C9 7F     CMP #$7F                        A:7F X:55 Y:E4 P:24 SP:FB PPU: 76,142
D8EB  F0 04     BEQ $D8F1                       A:7F X:55 Y:E4 P:27 SP:FB PPU: 76,148
D8F1  A9 01     LDA #$01                        A:7F X:55 Y:E4 P:27 SP:FB PPU: 76,157
D8F3  8D 78 06  STA $0678 = 7F                  A:01 X:55 Y:E4 P:25 SP:FB PPU: 76,163
D8F6  CE 78 06  DEC $0678 = 01                  A:01 X:55 Y:E4 P:25 SP:FB PPU: 76,175
D8F9  F0 04     BEQ $D8FF                       A:01 X:55 Y:E4 P:27 SP:FB PPU: 76,193
D8FF  60        RTS                             A:01 X:55 Y:E4 P:27 SP:FB PPU: 76,202
C618  20 00 D9  JSR $D900                       A:01 X:55 Y:E4 P:27 SP:FD PPU: 76,220
D900  A9 A3     LDA #$A3                        A:01 X:55 Y:E4 P:27 SP:FB PPU: 76,238
D902  85 33     STA $33 = 00                    A:A3 X:55 Y:E4 P:A5 SP:FB PPU: 76,244
D904  A9 89     LDA #$89                        A:A3 X:55 Y:E4 P:A5 SP:FB PPU: 76,253
D906  8D 00 03  STA $0300 = 70                  A:89 X:55 Y:E4 P:A5 SP:FB PPU: 76,259
D909  A9 12     LDA #$12                        A:89 X:55 Y:E4 P:A5 SP:FB PPU: 76,271
D90B  8D 45 02  STA $0245 = 00                  A:12 X:55 Y:E4 P:25 SP:FB PPU: 76,277
D90E  A9 FF     LDA #$FF                        A:12 X:55 Y:E4 P:25 SP:FB PPU: 76,289
D910  85 01     STA $01 = FF                    A:FF X:55 Y:E4 P:A5 SP:FB PPU: 76,295
D912  A2 65     LDX #$65                        A:FF X:55 Y:E4 P:A5 SP:FB PPU: 76,304
D914  A9 00     LDA #$00                        A:FF X:65 Y:E4 P:25 SP:FB PPU: 76,310
D916  85 89     STA $89 = 00                    A:00 X:65 Y:E4 P:27 SP:FB PPU: 76,316
D918  A9 03     LDA #$03                        A:00 X:65 Y:E4 P:27 SP:FB PPU: 76,325
D91A  85 8A     STA $8A = 00                    A:03 X:65 Y:E4 P:25 SP:FB PPU: 76,331
D91C  A0 00     LDY #$00                        A:03 X:65 Y:E4 P:25 SP:FB PPU: 76,340
D91E  38        SEC                             A:03 X:65 Y:00 P:27 SP:FB PPU: 77,  5
D91F  A9 00     LDA #$00                        A:03 X:65 Y:00 P:27 SP:FB PPU: 77, 11
D921  B8        CLV                             A:00 X:65 Y:00 P:27 SP:FB PPU: 77, 17
D922  B1 89     LDA ($89),Y = 0300 @ 0300 = 89  A:00 X:65 Y:00 P:27 SP:FB PPU: 77, 23
D924  F0 0C     BEQ $D932                       A:89 X:65 Y:00 P:A5 SP:FB PPU: 77, 38
D926  90 0A     BCC $D932                       A:89 X:65 Y:00 P:A5 SP:FB PPU: 77, 44
D928  70 08     BVS $D932                       A:89 X:65 Y:00 P:A5 SP:FB PPU: 77, 50
D92A  C9 89     CMP #$89                        A:89 X:65 Y:00 P:A5 SP:FB PPU: 77, 56
D92C  D0 04     BNE $D932                       A:89 X:65 Y:00 P:27 SP:FB PPU: 77, 62
D92E  E0 65     CPX #$65                        A:89 X:65 Y:00 P:27 SP:FB PPU: 77, 68
D930  F0 04     BEQ $D936                       A:89 X:65 Y:00 P:27 SP:FB PPU: 77, 74
D936  A9 FF     LDA #$FF                        A:89 X:65 Y:00 P:27 SP:FB PPU: 77, 83
D938  85 97     STA $97 = 00                    A:FF X:65 Y:00 P:A5 SP:FB PPU: 77, 89
D93A  85 98     STA $98 = 00                    A:FF X:65 Y:00 P:A5 SP:FB PPU: 77, 98
D93C  24 98     BIT $98 = FF                    A:FF X:65 Y:00 P:A5 SP:FB PPU: 77,107
D93E  A0 34     LDY #$34                        A:FF X:65 Y:00 P:E5 SP:FB PPU: 77,116
D940  B1 97     LDA ($97),Y = FFFF @ 0033 = A3  A:FF X:65 Y:34 P:65 SP:FB PPU: 77,122
D942  C9 A3     CMP #$A3                        A:A3 X:65 Y:34 P:E5 SP:FB PPU: 77,140
D944  D0 02     BNE $D948                       A:A3 X:65 Y:34 P:67 SP:FB PPU: 77,146
D946  B0 04     BCS $D94C                       A:A3 X:65 Y:34 P:67 SP:FB PPU: 77,152
D94C  A5 00     LDA $00 = 00                    A:A3 X:65 Y:34 P:67 SP:FB PPU: 77,161
D94E  48        PHA                             A:00 X:65 Y:34 P:67 SP:FB PPU: 77,170
D94F  A9 46     LDA #$46                        A:00 X:65 Y:34 P:67 SP:FA PPU: 77,179
D951  85 FF     STA $FF = 00                    A:46 X:65 Y:34 P:65 SP:FA PPU: 77,185
D953  A9 01     LDA #$01                        A:46 X:65 Y:34 P:65 SP:FA PPU: 77,194
D955  85 00     STA $00 = 00                    A:01 X:65 Y:34 P:65 SP:FA PPU: 77,200
D957  A0 FF     LDY #$FF                        A:01 X:65 Y:34 P:65 SP:FA PPU: 77,209
D959  B1 FF     LDA ($FF),Y = 0146 @ 0245 = 12  A:01 X:65 Y:FF P:E5 SP:FA PPU: 77,215
D95B  C9 12     CMP #$12                        A:12 X:65 Y:FF P:65 SP:FA PPU: 77,233
D95D  F0 04     BEQ $D963                       A:12 X:65 Y:FF P:67 SP:FA PPU: 77,239
D963  68        PLA                             A:12 X:65 Y:FF P:67 SP:FA PPU: 77,248
D964  85 00     STA $00 = 01                    A:00 X:65 Y:FF P:67 SP:FB PPU: 77,260
D966  A2 ED     LDX #$ED                        A:00 X:65 Y:FF P:67 SP:FB PPU: 77,269
D968  A9 00     LDA #$00                        A:00 X:ED Y:FF P:E5 SP:FB PPU: 77,275
D96A  85 33     STA $33 = A3                    A:00 X:ED Y:FF P:67 SP:FB PPU: 77,281
D96C  A9 04     LDA #$04                        A:00 X:ED Y:FF P:67 SP:FB PPU: 77,290
D96E  85 34     STA $34 = 00                    A:04 X:ED Y:FF P:65 SP:FB PPU: 77,296
D970  A0 00     LDY #$00                        A:04 X:ED Y:FF P:65 SP:FB PPU: 77,305
D972  18        CLC                             A:04 X:ED Y:00 P:67 SP:FB PPU: 77,311
D973  A9 FF     LDA #$FF                        A:04 X:ED Y:00 P:66 SP:FB PPU: 77,317
D975  85 01     STA $01 = FF                    A:FF X:ED Y:00 P:E4 SP:FB PPU: 77,323
D977  24 01     BIT $01 = FF                    A:FF X:ED Y:00 P:E4 SP:FB PPU: 77,332
D979  A9 AA     LDA #$AA                        A:FF X:ED Y:00 P:E4 SP:FB PPU: 78,  0
D97B  8D 00 04  STA $0400 = AD                  A:AA X:ED Y:00 P:E4 SP:FB PPU: 78,  6
D97E  A9 55     LDA #$55                        A:AA X:ED Y:00 P:E4 SP:FB PPU: 78, 18
D980  11 33     ORA ($33),Y = 0400 @ 0400 = AA  A:55 X:ED Y:00 P:64 SP:FB PPU: 78, 24
D982  B0 08     BCS $D98C                       A:FF X:ED Y:00 P:E4 SP:FB PPU: 78, 39
D984  10 06     BPL $D98C                       A:FF X:ED Y:00 P:E4 SP:FB PPU: 78, 45
D986  C9 FF     CMP #$FF                        A:FF X:ED Y:00 P:E4 SP:FB PPU: 78, 51
D988  D0 02     BNE $D98C                       A:FF X:ED Y:00 P:67 SP:FB PPU: 78, 57
D98A  70 02     BVS $D98E                       A:FF X:ED Y:00 P:67 SP:FB PPU: 78, 63
D98E  E8        INX                             A:FF X:ED Y:00 P:67 SP:FB PPU: 78, 72
D98F  38        SEC                             A:FF X:EE Y:00 P:E5 SP:FB PPU: 78, 78
D990  B8        CLV                             A:FF X:EE Y:00 P:E5 SP:FB PPU: 78, 84
D991  A9 00     LDA #$00                        A:FF X:EE Y:00 P:A5 SP:FB PPU: 78, 90
D993  11 33     ORA ($33),Y = 0400 @ 0400 = AA  A:00 X:EE Y:00 P:27 SP:FB PPU: 78, 96
D995  F0 06     BEQ $D99D                       A:AA X:EE Y:00 P:A5 SP:FB PPU: 78,111
D997  70 04     BVS $D99D                       A:AA X:EE Y:00 P:A5 SP:FB PPU: 78,117
D999  90 02     BCC $D99D                       A:AA X:EE Y:00 P:A5 SP:FB PPU: 78,123
D99B  30 02     BMI $D99F                       A:AA X:EE Y:00 P:A5 SP:FB PPU: 78,129
D99F  E8        INX                             A:AA X:EE Y:00 P:A5 SP:FB PPU: 78,138
D9A0  18        CLC                             A:AA X:EF Y:00 P:A5 SP:FB PPU: 78,144
D9A1  24 01     BIT $01 = FF                    A:AA X:EF Y:00 P:A4 SP:FB PPU: 78,150
D9A3  A9 55     LDA #$55                        A:AA X:EF Y:00 P:E4 SP:FB PPU: 78,159
D9A5  31 33     AND ($33),Y = 0400 @ 0400 = AA  A:55 X:EF Y:00 P:64 SP:FB PPU: 78,165
D9A7  D0 06     BNE $D9AF                       A:00 X:EF Y:00 P:66 SP:FB PPU: 78,180
D9A9  50 04     BVC $D9AF                       A:00 X:EF Y:00 P:66 SP:FB PPU: 78,186
D9AB  B0 02     BCS $D9AF                       A:00 X:EF Y:00 P:66 SP:FB PPU: 78,192
D9AD  10 02     BPL $D9B1                       A:00 X:EF Y:00 P:66 SP:FB PPU: 78,198
D9B1  E8        INX                             A:00 X:EF Y:00 P:66 SP:FB PPU: 78,207
D9B2  38        SEC                             A:00 X:F0 Y:00 P:E4 SP:FB PPU: 78,213
D9B3  B8        CLV                             A:00 X:F0 Y:00 P:E5 SP:FB PPU: 78,219
D9B4  A9 EF     LDA #$EF                        A:00 X:F0 Y:00 P:A5 SP:FB PPU: 78,225
D9B6  8D 00 04  STA $0400 = AA                  A:EF X:F0 Y:00 P:A5 SP:FB PPU: 78,231
D9B9  A9 F8     LDA #$F8                        A:EF X:F0 Y:00 P:A5 SP:FB PPU: 78,243
D9BB  31 33     AND ($33),Y = 0400 @ 0400 = EF  A:F8 X:F0 Y:00 P:A5 SP:FB PPU: 78,249
D9BD  90 08     BCC $D9C7                       A:E8 X:F0 Y:00 P:A5 SP:FB PPU: 78,264
D9BF  10 06     BPL $D9C7                       A:E8 X:F0 Y:00 P:A5 SP:FB PPU: 78,270
D9C1  C9 E8     CMP #$E8                        A:E8 X:F0 Y:00 P:A5 SP:FB PPU: 78,276
D9C3  D0 02     BNE $D9C7                       A:E8 X:F0 Y:00 P:27 SP:FB PPU: 78,282
D9C5  50 02     BVC $D9C9                       A:E8 X:F0 Y:00 P:27 SP:FB PPU: 78,288
D9C9  E8        INX                             A:E8 X:F0 Y:00 P:27 SP:FB PPU: 78,297
D9CA  18        CLC                             A:E8 X:F1 Y:00 P:A5 SP:FB PPU: 78,303
D9CB  24 01     BIT $01 = FF                    A:E8 X:F1 Y:00 P:A4 SP:FB PPU: 78,309
D9CD  A9 AA     LDA #$AA                        A:E8 X:F1 Y:00 P:E4 SP:FB PPU: 78,318
D9CF  8D 00 04  STA $0400 = EF                  A:AA X:F1 Y:00 P:E4 SP:FB PPU: 78,324
D9D2  A9 5F     LDA #$5F                        A:AA X:F1 Y:00 P:E4 SP:FB PPU: 78,336
D9D4  51 33     EOR ($33),Y = 0400 @ 0400 = AA  A:5F X:F1 Y:00 P:64 SP:FB PPU: 79,  1
D9D6  B0 08     BCS $D9E0                       A:F5 X:F1 Y:00 P:E4 SP:FB PPU: 79, 16
D9D8  10 06     BPL $D9E0                       A:F5 X:F1 Y:00 P:E4 SP:FB PPU: 79, 22
D9DA  C9 F5     CMP #$F5                        A:F5 X:F1 Y:00 P:E4 SP:FB PPU: 79, 28
D9DC  D0 02     BNE $D9E0                       A:F5 X:F1 Y:00 P:67 SP:FB PPU: 79, 34
D9DE  70 02     BVS $D9E2                       A:F5 X:F1 Y:00 P:67 SP:FB PPU: 79, 40
D9E2  E8        INX                             A:F5 X:F1 Y:00 P:67 SP:FB PPU: 79, 49
D9E3  38        SEC                             A:F5 X:F2 Y:00 P:E5 SP:FB PPU: 79, 55
D9E4  B8        CLV                             A:F5 X:F2 Y:00 P:E5 SP:FB PPU: 79, 61
D9E5  A9 70     LDA #$70                        A:F5 X:F2 Y:00 P:A5 SP:FB PPU: 79, 67
D9E7  8D 00 04  STA $0400 = AA                  A:70 X:F2 Y:00 P:25 SP:FB PPU: 79, 73
D9EA  51 33     EOR ($33),Y = 0400 @ 0400 = 70  A:70 X:F2 Y:00 P:25 SP:FB PPU: 79, 85
D9EC  D0 06     BNE $D9F4                       A:00 X:F2 Y:00 P:27 SP:FB PPU: 79,100
D9EE  70 04     BVS $D9F4                       A:00 X:F2 Y:00 P:27 SP:FB PPU: 79,106
D9F0  90 02     BCC $D9F4                       A:00 X:F2 Y:00 P:27 SP:FB PPU: 79,112
D9F2  10 02     BPL $D9F6                       A:00 X:F2 Y:00 P:27 SP:FB PPU: 79,118
D9F6  E8        INX                             A:00 X:F2 Y:00 P:27 SP:FB PPU: 79,127
D9F7  18        CLC                             A:00 X:F3 Y:00 P:A5 SP:FB PPU: 79,133
D9F8  24 01     BIT $01 = FF                    A:00 X:F3 Y:00 P:A4 SP:FB PPU: 79,139
D9FA  A9 69     LDA #$69                        A:00 X:F3 Y:00 P:E6 SP:FB PPU: 79,148
D9FC  8D 00 04  STA $0400 = 70                  A:69 X:F3 Y:00 P:64 SP:FB PPU: 79,154
D9FF  A9 00     LDA #$00                        A:69 X:F3 Y:00 P:64 SP:FB PPU: 79,166
DA01  71 33     ADC ($33),Y = 0400 @ 0400 = 69  A:00 X:F3 Y:00 P:66 SP:FB PPU: 79,172
DA03  30 08     BMI $DA0D                       A:69 X:F3 Y:00 P:24 SP:FB PPU: 79,187
DA05  B0 06     BCS $DA0D                       A:69 X:F3 Y:00 P:24 SP:FB PPU: 79,193
DA07  C9 69     CMP #$69                        A:69 X:F3 Y:00 P:24 SP:FB PPU: 79,199
DA09  D0 02     BNE $DA0D                       A:69 X:F3 Y:00 P:27 SP:FB PPU: 79,205
DA0B  50 02     BVC $DA0F                       A:69 X:F3 Y:00 P:27 SP:FB PPU: 79,211
DA0F  E8        INX                             A:69 X:F3 Y:00 P:27 SP:FB PPU: 79,220
DA10  38        SEC                             A:69 X:F4 Y:00 P:A5 SP:FB PPU: 79,226
DA11  24 01     BIT $01 = FF                    A:69 X:F4 Y:00 P:A5 SP:FB PPU: 79,232
DA13  A9 00     LDA #$00                        A:69 X:F4 Y:00 P:E5 SP:FB PPU: 79,241
DA15  71 33     ADC ($33),Y = 0400 @ 0400 = 69  A:00 X:F4 Y:00 P:67 SP:FB PPU: 79,247
DA17  30 08     BMI $DA21                       A:6A X:F4 Y:00 P:24 SP:FB PPU: 79,262
DA19  B0 06     BCS $DA21                       A:6A X:F4 Y:00 P:24 SP:FB PPU: 79,268
DA1B  C9 6A     CMP #$6A                        A:6A X:F4 Y:00 P:24 SP:FB PPU: 79,274
DA1D  D0 02     BNE $DA21                       A:6A X:F4 Y:00 P:27 SP:FB PPU: 79,280
DA1F  50 02     BVC $DA23                       A:6A X:F4 Y:00 P:27 SP:FB PPU: 79,286
DA23  E8        INX                             A:6A X:F4 Y:00 P:27 SP:FB PPU: 79,295
DA24  38        SEC                             A:6A X:F5 Y:00 P:A5 SP:FB PPU: 79,301
DA25  B8        CLV                             A:6A X:F5 Y:00 P:A5 SP:FB PPU: 79,307
DA26  A9 7F     LDA #$7F                        A:6A X:F5 Y:00 P:A5 SP:FB PPU: 79,313
DA28  8D 00 04  STA $0400 = 69                  A:7F X:F5 Y:00 P:25 SP:FB PPU: 79,319
DA2B  71 33     ADC ($33),Y = 0400 @ 0400 = 7F  A:7F X:F5 Y:00 P:25 SP:FB PPU: 79,331
DA2D  10 08     BPL $DA37                       A:FF X:F5 Y:00 P:E4 SP:FB PPU: 80,  5
DA2F  B0 06     BCS $DA37                       A:FF X:F5 Y:00 P:E4 SP:FB PPU: 80, 11
DA31  C9 FF     CMP #$FF                        A:FF X:F5 Y:00 P:E4 SP:FB PPU: 80, 17
DA33  D0 02     BNE $DA37                       A:FF X:F5 Y:00 P:67 SP:FB PPU: 80, 23
DA35  70 02     BVS $DA39                       A:FF X:F5 Y:00 P:67 SP:FB PPU: 80, 29
DA39  E8        INX                             A:FF X:F5 Y:00 P:67 SP:FB PPU: 80, 38
DA3A  18        CLC                             A:FF X:F6 Y:00 P:E5 SP:FB PPU: 80, 44
DA3B  24 01     BIT $01 = FF                    A:FF X:F6 Y:00 P:E4 SP:FB PPU: 80, 50
DA3D  A9 80     LDA #$80                        A:FF X:F6 Y:00 P:E4 SP:FB PPU: 80, 59
DA3F  8D 00 04  STA $0400 = 7F                  A:80 X:F6 Y:00 P:E4 SP:FB PPU: 80, 65
DA42  A9 7F     LDA #$7F                        A:80 X:F6 Y:00 P:E4 SP:FB PPU: 80, 77
DA44  71 33     ADC ($33),Y = 0400 @ 0400 = 80  A:7F X:F6 Y:00 P:64 SP:FB PPU: 80, 83
DA46  10 08     BPL $DA50                       A:FF X:F6 Y:00 P:A4 SP:FB PPU: 80, 98
DA48  B0 06     BCS $DA50                       A:FF X:F6 Y:00 P:A4 SP:FB PPU: 80,104
DA4A  C9 FF     CMP #$FF                        A:FF X:F6 Y:00 P:A4 SP:FB PPU: 80,110
DA4C  D0 02     BNE $DA50                       A:FF X:F6 Y:00 P:27 SP:FB PPU: 80,116
DA4E  50 02     BVC $DA52                       A:FF X:F6 Y:00 P:27 SP:FB PPU: 80,122
DA52  E8        INX                             A:FF X:F6 Y:00 P:27 SP:FB PPU: 80,131
DA53  38        SEC                             A:FF X:F7 Y:00 P:A5 SP:FB PPU: 80,137
DA54  B8        CLV                             A:FF X:F7 Y:00 P:A5 SP:FB PPU: 80,143
DA55  A9 80     LDA #$80                        A:FF X:F7 Y:00 P:A5 SP:FB PPU: 80,149
DA57  8D 00 04  STA $0400 = 80                  A:80 X:F7 Y:00 P:A5 SP:FB PPU: 80,155
DA5A  A9 7F     LDA #$7F                        A:80 X:F7 Y:00 P:A5 SP:FB PPU: 80,167
DA5C  71 33     ADC ($33),Y = 0400 @ 0400 = 80  A:7F X:F7 Y:00 P:25 SP:FB PPU: 80,173
DA5E  D0 06     BNE $DA66                       A:00 X:F7 Y:00 P:27 SP:FB PPU: 80,188
DA60  30 04     BMI $DA66                       A:00 X:F7 Y:00 P:27 SP:FB PPU: 80,194
DA62  70 02     BVS $DA66                       A:00 X:F7 Y:00 P:27 SP:FB PPU: 80,200
DA64  B0 02     BCS $DA68                       A:00 X:F7 Y:00 P:27 SP:FB PPU: 80,206
DA68  E8        INX                             A:00 X:F7 Y:00 P:27 SP:FB PPU: 80,215
DA69  24 01     BIT $01 = FF                    A:00 X:F8 Y:00 P:A5 SP:FB PPU: 80,221
DA6B  A9 40     LDA #$40                        A:00 X:F8 Y:00 P:E7 SP:FB PPU: 80,230
DA6D  8D 00 04  STA $0400 = 80                  A:40 X:F8 Y:00 P:65 SP:FB PPU: 80,236
DA70  D1 33     CMP ($33),Y = 0400 @ 0400 = 40  A:40 X:F8 Y:00 P:65 SP:FB PPU: 80,248
DA72  30 06     BMI $DA7A                       A:40 X:F8 Y:00 P:67 SP:FB PPU: 80,263
DA74  90 04     BCC $DA7A                       A:40 X:F8 Y:00 P:67 SP:FB PPU: 80,269
DA76  D0 02     BNE $DA7A                       A:40 X:F8 Y:00 P:67 SP:FB PPU: 80,275
DA78  70 02     BVS $DA7C                       A:40 X:F8 Y:00 P:67 SP:FB PPU: 80,281
DA7C  E8        INX                             A:40 X:F8 Y:00 P:67 SP:FB PPU: 80,290
DA7D  B8        CLV                             A:40 X:F9 Y:00 P:E5 SP:FB PPU: 80,296
DA7E  CE 00 04  DEC $0400 = 40                  A:40 X:F9 Y:00 P:A5 SP:FB PPU: 80,302
DA81  D1 33     CMP ($33),Y = 0400 @ 0400 = 3F  A:40 X:F9 Y:00 P:25 SP:FB PPU: 80,320
DA83  F0 06     BEQ $DA8B                       A:40 X:F9 Y:00 P:25 SP:FB PPU: 80,335
DA85  30 04     BMI $DA8B                       A:40 X:F9 Y:00 P:25 SP:FB PPU: 81,  0
DA87  90 02     BCC $DA8B                       A:40 X:F9 Y:00 P:25 SP:FB PPU: 81,  6
DA89  50 02     BVC $DA8D                       A:40 X:F9 Y:00 P:25 SP:FB PPU: 81, 12
DA8D  E8        INX                             A:40 X:F9 Y:00 P:25 SP:FB PPU: 81, 21
DA8E  EE 00 04  INC $0400 = 3F                  A:40 X:FA Y:00 P:A5 SP:FB PPU: 81, 27
DA91  EE 00 04  INC $0400 = 40                  A:40 X:FA Y:00 P:25 SP:FB PPU: 81, 45
DA94  D1 33     CMP ($33),Y = 0400 @ 0400 = 41  A:40 X:FA Y:00 P:25 SP:FB PPU: 81, 63
DA96  F0 02     BEQ $DA9A                       A:40 X:FA Y:00 P:A4 SP:FB PPU: 81, 78
DA98  30 02     BMI $DA9C                       A:40 X:FA Y:00 P:A4 SP:FB PPU: 81, 84
DA9C  E8        INX                             A:40 X:FA Y:00 P:A4 SP:FB PPU: 81, 93
DA9D  A9 00     LDA #$00                        A:40 X:FB Y:00 P:A4 SP:FB PPU: 81, 99
DA9F  8D 00 04  STA $0400 = 41                  A:00 X:FB Y:00 P:26 SP:FB PPU: 81,105
DAA2  A9 80     LDA #$80                        A:00 X:FB Y:00 P:26 SP:FB PPU: 81,117
DAA4  D1 33     CMP ($33),Y = 0400 @ 0400 = 00  A:80 X:FB Y:00 P:A4 SP:FB PPU: 81,123
DAA6  F0 04     BEQ $DAAC                       A:80 X:FB Y:00 P:A5 SP:FB PPU: 81,138
DAA8  10 02     BPL $DAAC                       A:80 X:FB Y:00 P:A5 SP:FB PPU: 81,144
DAAA  B0 02     BCS $DAAE                       A:80 X:FB Y:00 P:A5 SP:FB PPU: 81,150
DAAE  E8        INX                             A:80 X:FB Y:00 P:A5 SP:FB PPU: 81,159
DAAF  A0 80     LDY #$80                        A:80 X:FC Y:00 P:A5 SP:FB PPU: 81,165
DAB1  8C 00 04  STY $0400 = 00                  A:80 X:FC Y:80 P:A5 SP:FB PPU: 81,171
DAB4  A0 00     LDY #$00                        A:80 X:FC Y:80 P:A5 SP:FB PPU: 81,183
DAB6  D1 33     CMP ($33),Y = 0400 @ 0400 = 80  A:80 X:FC Y:00 P:27 SP:FB PPU: 81,189
DAB8  D0 04     BNE $DABE                       A:80 X:FC Y:00 P:27 SP:FB PPU: 81,204
DABA  30 02     BMI $DABE                       A:80 X:FC Y:00 P:27 SP:FB PPU: 81,210
DABC  B0 02     BCS $DAC0                       A:80 X:FC Y:00 P:27 SP:FB PPU: 81,216
DAC0  E8        INX                             A:80 X:FC Y:00 P:27 SP:FB PPU: 81,225
DAC1  EE 00 04  INC $0400 = 80                  A:80 X:FD Y:00 P:A5 SP:FB PPU: 81,231
DAC4  D1 33     CMP ($33),Y = 0400 @ 0400 = 81  A:80 X:FD Y:00 P:A5 SP:FB PPU: 81,249
DAC6  B0 04     BCS $DACC                       A:80 X:FD Y:00 P:A4 SP:FB PPU: 81,264
DAC8  F0 02     BEQ $DACC                       A:80 X:FD Y:00 P:A4 SP:FB PPU: 81,270
DACA  30 02     BMI $DACE                       A:80 X:FD Y:00 P:A4 SP:FB PPU: 81,276
DACE  E8        INX                             A:80 X:FD Y:00 P:A4 SP:FB PPU: 81,285
DACF  CE 00 04  DEC $0400 = 81                  A:80 X:FE Y:00 P:A4 SP:FB PPU: 81,291
DAD2  CE 00 04  DEC $0400 = 80                  A:80 X:FE Y:00 P:A4 SP:FB PPU: 81,309
DAD5  D1 33     CMP ($33),Y = 0400 @ 0400 = 7F  A:80 X:FE Y:00 P:24 SP:FB PPU: 81,327
DAD7  90 04     BCC $DADD                       A:80 X:FE Y:00 P:25 SP:FB PPU: 82,  1
DAD9  F0 02     BEQ $DADD                       A:80 X:FE Y:00 P:25 SP:FB PPU: 82,  7
DADB  10 02     BPL $DADF                       A:80 X:FE Y:00 P:25 SP:FB PPU: 82, 13
DADF  60        RTS                             A:80 X:FE Y:00 P:25 SP:FB PPU: 82, 22
C61B  A5 00     LDA $00 = 00                    A:80 X:FE Y:00 P:25 SP:FD PPU: 82, 40
C61D  85 10     STA $10 = 00                    A:00 X:FE Y:00 P:27 SP:FD PPU: 82, 49
C61F  A9 00     LDA #$00                        A:00 X:FE Y:00 P:27 SP:FD PPU: 82, 58
C621  85 00     STA $00 = 00                    A:00 X:FE Y:00 P:27 SP:FD PPU: 82, 64
C623  20 E0 DA  JSR $DAE0                       A:00 X:FE Y:00 P:27 SP:FD PPU: 82, 73
DAE0  A9 00     LDA #$00                        A:00 X:FE Y:00 P:27 SP:FB PPU: 82, 91
DAE2  85 33     STA $33 = 00                    A:00 X:FE Y:00 P:27 SP:FB PPU: 82, 97
DAE4  A9 04     LDA #$04                        A:00 X:FE Y:00 P:27 SP:FB PPU: 82,106
DAE6  85 34     STA $34 = 04                    A:04 X:FE Y:00 P:25 SP:FB PPU: 82,112
DAE8  A0 00     LDY #$00                        A:04 X:FE Y:00 P:25 SP:FB PPU: 82,121
DAEA  A2 01     LDX #$01                        A:04 X:FE Y:00 P:27 SP:FB PPU: 82,127
DAEC  24 01     BIT $01 = FF                    A:04 X:01 Y:00 P:25 SP:FB PPU: 82,133
DAEE  A9 40     LDA #$40                        A:04 X:01 Y:00 P:E5 SP:FB PPU: 82,142
DAF0  8D 00 04  STA $0400 = 7F                  A:40 X:01 Y:00 P:65 SP:FB PPU: 82,148
DAF3  38        SEC                             A:40 X:01 Y:00 P:65 SP:FB PPU: 82,160
DAF4  F1 33     SBC ($33),Y = 0400 @ 0400 = 40  A:40 X:01 Y:00 P:65 SP:FB PPU: 82,166
DAF6  30 0A     BMI $DB02                       A:00 X:01 Y:00 P:27 SP:FB PPU: 82,181
DAF8  90 08     BCC $DB02                       A:00 X:01 Y:00 P:27 SP:FB PPU: 82,187
DAFA  D0 06     BNE $DB02                       A:00 X:01 Y:00 P:27 SP:FB PPU: 82,193
DAFC  70 04     BVS $DB02                       A:00 X:01 Y:00 P:27 SP:FB PPU: 82,199
DAFE  C9 00     CMP #$00                        A:00 X:01 Y:00 P:27 SP:FB PPU: 82,205
DB00  F0 02     BEQ $DB04                       A:00 X:01 Y:00 P:27 SP:FB PPU: 82,211
DB04  E8        INX                             A:00 X:01 Y:00 P:27 SP:FB PPU: 82,220
DB05  B8        CLV                             A:00 X:02 Y:00 P:25 SP:FB PPU: 82,226
DB06  38        SEC                             A:00 X:02 Y:00 P:25 SP:FB PPU: 82,232
DB07  A9 40     LDA #$40                        A:00 X:02 Y:00 P:25 SP:FB PPU: 82,238
DB09  CE 00 04  DEC $0400 = 40                  A:40 X:02 Y:00 P:25 SP:FB PPU: 82,244
DB0C  F1 33     SBC ($33),Y = 0400 @ 0400 = 3F  A:40 X:02 Y:00 P:25 SP:FB PPU: 82,262
DB0E  F0 0A     BEQ $DB1A                       A:01 X:02 Y:00 P:25 SP:FB PPU: 82,277
DB10  30 08     BMI $DB1A                       A:01 X:02 Y:00 P:25 SP:FB PPU: 82,283
DB12  90 06     BCC $DB1A                       A:01 X:02 Y:00 P:25 SP:FB PPU: 82,289
DB14  70 04     BVS $DB1A                       A:01 X:02 Y:00 P:25 SP:FB PPU: 82,295
DB16  C9 01     CMP #$01                        A:01 X:02 Y:00 P:25 SP:FB PPU: 82,301
DB18  F0 02     BEQ $DB1C                       A:01 X:02 Y:00 P:27 SP:FB PPU: 82,307
DB1C  E8        INX                             A:01 X:02 Y:00 P:27 SP:FB PPU: 82,316
DB1D  A9 40     LDA #$40                        A:01 X:03 Y:00 P:25 SP:FB PPU: 82,322
DB1F  38        SEC                             A:40 X:03 Y:00 P:25 SP:FB PPU: 82,328
DB20  24 01     BIT $01 = FF                    A:40 X:03 Y:00 P:25 SP:FB PPU: 82,334
DB22  EE 00 04  INC $0400 = 3F                  A:40 X:03 Y:00 P:E5 SP:FB PPU: 83,  2
DB25  EE 00 04  INC $0400 = 40                  A:40 X:03 Y:00 P:65 SP:FB PPU: 83, 20
DB28  F1 33     SBC ($33),Y = 0400 @ 0400 = 41  A:40 X:03 Y:00 P:65 SP:FB PPU: 83, 38
DB2A  B0 0A     BCS $DB36                       A:FF X:03 Y:00 P:A4 SP:FB PPU: 83, 53
DB2C  F0 08     BEQ $DB36                       A:FF X:03 Y:00 P:A4 SP:FB PPU: 83, 59
DB2E  10 06     BPL $DB36                       A:FF X:03 Y:00 P:A4 SP:FB PPU: 83, 65
DB30  70 04     BVS $DB36                       A:FF X:03 Y:00 P:A4 SP:FB PPU: 83, 71
DB32  C9 FF     CMP #$FF                        A:FF X:03 Y:00 P:A4 SP:FB PPU: 83, 77
DB34  F0 02     BEQ $DB38                       A:FF X:03 Y:00 P:27 SP:FB PPU: 83, 83
DB38  E8        INX                             A:FF X:03 Y:00 P:27 SP:FB PPU: 83, 92
DB39  18        CLC                             A:FF X:04 Y:00 P:25 SP:FB PPU: 83, 98
DB3A  A9 00     LDA #$00                        A:FF X:04 Y:00 P:24 SP:FB PPU: 83,104
DB3C  8D 00 04  STA $0400 = 41                  A:00 X:04 Y:00 P:26 SP:FB PPU: 83,110
DB3F  A9 80     LDA #$80                        A:00 X:04 Y:00 P:26 SP:FB PPU: 83,122
DB41  F1 33     SBC ($33),Y = 0400 @ 0400 = 00  A:80 X:04 Y:00 P:A4 SP:FB PPU: 83,128
DB43  90 04     BCC $DB49                       A:7F X:04 Y:00 P:65 SP:FB PPU: 83,143
DB45  C9 7F     CMP #$7F                        A:7F X:04 Y:00 P:65 SP:FB PPU: 83,149
DB47  F0 02     BEQ $DB4B                       A:7F X:04 Y:00 P:67 SP:FB PPU: 83,155
DB4B  E8        INX                             A:7F X:04 Y:00 P:67 SP:FB PPU: 83,164
DB4C  38        SEC                             A:7F X:05 Y:00 P:65 SP:FB PPU: 83,170
DB4D  A9 7F     LDA #$7F                        A:7F X:05 Y:00 P:65 SP:FB PPU: 83,176
DB4F  8D 00 04  STA $0400 = 00                  A:7F X:05 Y:00 P:65 SP:FB PPU: 83,182
DB52  A9 81     LDA #$81                        A:7F X:05 Y:00 P:65 SP:FB PPU: 83,194
DB54  F1 33     SBC ($33),Y = 0400 @ 0400 = 7F  A:81 X:05 Y:00 P:E5 SP:FB PPU: 83,200
DB56  50 06     BVC $DB5E                       A:02 X:05 Y:00 P:65 SP:FB PPU: 83,215
DB58  90 04     BCC $DB5E                       A:02 X:05 Y:00 P:65 SP:FB PPU: 83,221
DB5A  C9 02     CMP #$02                        A:02 X:05 Y:00 P:65 SP:FB PPU: 83,227
DB5C  F0 02     BEQ $DB60                       A:02 X:05 Y:00 P:67 SP:FB PPU: 83,233
DB60  E8        INX                             A:02 X:05 Y:00 P:67 SP:FB PPU: 83,242
DB61  A9 00     LDA #$00                        A:02 X:06 Y:00 P:65 SP:FB PPU: 83,248
DB63  A9 87     LDA #$87                        A:00 X:06 Y:00 P:67 SP:FB PPU: 83,254
DB65  91 33     STA ($33),Y = 0400 @ 0400 = 7F  A:87 X:06 Y:00 P:E5 SP:FB PPU: 83,260
DB67  AD 00 04  LDA $0400 = 87                  A:87 X:06 Y:00 P:E5 SP:FB PPU: 83,278
DB6A  C9 87     CMP #$87                        A:87 X:06 Y:00 P:E5 SP:FB PPU: 83,290
DB6C  F0 02     BEQ $DB70                       A:87 X:06 Y:00 P:67 SP:FB PPU: 83,296
DB70  E8        INX                             A:87 X:06 Y:00 P:67 SP:FB PPU: 83,305
DB71  A9 7E     LDA #$7E                        A:87 X:07 Y:00 P:65 SP:FB PPU: 83,311
DB73  8D 00 02  STA $0200 = 7F                  A:7E X:07 Y:00 P:65 SP:FB PPU: 83,317
DB76  A9 DB     LDA #$DB                        A:7E X:07 Y:00 P:65 SP:FB PPU: 83,329
DB78  8D 01 02  STA $0201 = 00                  A:DB X:07 Y:00 P:E5 SP:FB PPU: 83,335
DB7B  6C 00 02  JMP ($0200) = DB7E              A:DB X:07 Y:00 P:E5 SP:FB PPU: 84,  6
DB7E  A9 00     LDA #$00                        A:DB X:07 Y:00 P:E5 SP:FB PPU: 84, 21
DB80  8D FF 02  STA $02FF = 00                  A:00 X:07 Y:00 P:67 SP:FB PPU: 84, 27
DB83  A9 01     LDA #$01                        A:00 X:07 Y:00 P:67 SP:FB PPU: 84, 39
DB85  8D 00 03  STA $0300 = 89                  A:01 X:07 Y:00 P:65 SP:FB PPU: 84, 45
DB88  A9 03     LDA #$03                        A:01 X:07 Y:00 P:65 SP:FB PPU: 84, 57
DB8A  8D 00 02  STA $0200 = 7E                  A:03 X:07 Y:00 P:65 SP:FB PPU: 84, 63
DB8D  A9 A9     LDA #$A9                        A:03 X:07 Y:00 P:65 SP:FB PPU: 84, 75
DB8F  8D 00 01  STA $0100 = 00                  A:A9 X:07 Y:00 P:E5 SP:FB PPU: 84, 81
DB92  A9 55     LDA #$55                        A:A9 X:07 Y:00 P:E5 SP:FB PPU: 84, 93
DB94  8D 01 01  STA $0101 = 00                  A:55 X:07 Y:00 P:65 SP:FB PPU: 84, 99
DB97  A9 60     LDA #$60                        A:55 X:07 Y:00 P:65 SP:FB PPU: 84,111
DB99  8D 02 01  STA $0102 = 00                  A:60 X:07 Y:00 P:65 SP:FB PPU: 84,117
DB9C  A9 A9     LDA #$A9                        A:60 X:07 Y:00 P:65 SP:FB PPU: 84,129
DB9E  8D 00 03  STA $0300 = 01                  A:A9 X:07 Y:00 P:E5 SP:FB PPU: 84,135
DBA1  A9 AA     LDA #$AA                        A:A9 X:07 Y:00 P:E5 SP:FB PPU: 84,147
DBA3  8D 01 03  STA $0301 = 00                  A:AA X:07 Y:00 P:E5 SP:FB PPU: 84,153
DBA6  A9 60     LDA #$60                        A:AA X:07 Y:00 P:E5 SP:FB PPU: 84,165
DBA8  8D 02 03  STA $0302 = 00                  A:60 X:07 Y:00 P:65 SP:FB PPU: 84,171
DBAB  20 B5 DB  JSR $DBB5                       A:60 X:07 Y:00 P:65 SP:FB PPU: 84,183
DBB5  6C FF 02  JMP ($02FF) = 0300              A:60 X:07 Y:00 P:65 SP:F9 PPU: 84,201
0300  A9 AA     LDA #$AA                        A:60 X:07 Y:00 P:65 SP:F9 PPU: 84,216
0302  60        RTS                             A:AA X:07 Y:00 P:E5 SP:F9 PPU: 84,222
DBAE  C9 AA     CMP #$AA                        A:AA X:07 Y:00 P:E5 SP:FB PPU: 84,240
DBB0  F0 02     BEQ $DBB4                       A:AA X:07 Y:00 P:67 SP:FB PPU: 84,246
DBB4  60        RTS                             A:AA X:07 Y:00 P:67 SP:FB PPU: 84,255
C626  20 4A DF  JSR $DF4A                       A:AA X:07 Y:00 P:67 SP:FD PPU: 84,273
DF4A  A9 89     LDA #$89                        A:AA X:07 Y:00 P:67 SP:FB PPU: 84,291
DF4C  8D 00 03  STA $0300 = A9                  A:89 X:07 Y:00 P:E5 SP:FB PPU: 84,297
DF4F  A9 A3     LDA #$A3                        A:89 X:07 Y:00 P:E5 SP:FB PPU: 84,309
DF51  85 33     STA $33 = 00                    A:A3 X:07 Y:00 P:E5 SP:FB PPU: 84,315
DF53  A9 12     LDA #$12                        A:A3 X:07 Y:00 P:E5 SP:FB PPU: 84,324
DF55  8D 45 02  STA $0245 = 12                  A:12 X:07 Y:00 P:65 SP:FB PPU: 84,330
DF58  A2 65     LDX #$65                        A:12 X:07 Y:00 P:65 SP:FB PPU: 85,  1
DF5A  A0 00     LDY #$00                        A:12 X:65 Y:00 P:65 SP:FB PPU: 85,  7
DF5C  38        SEC                             A:12 X:65 Y:00 P:67 SP:FB PPU: 85, 13
DF5D  A9 00     LDA #$00                        A:12 X:65 Y:00 P:67 SP:FB PPU: 85, 19
DF5F  B8        CLV                             A:00 X:65 Y:00 P:67 SP:FB PPU: 85, 25
DF60  B9 00 03  LDA $0300,Y @ 0300 = 89         A:00 X:65 Y:00 P:27 SP:FB PPU: 85, 31
DF63  F0 0C     BEQ $DF71                       A:89 X:65 Y:00 P:A5 SP:FB PPU: 85, 43
DF65  90 0A     BCC $DF71                       A:89 X:65 Y:00 P:A5 SP:FB PPU: 85, 49
DF67  70 08     BVS $DF71                       A:89 X:65 Y:00 P:A5 SP:FB PPU: 85, 55
DF69  C9 89     CMP #$89                        A:89 X:65 Y:00 P:A5 SP:FB PPU: 85, 61
DF6B  D0 04     BNE $DF71                       A:89 X:65 Y:00 P:27 SP:FB PPU: 85, 67
DF6D  E0 65     CPX #$65                        A:89 X:65 Y:00 P:27 SP:FB PPU: 85, 73
DF6F  F0 04     BEQ $DF75                       A:89 X:65 Y:00 P:27 SP:FB PPU: 85, 79
DF75  A9 FF     LDA #$FF                        A:89 X:65 Y:00 P:27 SP:FB PPU: 85, 88
DF77  85 01     STA $01 = FF                    A:FF X:65 Y:00 P:A5 SP:FB PPU: 85, 94
DF79  24 01     BIT $01 = FF                    A:FF X:65 Y:00 P:A5 SP:FB PPU: 85,103
DF7B  A0 34     LDY #$34                        A:FF X:65 Y:00 P:E5 SP:FB PPU: 85,112
DF7D  B9 FF FF  LDA $FFFF,Y @ 0033 = A3         A:FF X:65 Y:34 P:65 SP:FB PPU: 85,118
DF80  C9 A3     CMP #$A3                        A:A3 X:65 Y:34 P:E5 SP:FB PPU: 85,133
DF82  D0 02     BNE $DF86                       A:A3 X:65 Y:34 P:67 SP:FB PPU: 85,139
DF84  B0 04     BCS $DF8A                       A:A3 X:65 Y:34 P:67 SP:FB PPU: 85,145
DF8A  A9 46     LDA #$46                        A:A3 X:65 Y:34 P:67 SP:FB PPU: 85,154
DF8C  85 FF     STA $FF = 46                    A:46 X:65 Y:34 P:65 SP:FB PPU: 85,160
DF8E  A0 FF     LDY #$FF                        A:46 X:65 Y:34 P:65 SP:FB PPU: 85,169
DF90  B9 46 01  LDA $0146,Y @ 0245 = 12         A:46 X:65 Y:FF P:E5 SP:FB PPU: 85,175
DF93  C9 12     CMP #$12                        A:12 X:65 Y:FF P:65 SP:FB PPU: 85,190
DF95  F0 04     BEQ $DF9B                       A:12 X:65 Y:FF P:67 SP:FB PPU: 85,196
DF9B  A2 39     LDX #$39                        A:12 X:65 Y:FF P:67 SP:FB PPU: 85,205
DF9D  18        CLC                             A:12 X:39 Y:FF P:65 SP:FB PPU: 85,211
DF9E  A9 FF     LDA #$FF                        A:12 X:39 Y:FF P:64 SP:FB PPU: 85,217
DFA0  85 01     STA $01 = FF                    A:FF X:39 Y:FF P:E4 SP:FB PPU: 85,223
DFA2  24 01     BIT $01 = FF                    A:FF X:39 Y:FF P:E4 SP:FB PPU: 85,232
DFA4  A9 AA     LDA #$AA                        A:FF X:39 Y:FF P:E4 SP:FB PPU: 85,241
DFA6  8D 00 04  STA $0400 = 87                  A:AA X:39 Y:FF P:E4 SP:FB PPU: 85,247
DFA9  A9 55     LDA #$55                        A:AA X:39 Y:FF P:E4 SP:FB PPU: 85,259
DFAB  A0 00     LDY #$00                        A:55 X:39 Y:FF P:64 SP:FB PPU: 85,265
DFAD  19 00 04  ORA $0400,Y @ 0400 = AA         A:55 X:39 Y:00 P:66 SP:FB PPU: 85,271
DFB0  B0 08     BCS $DFBA                       A:FF X:39 Y:00 P:E4 SP:FB PPU: 85,283
DFB2  10 06     BPL $DFBA                       A:FF X:39 Y:00 P:E4 SP:FB PPU: 85,289
DFB4  C9 FF     CMP #$FF                        A:FF X:39 Y:00 P:E4 SP:FB PPU: 85,295
DFB6  D0 02     BNE $DFBA                       A:FF X:39 Y:00 P:67 SP:FB PPU: 85,301
DFB8  70 02     BVS $DFBC                       A:FF X:39 Y:00 P:67 SP:FB PPU: 85,307
DFBC  E8        INX                             A:FF X:39 Y:00 P:67 SP:FB PPU: 85,316
DFBD  38        SEC                             A:FF X:3A Y:00 P:65 SP:FB PPU: 85,322
DFBE  B8        CLV                             A:FF X:3A Y:00 P:65 SP:FB PPU: 85,328
DFBF  A9 00     LDA #$00                        A:FF X:3A Y:00 P:25 SP:FB PPU: 85,334
DFC1  19 00 04  ORA $0400,Y @ 0400 = AA         A:00 X:3A Y:00 P:27 SP:FB PPU: 85,340
DFC4  F0 06     BEQ $DFCC                       A:AA X:3A Y:00 P:A5 SP:FB PPU: 86, 11
DFC6  70 04     BVS $DFCC                       A:AA X:3A Y:00 P:A5 SP:FB PPU: 86, 17
DFC8  90 02     BCC $DFCC                       A:AA X:3A Y:00 P:A5 SP:FB PPU: 86, 23
DFCA  30 02     BMI $DFCE                       A:AA X:3A Y:00 P:A5 SP:FB PPU: 86, 29
DFCE  E8        INX                             A:AA X:3A Y:00 P:A5 SP:FB PPU: 86, 38
DFCF  18        CLC                             A:AA X:3B Y:00 P:25 SP:FB PPU: 86, 44
DFD0  24 01     BIT $01 = FF                    A:AA X:3B Y:00 P:24 SP:FB PPU: 86, 50
DFD2  A9 55     LDA #$55                        A:AA X:3B Y:00 P:E4 SP:FB PPU: 86, 59
DFD4  39 00 04  AND $0400,Y @ 0400 = AA         A:55 X:3B Y:00 P:64 SP:FB PPU: 86, 65
DFD7  D0 06     BNE $DFDF                       A:00 X:3B Y:00 P:66 SP:FB PPU: 86, 77
DFD9  50 04     BVC $DFDF                       A:00 X:3B Y:00 P:66 SP:FB PPU: 86, 83
DFDB  B0 02     BCS $DFDF                       A:00 X:3B Y:00 P:66 SP:FB PPU: 86, 89
DFDD  10 02     BPL $DFE1                       A:00 X:3B Y:00 P:66 SP:FB PPU: 86, 95
DFE1  E8        INX                             A:00 X:3B Y:00 P:66 SP:FB PPU: 86,104
DFE2  38        SEC                             A:00 X:3C Y:00 P:64 SP:FB PPU: 86,110
DFE3  B8        CLV                             A:00 X:3C Y:00 P:65 SP:FB PPU: 86,116
DFE4  A9 EF     LDA #$EF                        A:00 X:3C Y:00 P:25 SP:FB PPU: 86,122
DFE6  8D 00 04  STA $0400 = AA                  A:EF X:3C Y:00 P:A5 SP:FB PPU: 86,128
DFE9  A9 F8     LDA #$F8                        A:EF X:3C Y:00 P:A5 SP:FB PPU: 86,140
DFEB  39 00 04  AND $0400,Y @ 0400 = EF         A:F8 X:3C Y:00 P:A5 SP:FB PPU: 86,146
DFEE  90 08     BCC $DFF8                       A:E8 X:3C Y:00 P:A5 SP:FB PPU: 86,158
DFF0  10 06     BPL $DFF8                       A:E8 X:3C Y:00 P:A5 SP:FB PPU: 86,164
DFF2  C9 E8     CMP #$E8                        A:E8 X:3C Y:00 P:A5 SP:FB PPU: 86,170
DFF4  D0 02     BNE $DFF8                       A:E8 X:3C Y:00 P:27 SP:FB PPU: 86,176
DFF6  50 02     BVC $DFFA                       A:E8 X:3C Y:00 P:27 SP:FB PPU: 86,182
DFFA  E8        INX                             A:E8 X:3C Y:00 P:27 SP:FB PPU: 86,191
DFFB  18        CLC                             A:E8 X:3D Y:00 P:25 SP:FB PPU: 86,197
DFFC  24 01     BIT $01 = FF                    A:E8 X:3D Y:00 P:24 SP:FB PPU: 86,203
DFFE  A9 AA     LDA #$AA                        A:E8 X:3D Y:00 P:E4 SP:FB PPU: 86,212
E000  8D 00 04  STA $0400 = EF                  A:AA X:3D Y:00 P:E4 SP:FB PPU: 86,218
E003  A9 5F     LDA #$5F                        A:AA X:3D Y:00 P:E4 SP:FB PPU: 86,230
E005  59 00 04  EOR $0400,Y @ 0400 = AA         A:5F X:3D Y:00 P:64 SP:FB PPU: 86,236
E008  B0 08     BCS $E012                       A:F5 X:3D Y:00 P:E4 SP:FB PPU: 86,248
E00A  10 06     BPL $E012                       A:F5 X:3D Y:00 P:E4 SP:FB PPU: 86,254
E00C  C9 F5     CMP #$F5                        A:F5 X:3D Y:00 P:E4 SP:FB PPU: 86,260
E00E  D0 02     BNE $E012                       A:F5 X:3D Y:00 P:67 SP:FB PPU: 86,266
E010  70 02     BVS $E014                       A:F5 X:3D Y:00 P:67 SP:FB PPU: 86,272
E014  E8        INX                             A:F5 X:3D Y:00 P:67 SP:FB PPU: 86,281
E015  38        SEC                             A:F5 X:3E Y:00 P:65 SP:FB PPU: 86,287
E016  B8        CLV                             A:F5 X:3E Y:00 P:65 SP:FB PPU: 86,293
E017  A9 70     LDA #$70                        A:F5 X:3E Y:00 P:25 SP:FB PPU: 86,299
E019  8D 00 04  STA $0400 = AA                  A:70 X:3E Y:00 P:25 SP:FB PPU: 86,305
E01C  59 00 04  EOR $0400,Y @ 0400 = 70         A:70 X:3E Y:00 P:25 SP:FB PPU: 86,317
E01F  D0 06     BNE $E027                       A:00 X:3E Y:00 P:27 SP:FB PPU: 86,329
E021  70 04     BVS $E027                       A:00 X:3E Y:00 P:27 SP:FB PPU: 86,335
E023  90 02     BCC $E027                       A:00 X:3E Y:00 P:27 SP:FB PPU: 87,  0
E025  10 02     BPL $E029                       A:00 X:3E Y:00 P:27 SP:FB PPU: 87,  6
E029  E8        INX                             A:00 X:3E Y:00 P:27 SP:FB PPU: 87, 15
E02A  18        CLC                             A:00 X:3F Y:00 P:25 SP:FB PPU: 87, 21
E02B  24 01     BIT $01 = FF                    A:00 X:3F Y:00 P:24 SP:FB PPU: 87, 27
E02D  A9 69     LDA #$69                        A:00 X:3F Y:00 P:E6 SP:FB PPU: 87, 36
E02F  8D 00 04  STA $0400 = 70                  A:69 X:3F Y:00 P:64 SP:FB PPU: 87, 42
E032  A9 00     LDA #$00                        A:69 X:3F Y:00 P:64 SP:FB PPU: 87, 54
E034  79 00 04  ADC $0400,Y @ 0400 = 69         A:00 X:3F Y:00 P:66 SP:FB PPU: 87, 60
E037  30 08     BMI $E041                       A:69 X:3F Y:00 P:24 SP:FB PPU: 87, 72
E039  B0 06     BCS $E041                       A:69 X:3F Y:00 P:24 SP:FB PPU: 87, 78
E03B  C9 69     CMP #$69                        A:69 X:3F Y:00 P:24 SP:FB PPU: 87, 84
E03D  D0 02     BNE $E041                       A:69 X:3F Y:00 P:27 SP:FB PPU: 87, 90
E03F  50 02     BVC $E043                       A:69 X:3F Y:00 P:27 SP:FB PPU: 87, 96
E043  E8        INX                             A:69 X:3F Y:00 P:27 SP:FB PPU: 87,105
E044  38        SEC                             A:69 X:40 Y:00 P:25 SP:FB PPU: 87,111
E045  24 01     BIT $01 = FF                    A:69 X:40 Y:00 P:25 SP:FB PPU: 87,117
E047  A9 00     LDA #$00                        A:69 X:40 Y:00 P:E5 SP:FB PPU: 87,126
E049  79 00 04  ADC $0400,Y @ 0400 = 69         A:00 X:40 Y:00 P:67 SP:FB PPU: 87,132
E04C  30 08     BMI $E056                       A:6A X:40 Y:00 P:24 SP:FB PPU: 87,144
E04E  B0 06     BCS $E056                       A:6A X:40 Y:00 P:24 SP:FB PPU: 87,150
E050  C9 6A     CMP #$6A                        A:6A X:40 Y:00 P:24 SP:FB PPU: 87,156
E052  D0 02     BNE $E056                       A:6A X:40 Y:00 P:27 SP:FB PPU: 87,162
E054  50 02     BVC $E058                       A:6A X:40 Y:00 P:27 SP:FB PPU: 87,168
E058  E8        INX                             A:6A X:40 Y:00 P:27 SP:FB PPU: 87,177
E059  38        SEC                             A:6A X:41 Y:00 P:25 SP:FB PPU: 87,183
E05A  B8        CLV                             A:6A X:41 Y:00 P:25 SP:FB PPU: 87,189
E05B  A9 7F     LDA #$7F                        A:6A X:41 Y:00 P:25 SP:FB PPU: 87,195
E05D  8D 00 04  STA $0400 = 69                  A:7F X:41 Y:00 P:25 SP:FB PPU: 87,201
E060  79 00 04  ADC $0400,Y @ 0400 = 7F         A:7F X:41 Y:00 P:25 SP:FB PPU: 87,213
E063  10 08     BPL $E06D                       A:FF X:41 Y:00 P:E4 SP:FB PPU: 87,225
E065  B0 06     BCS $E06D                       A:FF X:41 Y:00 P:E4 SP:FB PPU: 87,231
E067  C9 FF     CMP #$FF                        A:FF X:41 Y:00 P:E4 SP:FB PPU: 87,237
E069  D0 02     BNE $E06D                       A:FF X:41 Y:00 P:67 SP:FB PPU: 87,243
E06B  70 02     BVS $E06F                       A:FF X:41 Y:00 P:67 SP:FB PPU: 87,249
E06F  E8        INX                             A:FF X:41 Y:00 P:67 SP:FB PPU: 87,258
E070  18        CLC                             A:FF X:42 Y:00 P:65 SP:FB PPU: 87,264
E071  24 01     BIT $01 = FF                    A:FF X:42 Y:00 P:64 SP:FB PPU: 87,270
E073  A9 80     LDA #$80                        A:FF X:42 Y:00 P:E4 SP:FB PPU: 87,279
E075  8D 00 04  STA $0400 = 7F                  A:80 X:42 Y:00 P:E4 SP:FB PPU: 87,285
E078  A9 7F     LDA #$7F                        A:80 X:42 Y:00 P:E4 SP:FB PPU: 87,297
E07A  79 00 04  ADC $0400,Y @ 0400 = 80         A:7F X:42 Y:00 P:64 SP:FB PPU: 87,303
E07D  10 08     BPL $E087                       A:FF X:42 Y:00 P:A4 SP:FB PPU: 87,315
E07F  B0 06     BCS $E087                       A:FF X:42 Y:00 P:A4 SP:FB PPU: 87,321
E081  C9 FF     CMP #$FF                        A:FF X:42 Y:00 P:A4 SP:FB PPU: 87,327
E083  D0 02     BNE $E087                       A:FF X:42 Y:00 P:27 SP:FB PPU: 87,333
E085  50 02     BVC $E089                       A:FF X:42 Y:00 P:27 SP:FB PPU: 87,339
E089  E8        INX                             A:FF X:42 Y:00 P:27 SP:FB PPU: 88,  7
E08A  38        SEC                             A:FF X:43 Y:00 P:25 SP:FB PPU: 88, 13
E08B  B8        CLV                             A:FF X:43 Y:00 P:25 SP:FB PPU: 88, 19
E08C  A9 80     LDA #$80                        A:FF X:43 Y:00 P:25 SP:FB PPU: 88, 25
E08E  8D 00 04  STA $0400 = 80                  A:80 X:43 Y:00 P:A5 SP:FB PPU: 88, 31
E091  A9 7F     LDA #$7F                        A:80 X:43 Y:00 P:A5 SP:FB PPU: 88, 43
E093  79 00 04  ADC $0400,Y @ 0400 = 80         A:7F X:43 Y:00 P:25 SP:FB PPU: 88, 49
E096  D0 06     BNE $E09E                       A:00 X:43 Y:00 P:27 SP:FB PPU: 88, 61
E098  30 04     BMI $E09E                       A:00 X:43 Y:00 P:27 SP:FB PPU: 88, 67
E09A  70 02     BVS $E09E                       A:00 X:43 Y:00 P:27 SP:FB PPU: 88, 73
E09C  B0 02     BCS $E0A0                       A:00 X:43 Y:00 P:27 SP:FB PPU: 88, 79
E0A0  E8        INX                             A:00 X:43 Y:00 P:27 SP:FB PPU: 88, 88
E0A1  24 01     BIT $01 = FF                    A:00 X:44 Y:00 P:25 SP:FB PPU: 88, 94
E0A3  A9 40     LDA #$40                        A:00 X:44 Y:00 P:E7 SP:FB PPU: 88,103
E0A5  8D 00 04  STA $0400 = 80                  A:40 X:44 Y:00 P:65 SP:FB PPU: 88,109
E0A8  D9 00 04  CMP $0400,Y @ 0400 = 40         A:40 X:44 Y:00 P:65 SP:FB PPU: 88,121
E0AB  30 06     BMI $E0B3                       A:40 X:44 Y:00 P:67 SP:FB PPU: 88,133
E0AD  90 04     BCC $E0B3                       A:40 X:44 Y:00 P:67 SP:FB PPU: 88,139
E0AF  D0 02     BNE $E0B3                       A:40 X:44 Y:00 P:67 SP:FB PPU: 88,145
E0B1  70 02     BVS $E0B5                       A:40 X:44 Y:00 P:67 SP:FB PPU: 88,151
E0B5  E8        INX                             A:40 X:44 Y:00 P:67 SP:FB PPU: 88,160
E0B6  B8        CLV                             A:40 X:45 Y:00 P:65 SP:FB PPU: 88,166
E0B7  CE 00 04  DEC $0400 = 40                  A:40 X:45 Y:00 P:25 SP:FB PPU: 88,172
E0BA  D9 00 04  CMP $0400,Y @ 0400 = 3F         A:40 X:45 Y:00 P:25 SP:FB PPU: 88,190
E0BD  F0 06     BEQ $E0C5                       A:40 X:45 Y:00 P:25 SP:FB PPU: 88,202
E0BF  30 04     BMI $E0C5                       A:40 X:45 Y:00 P:25 SP:FB PPU: 88,208
E0C1  90 02     BCC $E0C5                       A:40 X:45 Y:00 P:25 SP:FB PPU: 88,214
E0C3  50 02     BVC $E0C7                       A:40 X:45 Y:00 P:25 SP:FB PPU: 88,220
E0C7  E8        INX                             A:40 X:45 Y:00 P:25 SP:FB PPU: 88,229
E0C8  EE 00 04  INC $0400 = 3F                  A:40 X:46 Y:00 P:25 SP:FB PPU: 88,235
E0CB  EE 00 04  INC $0400 = 40                  A:40 X:46 Y:00 P:25 SP:FB PPU: 88,253
E0CE  D9 00 04  CMP $0400,Y @ 0400 = 41         A:40 X:46 Y:00 P:25 SP:FB PPU: 88,271
E0D1  F0 02     BEQ $E0D5                       A:40 X:46 Y:00 P:A4 SP:FB PPU: 88,283
E0D3  30 02     BMI $E0D7                       A:40 X:46 Y:00 P:A4 SP:FB PPU: 88,289
E0D7  E8        INX                             A:40 X:46 Y:00 P:A4 SP:FB PPU: 88,298
E0D8  A9 00     LDA #$00                        A:40 X:47 Y:00 P:24 SP:FB PPU: 88,304
E0DA  8D 00 04  STA $0400 = 41                  A:00 X:47 Y:00 P:26 SP:FB PPU: 88,310
E0DD  A9 80     LDA #$80                        A:00 X:47 Y:00 P:26 SP:FB PPU: 88,322
E0DF  D9 00 04  CMP $0400,Y @ 0400 = 00         A:80 X:47 Y:00 P:A4 SP:FB PPU: 88,328
E0E2  F0 04     BEQ $E0E8                       A:80 X:47 Y:00 P:A5 SP:FB PPU: 88,340
E0E4  10 02     BPL $E0E8                       A:80 X:47 Y:00 P:A5 SP:FB PPU: 89,  5
E0E6  B0 02     BCS $E0EA                       A:80 X:47 Y:00 P:A5 SP:FB PPU: 89, 11
E0EA  E8        INX                             A:80 X:47 Y:00 P:A5 SP:FB PPU: 89, 20
E0EB  A0 80     LDY #$80                        A:80 X:48 Y:00 P:25 SP:FB PPU: 89, 26
E0ED  8C 00 04  STY $0400 = 00                  A:80 X:48 Y:80 P:A5 SP:FB PPU: 89, 32
E0F0  A0 00     LDY #$00                        A:80 X:48 Y:80 P:A5 SP:FB PPU: 89, 44
E0F2  D9 00 04  CMP $0400,Y @ 0400 = 80         A:80 X:48 Y:00 P:27 SP:FB PPU: 89, 50
E0F5  D0 04     BNE $E0FB                       A:80 X:48 Y:00 P:27 SP:FB PPU: 89, 62
E0F7  30 02     BMI $E0FB                       A:80 X:48 Y:00 P:27 SP:FB PPU: 89, 68
E0F9  B0 02     BCS $E0FD                       A:80 X:48 Y:00 P:27 SP:FB PPU: 89, 74
E0FD  E8        INX                             A:80 X:48 Y:00 P:27 SP:FB PPU: 89, 83
E0FE  EE 00 04  INC $0400 = 80                  A:80 X:49 Y:00 P:25 SP:FB PPU: 89, 89
E101  D9 00 04  CMP $0400,Y @ 0400 = 81         A:80 X:49 Y:00 P:A5 SP:FB PPU: 89,107
E104  B0 04     BCS $E10A                       A:80 X:49 Y:00 P:A4 SP:FB PPU: 89,119
E106  F0 02     BEQ $E10A                       A:80 X:49 Y:00 P:A4 SP:FB PPU: 89,125
E108  30 02     BMI $E10C                       A:80 X:49 Y:00 P:A4 SP:FB PPU: 89,131
E10C  E8        INX                             A:80 X:49 Y:00 P:A4 SP:FB PPU: 89,140
E10D  CE 00 04  DEC $0400 = 81                  A:80 X:4A Y:00 P:24 SP:FB PPU: 89,146
E110  CE 00 04  DEC $0400 = 80                  A:80 X:4A Y:00 P:A4 SP:FB PPU: 89,164
E113  D9 00 04  CMP $0400,Y @ 0400 = 7F         A:80 X:4A Y:00 P:24 SP:FB PPU: 89,182
E116  90 04     BCC $E11C                       A:80 X:4A Y:00 P:25 SP:FB PPU: 89,194
E118  F0 02     BEQ $E11C                       A:80 X:4A Y:00 P:25 SP:FB PPU: 89,200
E11A  10 02     BPL $E11E                       A:80 X:4A Y:00 P:25 SP:FB PPU: 89,206
E11E  E8        INX                             A:80 X:4A Y:00 P:25 SP:FB PPU: 89,215
E11F  24 01     BIT $01 = FF                    A:80 X:4B Y:00 P:25 SP:FB PPU: 89,221
E121  A9 40     LDA #$40                        A:80 X:4B Y:00 P:E5 SP:FB PPU: 89,230
E123  8D 00 04  STA $0400 = 7F                  A:40 X:4B Y:00 P:65 SP:FB PPU: 89,236
E126  38        SEC                             A:40 X:4B Y:00 P:65 SP:FB PPU: 89,248
E127  F9 00 04  SBC $0400,Y @ 0400 = 40         A:40 X:4B Y:00 P:65 SP:FB PPU: 89,254
E12A  30 0A     BMI $E136                       A:00 X:4B Y:00 P:27 SP:FB PPU: 89,266
E12C  90 08     BCC $E136                       A:00 X:4B Y:00 P:27 SP:FB PPU: 89,272
E12E  D0 06     BNE $E136                       A:00 X:4B Y:00 P:27 SP:FB PPU: 89,278
E130  70 04     BVS $E136                       A:00 X:4B Y:00 P:27 SP:FB PPU: 89,284
E132  C9 00     CMP #$00                        A:00 X:4B Y:00 P:27 SP:FB PPU: 89,290
E134  F0 02     BEQ $E138                       A:00 X:4B Y:00 P:27 SP:FB PPU: 89,296
E138  E8        INX                             A:00 X:4B Y:00 P:27 SP:FB PPU: 89,305
E139  B8        CLV                             A:00 X:4C Y:00 P:25 SP:FB PPU: 89,311
E13A  38        SEC                             A:00 X:4C Y:00 P:25 SP:FB PPU: 89,317
E13B  A9 40     LDA #$40                        A:00 X:4C Y:00 P:25 SP:FB PPU: 89,323
E13D  CE 00 04  DEC $0400 = 40                  A:40 X:4C Y:00 P:25 SP:FB PPU: 89,329
E140  F9 00 04  SBC $0400,Y @ 0400 = 3F         A:40 X:4C Y:00 P:25 SP:FB PPU: 90,  6
E143  F0 0A     BEQ $E14F                       A:01 X:4C Y:00 P:25 SP:FB PPU: 90, 18
E145  30 08     BMI $E14F                       A:01 X:4C Y:00 P:25 SP:FB PPU: 90, 24
E147  90 06     BCC $E14F                       A:01 X:4C Y:00 P:25 SP:FB PPU: 90, 30
E149  70 04     BVS $E14F                       A:01 X:4C Y:00 P:25 SP:FB PPU: 90, 36
E14B  C9 01     CMP #$01                        A:01 X:4C Y:00 P:25 SP:FB PPU: 90, 42
E14D  F0 02     BEQ $E151                       A:01 X:4C Y:00 P:27 SP:FB PPU: 90, 48
E151  E8        INX                             A:01 X:4C Y:00 P:27 SP:FB PPU: 90, 57
E152  A9 40     LDA #$40                        A:01 X:4D Y:00 P:25 SP:FB PPU: 90, 63
E154  38        SEC                             A:40 X:4D Y:00 P:25 SP:FB PPU: 90, 69
E155  24 01     BIT $01 = FF                    A:40 X:4D Y:00 P:25 SP:FB PPU: 90, 75
E157  EE 00 04  INC $0400 = 3F                  A:40 X:4D Y:00 P:E5 SP:FB PPU: 90, 84
E15A  EE 00 04  INC $0400 = 40                  A:40 X:4D Y:00 P:65 SP:FB PPU: 90,102
E15D  F9 00 04  SBC $0400,Y @ 0400 = 41         A:40 X:4D Y:00 P:65 SP:FB PPU: 90,120
E160  B0 0A     BCS $E16C                       A:FF X:4D Y:00 P:A4 SP:FB PPU: 90,132
E162  F0 08     BEQ $E16C                       A:FF X:4D Y:00 P:A4 SP:FB PPU: 90,138
E164  10 06     BPL $E16C                       A:FF X:4D Y:00 P:A4 SP:FB PPU: 90,144
E166  70 04     BVS $E16C                       A:FF X:4D Y:00 P:A4 SP:FB PPU: 90,150
E168  C9 FF     CMP #$FF                        A:FF X:4D Y:00 P:A4 SP:FB PPU: 90,156
E16A  F0 02     BEQ $E16E                       A:FF X:4D Y:00 P:27 SP:FB PPU: 90,162
E16E  E8        INX                             A:FF X:4D Y:00 P:27 SP:FB PPU: 90,171
E16F  18        CLC                             A:FF X:4E Y:00 P:25 SP:FB PPU: 90,177
E170  A9 00     LDA #$00                        A:FF X:4E Y:00 P:24 SP:FB PPU: 90,183
E172  8D 00 04  STA $0400 = 41                  A:00 X:4E Y:00 P:26 SP:FB PPU: 90,189
E175  A9 80     LDA #$80                        A:00 X:4E Y:00 P:26 SP:FB PPU: 90,201
E177  F9 00 04  SBC $0400,Y @ 0400 = 00         A:80 X:4E Y:00 P:A4 SP:FB PPU: 90,207
E17A  90 04     BCC $E180                       A:7F X:4E Y:00 P:65 SP:FB PPU: 90,219
E17C  C9 7F     CMP #$7F                        A:7F X:4E Y:00 P:65 SP:FB PPU: 90,225
E17E  F0 02     BEQ $E182                       A:7F X:4E Y:00 P:67 SP:FB PPU: 90,231
E182  E8        INX                             A:7F X:4E Y:00 P:67 SP:FB PPU: 90,240
E183  38        SEC                             A:7F X:4F Y:00 P:65 SP:FB PPU: 90,246
E184  A9 7F     LDA #$7F                        A:7F X:4F Y:00 P:65 SP:FB PPU: 90,252
E186  8D 00 04  STA $0400 = 00                  A:7F X:4F Y:00 P:65 SP:FB PPU: 90,258
E189  A9 81     LDA #$81                        A:7F X:4F Y:00 P:65 SP:FB PPU: 90,270
E18B  F9 00 04  SBC $0400,Y @ 0400 = 7F         A:81 X:4F Y:00 P:E5 SP:FB PPU: 90,276
E18E  50 06     BVC $E196                       A:02 X:4F Y:00 P:65 SP:FB PPU: 90,288
E190  90 04     BCC $E196                       A:02 X:4F Y:00 P:65 SP:FB PPU: 90,294
E192  C9 02     CMP #$02                        A:02 X:4F Y:00 P:65 SP:FB PPU: 90,300
E194  F0 02     BEQ $E198                       A:02 X:4F Y:00 P:67 SP:FB PPU: 90,306
E198  E8        INX                             A:02 X:4F Y:00 P:67 SP:FB PPU: 90,315
E199  A9 00     LDA #$00                        A:02 X:50 Y:00 P:65 SP:FB PPU: 90,321
E19B  A9 87     LDA #$87                        A:00 X:50 Y:00 P:67 SP:FB PPU: 90,327
E19D  99 00 04  STA $0400,Y @ 0400 = 7F         A:87 X:50 Y:00 P:E5 SP:FB PPU: 90,333
E1A0  AD 00 04  LDA $0400 = 87                  A:87 X:50 Y:00 P:E5 SP:FB PPU: 91,  7
E1A3  C9 87     CMP #$87                        A:87 X:50 Y:00 P:E5 SP:FB PPU: 91, 19
E1A5  F0 02     BEQ $E1A9                       A:87 X:50 Y:00 P:67 SP:FB PPU: 91, 25
E1A9  60        RTS                             A:87 X:50 Y:00 P:67 SP:FB PPU: 91, 34
C629  20 B8 DB  JSR $DBB8                       A:87 X:50 Y:00 P:67 SP:FD PPU: 91, 52
DBB8  A9 FF     LDA #$FF                        A:87 X:50 Y:00 P:67 SP:FB PPU: 91, 70
DBBA  85 01     STA $01 = FF                    A:FF X:50 Y:00 P:E5 SP:FB PPU: 91, 76
DBBC  A9 AA     LDA #$AA                        A:FF X:50 Y:00 P:E5 SP:FB PPU: 91, 85
DBBE  85 33     STA $33 = A3                    A:AA X:50 Y:00 P:E5 SP:FB PPU: 91, 91
DBC0  A9 BB     LDA #$BB                        A:AA X:50 Y:00 P:E5 SP:FB PPU: 91,100
DBC2  85 89     STA $89 = 00                    A:BB X:50 Y:00 P:E5 SP:FB PPU: 91,106
DBC4  A2 00     LDX #$00                        A:BB X:50 Y:00 P:E5 SP:FB PPU: 91,115
DBC6  A9 66     LDA #$66                        A:BB X:00 Y:00 P:67 SP:FB PPU: 91,121
DBC8  24 01     BIT $01 = FF                    A:66 X:00 Y:00 P:65 SP:FB PPU: 91,127
DBCA  38        SEC                             A:66 X:00 Y:00 P:E5 SP:FB PPU: 91,136
DBCB  A0 00     LDY #$00                        A:66 X:00 Y:00 P:E5 SP:FB PPU: 91,142
DBCD  B4 33     LDY $33,X @ 33 = AA             A:66 X:00 Y:00 P:67 SP:FB PPU: 91,148
DBCF  10 12     BPL $DBE3                       A:66 X:00 Y:AA P:E5 SP:FB PPU: 91,160
DBD1  F0 10     BEQ $DBE3                       A:66 X:00 Y:AA P:E5 SP:FB PPU: 91,166
DBD3  50 0E     BVC $DBE3                       A:66 X:00 Y:AA P:E5 SP:FB PPU: 91,172
DBD5  90 0C     BCC $DBE3                       A:66 X:00 Y:AA P:E5 SP:FB PPU: 91,178
DBD7  C9 66     CMP #$66                        A:66 X:00 Y:AA P:E5 SP:FB PPU: 91,184
DBD9  D0 08     BNE $DBE3                       A:66 X:00 Y:AA P:67 SP:FB PPU: 91,190
DBDB  E0 00     CPX #$00                        A:66 X:00 Y:AA P:67 SP:FB PPU: 91,196
DBDD  D0 04     BNE $DBE3                       A:66 X:00 Y:AA P:67 SP:FB PPU: 91,202
DBDF  C0 AA     CPY #$AA                        A:66 X:00 Y:AA P:67 SP:FB PPU: 91,208
DBE1  F0 04     BEQ $DBE7                       A:66 X:00 Y:AA P:67 SP:FB PPU: 91,214
DBE7  A2 8A     LDX #$8A                        A:66 X:00 Y:AA P:67 SP:FB PPU: 91,223
DBE9  A9 66     LDA #$66                        A:66 X:8A Y:AA P:E5 SP:FB PPU: 91,229
DBEB  B8        CLV                             A:66 X:8A Y:AA P:65 SP:FB PPU: 91,235
DBEC  18        CLC                             A:66 X:8A Y:AA P:25 SP:FB PPU: 91,241
DBED  A0 00     LDY #$00                        A:66 X:8A Y:AA P:24 SP:FB PPU: 91,247
DBEF  B4 FF     LDY $FF,X @ 89 = BB             A:66 X:8A Y:00 P:26 SP:FB PPU: 91,253
DBF1  10 12     BPL $DC05                       A:66 X:8A Y:BB P:A4 SP:FB PPU: 91,265
DBF3  F0 10     BEQ $DC05                       A:66 X:8A Y:BB P:A4 SP:FB PPU: 91,271
DBF5  70 0E     BVS $DC05                       A:66 X:8A Y:BB P:A4 SP:FB PPU: 91,277
DBF7  B0 0C     BCS $DC05                       A:66 X:8A Y:BB P:A4 SP:FB PPU: 91,283
DBF9  C0 BB     CPY #$BB                        A:66 X:8A Y:BB P:A4 SP:FB PPU: 91,289
DBFB  D0 08     BNE $DC05                       A:66 X:8A Y:BB P:27 SP:FB PPU: 91,295
DBFD  C9 66     CMP #$66                        A:66 X:8A Y:BB P:27 SP:FB PPU: 91,301
DBFF  D0 04     BNE $DC05                       A:66 X:8A Y:BB P:27 SP:FB PPU: 91,307
DC01  E0 8A     CPX #$8A                        A:66 X:8A Y:BB P:27 SP:FB PPU: 91,313
DC03  F0 04     BEQ $DC09                       A:66 X:8A Y:BB P:27 SP:FB PPU: 91,319
DC09  24 01     BIT $01 = FF                    A:66 X:8A Y:BB P:27 SP:FB PPU: 91,328
DC0B  38        SEC                             A:66 X:8A Y:BB P:E5 SP:FB PPU: 91,337
DC0C  A0 44     LDY #$44                        A:66 X:8A Y:BB P:E5 SP:FB PPU: 92,  2
DC0E  A2 00     LDX #$00                        A:66 X:8A Y:44 P:65 SP:FB PPU: 92,  8
DC10  94 33     STY $33,X @ 33 = AA             A:66 X:00 Y:44 P:67 SP:FB PPU: 92, 14
DC12  A5 33     LDA $33 = 44                    A:66 X:00 Y:44 P:67 SP:FB PPU: 92, 26
DC14  90 18     BCC $DC2E                       A:44 X:00 Y:44 P:65 SP:FB PPU: 92, 35
DC16  C9 44     CMP #$44                        A:44 X:00 Y:44 P:65 SP:FB PPU: 92, 41
DC18  D0 14     BNE $DC2E                       A:44 X:00 Y:44 P:67 SP:FB PPU: 92, 47
DC1A  50 12     BVC $DC2E                       A:44 X:00 Y:44 P:67 SP:FB PPU: 92, 53
DC1C  18        CLC                             A:44 X:00 Y:44 P:67 SP:FB PPU: 92, 59
DC1D  B8        CLV                             A:44 X:00 Y:44 P:66 SP:FB PPU: 92, 65
DC1E  A0 99     LDY #$99                        A:44 X:00 Y:44 P:26 SP:FB PPU: 92, 71
DC20  A2 80     LDX #$80                        A:44 X:00 Y:99 P:A4 SP:FB PPU: 92, 77
DC22  94 85     STY $85,X @ 05 = 00             A:44 X:80 Y:99 P:A4 SP:FB PPU: 92, 83
DC24  A5 05     LDA $05 = 99                    A:44 X:80 Y:99 P:A4 SP:FB PPU: 92, 95
DC26  B0 06     BCS $DC2E                       A:99 X:80 Y:99 P:A4 SP:FB PPU: 92,104
DC28  C9 99     CMP #$99                        A:99 X:80 Y:99 P:A4 SP:FB PPU: 92,110
DC2A  D0 02     BNE $DC2E                       A:99 X:80 Y:99 P:27 SP:FB PPU: 92,116
DC2C  50 04     BVC $DC32                       A:99 X:80 Y:99 P:27 SP:FB PPU: 92,122
DC32  A0 0B     LDY #$0B                        A:99 X:80 Y:99 P:27 SP:FB PPU: 92,131
DC34  A9 AA     LDA #$AA                        A:99 X:80 Y:0B P:25 SP:FB PPU: 92,137
DC36  A2 78     LDX #$78                        A:AA X:80 Y:0B P:A5 SP:FB PPU: 92,143
DC38  85 78     STA $78 = 00                    A:AA X:78 Y:0B P:25 SP:FB PPU: 92,149
DC3A  20 B6 F7  JSR $F7B6                       A:AA X:78 Y:0B P:25 SP:FB PPU: 92,158
F7B6  18        CLC                             A:AA X:78 Y:0B P:25 SP:F9 PPU: 92,176
F7B7  A9 FF     LDA #$FF                        A:AA X:78 Y:0B P:24 SP:F9 PPU: 92,182
F7B9  85 01     STA $01 = FF                    A:FF X:78 Y:0B P:A4 SP:F9 PPU: 92,188
F7BB  24 01     BIT $01 = FF                    A:FF X:78 Y:0B P:A4 SP:F9 PPU: 92,197
F7BD  A9 55     LDA #$55                        A:FF X:78 Y:0B P:E4 SP:F9 PPU: 92,206
F7BF  60        RTS                             A:55 X:78 Y:0B P:64 SP:F9 PPU: 92,212
DC3D  15 00     ORA $00,X @ 78 = AA             A:55 X:78 Y:0B P:64 SP:FB PPU: 92,230
DC3F  20 C0 F7  JSR $F7C0                       A:FF X:78 Y:0B P:E4 SP:FB PPU: 92,242
F7C0  B0 09     BCS $F7CB                       A:FF X:78 Y:0B P:E4 SP:F9 PPU: 92,260
F7C2  10 07     BPL $F7CB                       A:FF X:78 Y:0B P:E4 SP:F9 PPU: 92,266
F7C4  C9 FF     CMP #$FF                        A:FF X:78 Y:0B P:E4 SP:F9 PPU: 92,272
F7C6  D0 03     BNE $F7CB                       A:FF X:78 Y:0B P:67 SP:F9 PPU: 92,278
F7C8  50 01     BVC $F7CB                       A:FF X:78 Y:0B P:67 SP:F9 PPU: 92,284
F7CA  60        RTS                             A:FF X:78 Y:0B P:67 SP:F9 PPU: 92,290
DC42  C8        INY                             A:FF X:78 Y:0B P:67 SP:FB PPU: 92,308
DC43  A9 00     LDA #$00                        A:FF X:78 Y:0C P:65 SP:FB PPU: 92,314
DC45  85 78     STA $78 = AA                    A:00 X:78 Y:0C P:67 SP:FB PPU: 92,320
DC47  20 CE F7  JSR $F7CE                       A:00 X:78 Y:0C P:67 SP:FB PPU: 92,329
F7CE  38        SEC                             A:00 X:78 Y:0C P:67 SP:F9 PPU: 93,  6
F7CF  B8        CLV                             A:00 X:78 Y:0C P:67 SP:F9 PPU: 93, 12
F7D0  A9 00     LDA #$00                        A:00 X:78 Y:0C P:27 SP:F9 PPU: 93, 18
F7D2  60        RTS                             A:00 X:78 Y:0C P:27 SP:F9 PPU: 93, 24
DC4A  15 00     ORA $00,X @ 78 = 00             A:00 X:78 Y:0C P:27 SP:FB PPU: 93, 42
DC4C  20 D3 F7  JSR $F7D3                       A:00 X:78 Y:0C P:27 SP:FB PPU: 93, 54
F7D3  D0 07     BNE $F7DC                       A:00 X:78 Y:0C P:27 SP:F9 PPU: 93, 72
F7D5  70 05     BVS $F7DC                       A:00 X:78 Y:0C P:27 SP:F9 PPU: 93, 78
F7D7  90 03     BCC $F7DC                       A:00 X:78 Y:0C P:27 SP:F9 PPU: 93, 84
F7D9  30 01     BMI $F7DC                       A:00 X:78 Y:0C P:27 SP:F9 PPU: 93, 90
F7DB  60        RTS                             A:00 X:78 Y:0C P:27 SP:F9 PPU: 93, 96
DC4F  C8        INY                             A:00 X:78 Y:0C P:27 SP:FB PPU: 93,114
DC50  A9 AA     LDA #$AA                        A:00 X:78 Y:0D P:25 SP:FB PPU: 93,120
DC52  85 78     STA $78 = 00                    A:AA X:78 Y:0D P:A5 SP:FB PPU: 93,126
DC54  20 DF F7  JSR $F7DF                       A:AA X:78 Y:0D P:A5 SP:FB PPU: 93,135
F7DF  18        CLC                             A:AA X:78 Y:0D P:A5 SP:F9 PPU: 93,153
F7E0  24 01     BIT $01 = FF                    A:AA X:78 Y:0D P:A4 SP:F9 PPU: 93,159
F7E2  A9 55     LDA #$55                        A:AA X:78 Y:0D P:E4 SP:F9 PPU: 93,168
F7E4  60        RTS                             A:55 X:78 Y:0D P:64 SP:F9 PPU: 93,174
DC57  35 00     AND $00,X @ 78 = AA             A:55 X:78 Y:0D P:64 SP:FB PPU: 93,192
DC59  20 E5 F7  JSR $F7E5                       A:00 X:78 Y:0D P:66 SP:FB PPU: 93,204
F7E5  D0 07     BNE $F7EE                       A:00 X:78 Y:0D P:66 SP:F9 PPU: 93,222
F7E7  50 05     BVC $F7EE                       A:00 X:78 Y:0D P:66 SP:F9 PPU: 93,228
F7E9  B0 03     BCS $F7EE                       A:00 X:78 Y:0D P:66 SP:F9 PPU: 93,234
F7EB  30 01     BMI $F7EE                       A:00 X:78 Y:0D P:66 SP:F9 PPU: 93,240
F7ED  60        RTS                             A:00 X:78 Y:0D P:66 SP:F9 PPU: 93,246
DC5C  C8        INY                             A:00 X:78 Y:0D P:66 SP:FB PPU: 93,264
DC5D  A9 EF     LDA #$EF                        A:00 X:78 Y:0E P:64 SP:FB PPU: 93,270
DC5F  85 78     STA $78 = AA                    A:EF X:78 Y:0E P:E4 SP:FB PPU: 93,276
DC61  20 F1 F7  JSR $F7F1                       A:EF X:78 Y:0E P:E4 SP:FB PPU: 93,285
F7F1  38        SEC                             A:EF X:78 Y:0E P:E4 SP:F9 PPU: 93,303
F7F2  B8        CLV                             A:EF X:78 Y:0E P:E5 SP:F9 PPU: 93,309
F7F3  A9 F8     LDA #$F8                        A:EF X:78 Y:0E P:A5 SP:F9 PPU: 93,315
F7F5  60        RTS                             A:F8 X:78 Y:0E P:A5 SP:F9 PPU: 93,321
DC64  35 00     AND $00,X @ 78 = EF             A:F8 X:78 Y:0E P:A5 SP:FB PPU: 93,339
DC66  20 F6 F7  JSR $F7F6                       A:E8 X:78 Y:0E P:A5 SP:FB PPU: 94, 10
F7F6  90 09     BCC $F801                       A:E8 X:78 Y:0E P:A5 SP:F9 PPU: 94, 28
F7F8  10 07     BPL $F801                       A:E8 X:78 Y:0E P:A5 SP:F9 PPU: 94, 34
F7FA  C9 E8     CMP #$E8                        A:E8 X:78 Y:0E P:A5 SP:F9 PPU: 94, 40
F7FC  D0 03     BNE $F801                       A:E8 X:78 Y:0E P:27 SP:F9 PPU: 94, 46
F7FE  70 01     BVS $F801                       A:E8 X:78 Y:0E P:27 SP:F9 PPU: 94, 52
F800  60        RTS                             A:E8 X:78 Y:0E P:27 SP:F9 PPU: 94, 58
DC69  C8        INY                             A:E8 X:78 Y:0E P:27 SP:FB PPU: 94, 76
DC6A  A9 AA     LDA #$AA                        A:E8 X:78 Y:0F P:25 SP:FB PPU: 94, 82
DC6C  85 78     STA $78 = EF                    A:AA X:78 Y:0F P:A5 SP:FB PPU: 94, 88
DC6E  20 04 F8  JSR $F804                       A:AA X:78 Y:0F P:A5 SP:FB PPU: 94, 97
F804  18        CLC                             A:AA X:78 Y:0F P:A5 SP:F9 PPU: 94,115
F805  24 01     BIT $01 = FF                    A:AA X:78 Y:0F P:A4 SP:F9 PPU: 94,121
F807  A9 5F     LDA #$5F                        A:AA X:78 Y:0F P:E4 SP:F9 PPU: 94,130
F809  60        RTS                             A:5F X:78 Y:0F P:64 SP:F9 PPU: 94,136
DC71  55 00     EOR $00,X @ 78 = AA             A:5F X:78 Y:0F P:64 SP:FB PPU: 94,154
DC73  20 0A F8  JSR $F80A                       A:F5 X:78 Y:0F P:E4 SP:FB PPU: 94,166
F80A  B0 09     BCS $F815                       A:F5 X:78 Y:0F P:E4 SP:F9 PPU: 94,184
F80C  10 07     BPL $F815                       A:F5 X:78 Y:0F P:E4 SP:F9 PPU: 94,190
F80E  C9 F5     CMP #$F5                        A:F5 X:78 Y:0F P:E4 SP:F9 PPU: 94,196
F810  D0 03     BNE $F815                       A:F5 X:78 Y:0F P:67 SP:F9 PPU: 94,202
F812  50 01     BVC $F815                       A:F5 X:78 Y:0F P:67 SP:F9 PPU: 94,208
F814  60        RTS                             A:F5 X:78 Y:0F P:67 SP:F9 PPU: 94,214
DC76  C8        INY                             A:F5 X:78 Y:0F P:67 SP:FB PPU: 94,232
DC77  A9 70     LDA #$70                        A:F5 X:78 Y:10 P:65 SP:FB PPU: 94,238
DC79  85 78     STA $78 = AA                    A:70 X:78 Y:10 P:65 SP:FB PPU: 94,244
DC7B  20 18 F8  JSR $F818                       A:70 X:78 Y:10 P:65 SP:FB PPU: 94,253
F818  38        SEC                             A:70 X:78 Y:10 P:65 SP:F9 PPU: 94,271
F819  B8        CLV                             A:70 X:78 Y:10 P:65 SP:F9 PPU: 94,277
F81A  A9 70     LDA #$70                        A:70 X:78 Y:10 P:25 SP:F9 PPU: 94,283
F81C  60        RTS                             A:70 X:78 Y:10 P:25 SP:F9 PPU: 94,289
DC7E  55 00     EOR $00,X @ 78 = 70             A:70 X:78 Y:10 P:25 SP:FB PPU: 94,307
DC80  20 1D F8  JSR $F81D                       A:00 X:78 Y:10 P:27 SP:FB PPU: 94,319
F81D  D0 07     BNE $F826                       A:00 X:78 Y:10 P:27 SP:F9 PPU: 94,337
F81F  70 05     BVS $F826                       A:00 X:78 Y:10 P:27 SP:F9 PPU: 95,  2
F821  90 03     BCC $F826                       A:00 X:78 Y:10 P:27 SP:F9 PPU: 95,  8
F823  30 01     BMI $F826                       A:00 X:78 Y:10 P:27 SP:F9 PPU: 95, 14
F825  60        RTS                             A:00 X:78 Y:10 P:27 SP:F9 PPU: 95, 20
DC83  C8        INY                             A:00 X:78 Y:10 P:27 SP:FB PPU: 95, 38
DC84  A9 69     LDA #$69                        A:00 X:78 Y:11 P:25 SP:FB PPU: 95, 44
DC86  85 78     STA $78 = 70                    A:69 X:78 Y:11 P:25 SP:FB PPU: 95, 50
DC88  20 29 F8  JSR $F829                       A:69 X:78 Y:11 P:25 SP:FB PPU: 95, 59
F829  18        CLC                             A:69 X:78 Y:11 P:25 SP:F9 PPU: 95, 77
F82A  24 01     BIT $01 = FF                    A:69 X:78 Y:11 P:24 SP:F9 PPU: 95, 83
F82C  A9 00     LDA #$00                        A:69 X:78 Y:11 P:E4 SP:F9 PPU: 95, 92
F82E  60        RTS                             A:00 X:78 Y:11 P:66 SP:F9 PPU: 95, 98
DC8B  75 00     ADC $00,X @ 78 = 69             A:00 X:78 Y:11 P:66 SP:FB PPU: 95,116
DC8D  20 2F F8  JSR $F82F                       A:69 X:78 Y:11 P:24 SP:FB PPU: 95,128
F82F  30 09     BMI $F83A                       A:69 X:78 Y:11 P:24 SP:F9 PPU: 95,146
F831  B0 07     BCS $F83A                       A:69 X:78 Y:11 P:24 SP:F9 PPU: 95,152
F833  C9 69     CMP #$69                        A:69 X:78 Y:11 P:24 SP:F9 PPU: 95,158
F835  D0 03     BNE $F83A                       A:69 X:78 Y:11 P:27 SP:F9 PPU: 95,164
F837  70 01     BVS $F83A                       A:69 X:78 Y:11 P:27 SP:F9 PPU: 95,170
F839  60        RTS                             A:69 X:78 Y:11 P:27 SP:F9 PPU: 95,176
DC90  C8        INY                             A:69 X:78 Y:11 P:27 SP:FB PPU: 95,194
DC91  20 3D F8  JSR $F83D                       A:69 X:78 Y:12 P:25 SP:FB PPU: 95,200
F83D  38        SEC                             A:69 X:78 Y:12 P:25 SP:F9 PPU: 95,218
F83E  24 01     BIT $01 = FF                    A:69 X:78 Y:12 P:25 SP:F9 PPU: 95,224
F840  A9 00     LDA #$00                        A:69 X:78 Y:12 P:E5 SP:F9 PPU: 95,233
F842  60        RTS                             A:00 X:78 Y:12 P:67 SP:F9 PPU: 95,239
DC94  75 00     ADC $00,X @ 78 = 69             A:00 X:78 Y:12 P:67 SP:FB PPU: 95,257
DC96  20 43 F8  JSR $F843                       A:6A X:78 Y:12 P:24 SP:FB PPU: 95,269
F843  30 09     BMI $F84E                       A:6A X:78 Y:12 P:24 SP:F9 PPU: 95,287
F845  B0 07     BCS $F84E                       A:6A X:78 Y:12 P:24 SP:F9 PPU: 95,293
F847  C9 6A     CMP #$6A                        A:6A X:78 Y:12 P:24 SP:F9 PPU: 95,299
F849  D0 03     BNE $F84E                       A:6A X:78 Y:12 P:27 SP:F9 PPU: 95,305
F84B  70 01     BVS $F84E                       A:6A X:78 Y:12 P:27 SP:F9 PPU: 95,311
F84D  60        RTS                             A:6A X:78 Y:12 P:27 SP:F9 PPU: 95,317
DC99  C8        INY                             A:6A X:78 Y:12 P:27 SP:FB PPU: 95,335
DC9A  A9 7F     LDA #$7F                        A:6A X:78 Y:13 P:25 SP:FB PPU: 96,  0
DC9C  85 78     STA $78 = 69                    A:7F X:78 Y:13 P:25 SP:FB PPU: 96,  6
DC9E  20 51 F8  JSR $F851                       A:7F X:78 Y:13 P:25 SP:FB PPU: 96, 15
F851  38        SEC                             A:7F X:78 Y:13 P:25 SP:F9 PPU: 96, 33
F852  B8        CLV                             A:7F X:78 Y:13 P:25 SP:F9 PPU: 96, 39
F853  A9 7F     LDA #$7F                        A:7F X:78 Y:13 P:25 SP:F9 PPU: 96, 45
F855  60        RTS                             A:7F X:78 Y:13 P:25 SP:F9 PPU: 96, 51
DCA1  75 00     ADC $00,X @ 78 = 7F             A:7F X:78 Y:13 P:25 SP:FB PPU: 96, 69
DCA3  20 56 F8  JSR $F856                       A:FF X:78 Y:13 P:E4 SP:FB PPU: 96, 81
F856  10 09     BPL $F861                       A:FF X:78 Y:13 P:E4 SP:F9 PPU: 96, 99
F858  B0 07     BCS $F861                       A:FF X:78 Y:13 P:E4 SP:F9 PPU: 96,105
F85A  C9 FF     CMP #$FF                        A:FF X:78 Y:13 P:E4 SP:F9 PPU: 96,111
F85C  D0 03     BNE $F861                       A:FF X:78 Y:13 P:67 SP:F9 PPU: 96,117
F85E  50 01     BVC $F861                       A:FF X:78 Y:13 P:67 SP:F9 PPU: 96,123
F860  60        RTS                             A:FF X:78 Y:13 P:67 SP:F9 PPU: 96,129
DCA6  C8        INY                             A:FF X:78 Y:13 P:67 SP:FB PPU: 96,147
DCA7  A9 80     LDA #$80                        A:FF X:78 Y:14 P:65 SP:FB PPU: 96,153
DCA9  85 78     STA $78 = 7F                    A:80 X:78 Y:14 P:E5 SP:FB PPU: 96,159
DCAB  20 64 F8  JSR $F864                       A:80 X:78 Y:14 P:E5 SP:FB PPU: 96,168
F864  18        CLC                             A:80 X:78 Y:14 P:E5 SP:F9 PPU: 96,186
F865  24 01     BIT $01 = FF                    A:80 X:78 Y:14 P:E4 SP:F9 PPU: 96,192
F867  A9 7F     LDA #$7F                        A:80 X:78 Y:14 P:E4 SP:F9 PPU: 96,201
F869  60        RTS                             A:7F X:78 Y:14 P:64 SP:F9 PPU: 96,207
DCAE  75 00     ADC $00,X @ 78 = 80             A:7F X:78 Y:14 P:64 SP:FB PPU: 96,225
DCB0  20 6A F8  JSR $F86A                       A:FF X:78 Y:14 P:A4 SP:FB PPU: 96,237
F86A  10 09     BPL $F875                       A:FF X:78 Y:14 P:A4 SP:F9 PPU: 96,255
F86C  B0 07     BCS $F875                       A:FF X:78 Y:14 P:A4 SP:F9 PPU: 96,261
F86E  C9 FF     CMP #$FF                        A:FF X:78 Y:14 P:A4 SP:F9 PPU: 96,267
F870  D0 03     BNE $F875                       A:FF X:78 Y:14 P:27 SP:F9 PPU: 96,273
F872  70 01     BVS $F875                       A:FF X:78 Y:14 P:27 SP:F9 PPU: 96,279
F874  60        RTS                             A:FF X:78 Y:14 P:27 SP:F9 PPU: 96,285
DCB3  C8        INY                             A:FF X:78 Y:14 P:27 SP:FB PPU: 96,303
DCB4  20 78 F8  JSR $F878                       A:FF X:78 Y:15 P:25 SP:FB PPU: 96,309
F878  38        SEC                             A:FF X:78 Y:15 P:25 SP:F9 PPU: 96,327
F879  B8        CLV                             A:FF X:78 Y:15 P:25 SP:F9 PPU: 96,333
F87A  A9 7F     LDA #$7F                        A:FF X:78 Y:15 P:25 SP:F9 PPU: 96,339
F87C  60        RTS                             A:7F X:78 Y:15 P:25 SP:F9 PPU: 97,  4
DCB7  75 00     ADC $00,X @ 78 = 80             A:7F X:78 Y:15 P:25 SP:FB PPU: 97, 22
DCB9  20 7D F8  JSR $F87D                       A:00 X:78 Y:15 P:27 SP:FB PPU: 97, 34
F87D  D0 07     BNE $F886                       A:00 X:78 Y:15 P:27 SP:F9 PPU: 97, 52
F87F  30 05     BMI $F886                       A:00 X:78 Y:15 P:27 SP:F9 PPU: 97, 58
F881  70 03     BVS $F886                       A:00 X:78 Y:15 P:27 SP:F9 PPU: 97, 64
F883  90 01     BCC $F886                       A:00 X:78 Y:15 P:27 SP:F9 PPU: 97, 70
F885  60        RTS                             A:00 X:78 Y:15 P:27 SP:F9 PPU: 97, 76
DCBC  C8        INY                             A:00 X:78 Y:15 P:27 SP:FB PPU: 97, 94
DCBD  A9 40     LDA #$40                        A:00 X:78 Y:16 P:25 SP:FB PPU: 97,100
DCBF  85 78     STA $78 = 80                    A:40 X:78 Y:16 P:25 SP:FB PPU: 97,106
DCC1  20 89 F8  JSR $F889                       A:40 X:78 Y:16 P:25 SP:FB PPU: 97,115
F889  24 01     BIT $01 = FF                    A:40 X:78 Y:16 P:25 SP:F9 PPU: 97,133
F88B  A9 40     LDA #$40                        A:40 X:78 Y:16 P:E5 SP:F9 PPU: 97,142
F88D  60        RTS                             A:40 X:78 Y:16 P:65 SP:F9 PPU: 97,148
DCC4  D5 00     CMP $00,X @ 78 = 40             A:40 X:78 Y:16 P:65 SP:FB PPU: 97,166
DCC6  20 8E F8  JSR $F88E                       A:40 X:78 Y:16 P:67 SP:FB PPU: 97,178
F88E  30 07     BMI $F897                       A:40 X:78 Y:16 P:67 SP:F9 PPU: 97,196
F890  90 05     BCC $F897                       A:40 X:78 Y:16 P:67 SP:F9 PPU: 97,202
F892  D0 03     BNE $F897                       A:40 X:78 Y:16 P:67 SP:F9 PPU: 97,208
F894  50 01     BVC $F897                       A:40 X:78 Y:16 P:67 SP:F9 PPU: 97,214
F896  60        RTS                             A:40 X:78 Y:16 P:67 SP:F9 PPU: 97,220
DCC9  C8        INY                             A:40 X:78 Y:16 P:67 SP:FB PPU: 97,238
DCCA  48        PHA                             A:40 X:78 Y:17 P:65 SP:FB PPU: 97,244
DCCB  A9 3F     LDA #$3F                        A:40 X:78 Y:17 P:65 SP:FA PPU: 97,253
DCCD  85 78     STA $78 = 40                    A:3F X:78 Y:17 P:65 SP:FA PPU: 97,259
DCCF  68        PLA                             A:3F X:78 Y:17 P:65 SP:FA PPU: 97,268
DCD0  20 9A F8  JSR $F89A                       A:40 X:78 Y:17 P:65 SP:FB PPU: 97,280
F89A  B8        CLV                             A:40 X:78 Y:17 P:65 SP:F9 PPU: 97,298
F89B  60        RTS                             A:40 X:78 Y:17 P:25 SP:F9 PPU: 97,304
DCD3  D5 00     CMP $00,X @ 78 = 3F             A:40 X:78 Y:17 P:25 SP:FB PPU: 97,322
DCD5  20 9C F8  JSR $F89C                       A:40 X:78 Y:17 P:25 SP:FB PPU: 97,334
F89C  F0 07     BEQ $F8A5                       A:40 X:78 Y:17 P:25 SP:F9 PPU: 98, 11
F89E  30 05     BMI $F8A5                       A:40 X:78 Y:17 P:25 SP:F9 PPU: 98, 17
F8A0  90 03     BCC $F8A5                       A:40 X:78 Y:17 P:25 SP:F9 PPU: 98, 23
F8A2  70 01     BVS $F8A5                       A:40 X:78 Y:17 P:25 SP:F9 PPU: 98, 29
F8A4  60        RTS                             A:40 X:78 Y:17 P:25 SP:F9 PPU: 98, 35
DCD8  C8        INY                             A:40 X:78 Y:17 P:25 SP:FB PPU: 98, 53
DCD9  48        PHA                             A:40 X:78 Y:18 P:25 SP:FB PPU: 98, 59
DCDA  A9 41     LDA #$41                        A:40 X:78 Y:18 P:25 SP:FA PPU: 98, 68
DCDC  85 78     STA $78 = 3F                    A:41 X:78 Y:18 P:25 SP:FA PPU: 98, 74
DCDE  68        PLA                             A:41 X:78 Y:18 P:25 SP:FA PPU: 98, 83
DCDF  D5 00     CMP $00,X @ 78 = 41             A:40 X:78 Y:18 P:25 SP:FB PPU: 98, 95
DCE1  20 A8 F8  JSR $F8A8                       A:40 X:78 Y:18 P:A4 SP:FB PPU: 98,107
F8A8  F0 05     BEQ $F8AF                       A:40 X:78 Y:18 P:A4 SP:F9 PPU: 98,125
F8AA  10 03     BPL $F8AF                       A:40 X:78 Y:18 P:A4 SP:F9 PPU: 98,131
F8AC  10 01     BPL $F8AF                       A:40 X:78 Y:18 P:A4 SP:F9 PPU: 98,137
F8AE  60        RTS                             A:40 X:78 Y:18 P:A4 SP:F9 PPU: 98,143
DCE4  C8        INY                             A:40 X:78 Y:18 P:A4 SP:FB PPU: 98,161
DCE5  48        PHA                             A:40 X:78 Y:19 P:24 SP:FB PPU: 98,167
DCE6  A9 00     LDA #$00                        A:40 X:78 Y:19 P:24 SP:FA PPU: 98,176
DCE8  85 78     STA $78 = 41                    A:00 X:78 Y:19 P:26 SP:FA PPU: 98,182
DCEA  68        PLA                             A:00 X:78 Y:19 P:26 SP:FA PPU: 98,191
DCEB  20 B2 F8  JSR $F8B2                       A:40 X:78 Y:19 P:24 SP:FB PPU: 98,203
F8B2  A9 80     LDA #$80                        A:40 X:78 Y:19 P:24 SP:F9 PPU: 98,221
F8B4  60        RTS                             A:80 X:78 Y:19 P:A4 SP:F9 PPU: 98,227
DCEE  D5 00     CMP $00,X @ 78 = 00             A:80 X:78 Y:19 P:A4 SP:FB PPU: 98,245
DCF0  20 B5 F8  JSR $F8B5                       A:80 X:78 Y:19 P:A5 SP:FB PPU: 98,257
F8B5  F0 05     BEQ $F8BC                       A:80 X:78 Y:19 P:A5 SP:F9 PPU: 98,275
F8B7  10 03     BPL $F8BC                       A:80 X:78 Y:19 P:A5 SP:F9 PPU: 98,281
F8B9  90 01     BCC $F8BC                       A:80 X:78 Y:19 P:A5 SP:F9 PPU: 98,287
F8BB  60        RTS                             A:80 X:78 Y:19 P:A5 SP:F9 PPU: 98,293
DCF3  C8        INY                             A:80 X:78 Y:19 P:A5 SP:FB PPU: 98,311
DCF4  48        PHA                             A:80 X:78 Y:1A P:25 SP:FB PPU: 98,317
DCF5  A9 80     LDA #$80                        A:80 X:78 Y:1A P:25 SP:FA PPU: 98,326
DCF7  85 78     STA $78 = 00                    A:80 X:78 Y:1A P:A5 SP:FA PPU: 98,332
DCF9  68        PLA                             A:80 X:78 Y:1A P:A5 SP:FA PPU: 99,  0
DCFA  D5 00     CMP $00,X @ 78 = 80             A:80 X:78 Y:1A P:A5 SP:FB PPU: 99, 12
DCFC  20 BF F8  JSR $F8BF                       A:80 X:78 Y:1A P:27 SP:FB PPU: 99, 24
F8BF  D0 05     BNE $F8C6                       A:80 X:78 Y:1A P:27 SP:F9 PPU: 99, 42
F8C1  30 03     BMI $F8C6                       A:80 X:78 Y:1A P:27 SP:F9 PPU: 99, 48
F8C3  90 01     BCC $F8C6                       A:80 X:78 Y:1A P:27 SP:F9 PPU: 99, 54
F8C5  60        RTS                             A:80 X:78 Y:1A P:27 SP:F9 PPU: 99, 60
DCFF  C8        INY                             A:80 X:78 Y:1A P:27 SP:FB PPU: 99, 78
DD00  48        PHA                             A:80 X:78 Y:1B P:25 SP:FB PPU: 99, 84
DD01  A9 81     LDA #$81                        A:80 X:78 Y:1B P:25 SP:FA PPU: 99, 93
DD03  85 78     STA $78 = 80                    A:81 X:78 Y:1B P:A5 SP:FA PPU: 99, 99
DD05  68        PLA                             A:81 X:78 Y:1B P:A5 SP:FA PPU: 99,108
DD06  D5 00     CMP $00,X @ 78 = 81             A:80 X:78 Y:1B P:A5 SP:FB PPU: 99,120
DD08  20 C9 F8  JSR $F8C9                       A:80 X:78 Y:1B P:A4 SP:FB PPU: 99,132
F8C9  B0 05     BCS $F8D0                       A:80 X:78 Y:1B P:A4 SP:F9 PPU: 99,150
F8CB  F0 03     BEQ $F8D0                       A:80 X:78 Y:1B P:A4 SP:F9 PPU: 99,156
F8CD  10 01     BPL $F8D0                       A:80 X:78 Y:1B P:A4 SP:F9 PPU: 99,162
F8CF  60        RTS                             A:80 X:78 Y:1B P:A4 SP:F9 PPU: 99,168
DD0B  C8        INY                             A:80 X:78 Y:1B P:A4 SP:FB PPU: 99,186
DD0C  48        PHA                             A:80 X:78 Y:1C P:24 SP:FB PPU: 99,192
DD0D  A9 7F     LDA #$7F                        A:80 X:78 Y:1C P:24 SP:FA PPU: 99,201
DD0F  85 78     STA $78 = 81                    A:7F X:78 Y:1C P:24 SP:FA PPU: 99,207
DD11  68        PLA                             A:7F X:78 Y:1C P:24 SP:FA PPU: 99,216
DD12  D5 00     CMP $00,X @ 78 = 7F             A:80 X:78 Y:1C P:A4 SP:FB PPU: 99,228
DD14  20 D3 F8  JSR $F8D3                       A:80 X:78 Y:1C P:25 SP:FB PPU: 99,240
F8D3  90 05     BCC $F8DA                       A:80 X:78 Y:1C P:25 SP:F9 PPU: 99,258
F8D5  F0 03     BEQ $F8DA                       A:80 X:78 Y:1C P:25 SP:F9 PPU: 99,264
F8D7  30 01     BMI $F8DA                       A:80 X:78 Y:1C P:25 SP:F9 PPU: 99,270
F8D9  60        RTS                             A:80 X:78 Y:1C P:25 SP:F9 PPU: 99,276
DD17  C8        INY                             A:80 X:78 Y:1C P:25 SP:FB PPU: 99,294
DD18  A9 40     LDA #$40                        A:80 X:78 Y:1D P:25 SP:FB PPU: 99,300
DD1A  85 78     STA $78 = 7F                    A:40 X:78 Y:1D P:25 SP:FB PPU: 99,306
DD1C  20 31 F9  JSR $F931                       A:40 X:78 Y:1D P:25 SP:FB PPU: 99,315
F931  24 01     BIT $01 = FF                    A:40 X:78 Y:1D P:25 SP:F9 PPU: 99,333
F933  A9 40     LDA #$40                        A:40 X:78 Y:1D P:E5 SP:F9 PPU:100,  1
F935  38        SEC                             A:40 X:78 Y:1D P:65 SP:F9 PPU:100,  7
F936  60        RTS                             A:40 X:78 Y:1D P:65 SP:F9 PPU:100, 13
DD1F  F5 00     SBC $00,X @ 78 = 40             A:40 X:78 Y:1D P:65 SP:FB PPU:100, 31
DD21  20 37 F9  JSR $F937                       A:00 X:78 Y:1D P:27 SP:FB PPU:100, 43
F937  30 0B     BMI $F944                       A:00 X:78 Y:1D P:27 SP:F9 PPU:100, 61
F939  90 09     BCC $F944                       A:00 X:78 Y:1D P:27 SP:F9 PPU:100, 67
F93B  D0 07     BNE $F944                       A:00 X:78 Y:1D P:27 SP:F9 PPU:100, 73
F93D  70 05     BVS $F944                       A:00 X:78 Y:1D P:27 SP:F9 PPU:100, 79
F93F  C9 00     CMP #$00                        A:00 X:78 Y:1D P:27 SP:F9 PPU:100, 85
F941  D0 01     BNE $F944                       A:00 X:78 Y:1D P:27 SP:F9 PPU:100, 91
F943  60        RTS                             A:00 X:78 Y:1D P:27 SP:F9 PPU:100, 97
DD24  C8        INY                             A:00 X:78 Y:1D P:27 SP:FB PPU:100,115
DD25  A9 3F     LDA #$3F                        A:00 X:78 Y:1E P:25 SP:FB PPU:100,121
DD27  85 78     STA $78 = 40                    A:3F X:78 Y:1E P:25 SP:FB PPU:100,127
DD29  20 47 F9  JSR $F947                       A:3F X:78 Y:1E P:25 SP:FB PPU:100,136
F947  B8        CLV                             A:3F X:78 Y:1E P:25 SP:F9 PPU:100,154
F948  38        SEC                             A:3F X:78 Y:1E P:25 SP:F9 PPU:100,160
F949  A9 40     LDA #$40                        A:3F X:78 Y:1E P:25 SP:F9 PPU:100,166
F94B  60        RTS                             A:40 X:78 Y:1E P:25 SP:F9 PPU:100,172
DD2C  F5 00     SBC $00,X @ 78 = 3F             A:40 X:78 Y:1E P:25 SP:FB PPU:100,190
DD2E  20 4C F9  JSR $F94C                       A:01 X:78 Y:1E P:25 SP:FB PPU:100,202
F94C  F0 0B     BEQ $F959                       A:01 X:78 Y:1E P:25 SP:F9 PPU:100,220
F94E  30 09     BMI $F959                       A:01 X:78 Y:1E P:25 SP:F9 PPU:100,226
F950  90 07     BCC $F959                       A:01 X:78 Y:1E P:25 SP:F9 PPU:100,232
F952  70 05     BVS $F959                       A:01 X:78 Y:1E P:25 SP:F9 PPU:100,238
F954  C9 01     CMP #$01                        A:01 X:78 Y:1E P:25 SP:F9 PPU:100,244
F956  D0 01     BNE $F959                       A:01 X:78 Y:1E P:27 SP:F9 PPU:100,250
F958  60        RTS                             A:01 X:78 Y:1E P:27 SP:F9 PPU:100,256
DD31  C8        INY                             A:01 X:78 Y:1E P:27 SP:FB PPU:100,274
DD32  A9 41     LDA #$41                        A:01 X:78 Y:1F P:25 SP:FB PPU:100,280
DD34  85 78     STA $78 = 3F                    A:41 X:78 Y:1F P:25 SP:FB PPU:100,286
DD36  20 5C F9  JSR $F95C                       A:41 X:78 Y:1F P:25 SP:FB PPU:100,295
F95C  A9 40     LDA #$40                        A:41 X:78 Y:1F P:25 SP:F9 PPU:100,313
F95E  38        SEC                             A:40 X:78 Y:1F P:25 SP:F9 PPU:100,319
F95F  24 01     BIT $01 = FF                    A:40 X:78 Y:1F P:25 SP:F9 PPU:100,325
F961  60        RTS                             A:40 X:78 Y:1F P:E5 SP:F9 PPU:100,334
DD39  F5 00     SBC $00,X @ 78 = 41             A:40 X:78 Y:1F P:E5 SP:FB PPU:101, 11
DD3B  20 62 F9  JSR $F962                       A:FF X:78 Y:1F P:A4 SP:FB PPU:101, 23
F962  B0 0B     BCS $F96F                       A:FF X:78 Y:1F P:A4 SP:F9 PPU:101, 41
F964  F0 09     BEQ $F96F                       A:FF X:78 Y:1F P:A4 SP:F9 PPU:101, 47
F966  10 07     BPL $F96F                       A:FF X:78 Y:1F P:A4 SP:F9 PPU:101, 53
F968  70 05     BVS $F96F                       A:FF X:78 Y:1F P:A4 SP:F9 PPU:101, 59
F96A  C9 FF     CMP #$FF                        A:FF X:78 Y:1F P:A4 SP:F9 PPU:101, 65
F96C  D0 01     BNE $F96F                       A:FF X:78 Y:1F P:27 SP:F9 PPU:101, 71
F96E  60        RTS                             A:FF X:78 Y:1F P:27 SP:F9 PPU:101, 77
DD3E  C8        INY                             A:FF X:78 Y:1F P:27 SP:FB PPU:101, 95
DD3F  A9 00     LDA #$00                        A:FF X:78 Y:20 P:25 SP:FB PPU:101,101
DD41  85 78     STA $78 = 41                    A:00 X:78 Y:20 P:27 SP:FB PPU:101,107
DD43  20 72 F9  JSR $F972                       A:00 X:78 Y:20 P:27 SP:FB PPU:101,116
F972  18        CLC                             A:00 X:78 Y:20 P:27 SP:F9 PPU:101,134
F973  A9 80     LDA #$80                        A:00 X:78 Y:20 P:26 SP:F9 PPU:101,140
F975  60        RTS                             A:80 X:78 Y:20 P:A4 SP:F9 PPU:101,146
DD46  F5 00     SBC $00,X @ 78 = 00             A:80 X:78 Y:20 P:A4 SP:FB PPU:101,164
DD48  20 76 F9  JSR $F976                       A:7F X:78 Y:20 P:65 SP:FB PPU:101,176
F976  90 05     BCC $F97D                       A:7F X:78 Y:20 P:65 SP:F9 PPU:101,194
F978  C9 7F     CMP #$7F                        A:7F X:78 Y:20 P:65 SP:F9 PPU:101,200
F97A  D0 01     BNE $F97D                       A:7F X:78 Y:20 P:67 SP:F9 PPU:101,206
F97C  60        RTS                             A:7F X:78 Y:20 P:67 SP:F9 PPU:101,212
DD4B  C8        INY                             A:7F X:78 Y:20 P:67 SP:FB PPU:101,230
DD4C  A9 7F     LDA #$7F                        A:7F X:78 Y:21 P:65 SP:FB PPU:101,236
DD4E  85 78     STA $78 = 00                    A:7F X:78 Y:21 P:65 SP:FB PPU:101,242
DD50  20 80 F9  JSR $F980                       A:7F X:78 Y:21 P:65 SP:FB PPU:101,251
F980  38        SEC                             A:7F X:78 Y:21 P:65 SP:F9 PPU:101,269
F981  A9 81     LDA #$81                        A:7F X:78 Y:21 P:65 SP:F9 PPU:101,275
F983  60        RTS                             A:81 X:78 Y:21 P:E5 SP:F9 PPU:101,281
DD53  F5 00     SBC $00,X @ 78 = 7F             A:81 X:78 Y:21 P:E5 SP:FB PPU:101,299
DD55  20 84 F9  JSR $F984                       A:02 X:78 Y:21 P:65 SP:FB PPU:101,311
F984  50 07     BVC $F98D                       A:02 X:78 Y:21 P:65 SP:F9 PPU:101,329
F986  90 05     BCC $F98D                       A:02 X:78 Y:21 P:65 SP:F9 PPU:101,335
F988  C9 02     CMP #$02                        A:02 X:78 Y:21 P:65 SP:F9 PPU:102,  0
F98A  D0 01     BNE $F98D                       A:02 X:78 Y:21 P:67 SP:F9 PPU:102,  6
F98C  60        RTS                             A:02 X:78 Y:21 P:67 SP:F9 PPU:102, 12
DD58  A9 AA     LDA #$AA                        A:02 X:78 Y:21 P:67 SP:FB PPU:102, 30
DD5A  85 33     STA $33 = 44                    A:AA X:78 Y:21 P:E5 SP:FB PPU:102, 36
DD5C  A9 BB     LDA #$BB                        A:AA X:78 Y:21 P:E5 SP:FB PPU:102, 45
DD5E  85 89     STA $89 = BB                    A:BB X:78 Y:21 P:E5 SP:FB PPU:102, 51
DD60  A2 00     LDX #$00                        A:BB X:78 Y:21 P:E5 SP:FB PPU:102, 60
DD62  A0 66     LDY #$66                        A:BB X:00 Y:21 P:67 SP:FB PPU:102, 66
DD64  24 01     BIT $01 = FF                    A:BB X:00 Y:66 P:65 SP:FB PPU:102, 72
DD66  38        SEC                             A:BB X:00 Y:66 P:E5 SP:FB PPU:102, 81
DD67  A9 00     LDA #$00                        A:BB X:00 Y:66 P:E5 SP:FB PPU:102, 87
DD69  B5 33     LDA $33,X @ 33 = AA             A:00 X:00 Y:66 P:67 SP:FB PPU:102, 93
DD6B  10 12     BPL $DD7F                       A:AA X:00 Y:66 P:E5 SP:FB PPU:102,105
DD6D  F0 10     BEQ $DD7F                       A:AA X:00 Y:66 P:E5 SP:FB PPU:102,111
DD6F  50 0E     BVC $DD7F                       A:AA X:00 Y:66 P:E5 SP:FB PPU:102,117
DD71  90 0C     BCC $DD7F                       A:AA X:00 Y:66 P:E5 SP:FB PPU:102,123
DD73  C0 66     CPY #$66                        A:AA X:00 Y:66 P:E5 SP:FB PPU:102,129
DD75  D0 08     BNE $DD7F                       A:AA X:00 Y:66 P:67 SP:FB PPU:102,135
DD77  E0 00     CPX #$00                        A:AA X:00 Y:66 P:67 SP:FB PPU:102,141
DD79  D0 04     BNE $DD7F                       A:AA X:00 Y:66 P:67 SP:FB PPU:102,147
DD7B  C9 AA     CMP #$AA                        A:AA X:00 Y:66 P:67 SP:FB PPU:102,153
DD7D  F0 04     BEQ $DD83                       A:AA X:00 Y:66 P:67 SP:FB PPU:102,159
DD83  A2 8A     LDX #$8A                        A:AA X:00 Y:66 P:67 SP:FB PPU:102,168
DD85  A0 66     LDY #$66                        A:AA X:8A Y:66 P:E5 SP:FB PPU:102,174
DD87  B8        CLV                             A:AA X:8A Y:66 P:65 SP:FB PPU:102,180
DD88  18        CLC                             A:AA X:8A Y:66 P:25 SP:FB PPU:102,186
DD89  A9 00     LDA #$00                        A:AA X:8A Y:66 P:24 SP:FB PPU:102,192
DD8B  B5 FF     LDA $FF,X @ 89 = BB             A:00 X:8A Y:66 P:26 SP:FB PPU:102,198
DD8D  10 12     BPL $DDA1                       A:BB X:8A Y:66 P:A4 SP:FB PPU:102,210
DD8F  F0 10     BEQ $DDA1                       A:BB X:8A Y:66 P:A4 SP:FB PPU:102,216
DD91  70 0E     BVS $DDA1                       A:BB X:8A Y:66 P:A4 SP:FB PPU:102,222
DD93  B0 0C     BCS $DDA1                       A:BB X:8A Y:66 P:A4 SP:FB PPU:102,228
DD95  C9 BB     CMP #$BB                        A:BB X:8A Y:66 P:A4 SP:FB PPU:102,234
DD97  D0 08     BNE $DDA1                       A:BB X:8A Y:66 P:27 SP:FB PPU:102,240
DD99  C0 66     CPY #$66                        A:BB X:8A Y:66 P:27 SP:FB PPU:102,246
DD9B  D0 04     BNE $DDA1                       A:BB X:8A Y:66 P:27 SP:FB PPU:102,252
DD9D  E0 8A     CPX #$8A                        A:BB X:8A Y:66 P:27 SP:FB PPU:102,258
DD9F  F0 04     BEQ $DDA5                       A:BB X:8A Y:66 P:27 SP:FB PPU:102,264
DDA5  24 01     BIT $01 = FF                    A:BB X:8A Y:66 P:27 SP:FB PPU:102,273
DDA7  38        SEC                             A:BB X:8A Y:66 P:E5 SP:FB PPU:102,282
DDA8  A9 44     LDA #$44                        A:BB X:8A Y:66 P:E5 SP:FB PPU:102,288
DDAA  A2 00     LDX #$00                        A:44 X:8A Y:66 P:65 SP:FB PPU:102,294
DDAC  95 33     STA $33,X @ 33 = AA             A:44 X:00 Y:66 P:67 SP:FB PPU:102,300
DDAE  A5 33     LDA $33 = 44                    A:44 X:00 Y:66 P:67 SP:FB PPU:102,312
DDB0  90 18     BCC $DDCA                       A:44 X:00 Y:66 P:65 SP:FB PPU:102,321
DDB2  C9 44     CMP #$44                        A:44 X:00 Y:66 P:65 SP:FB PPU:102,327
DDB4  D0 14     BNE $DDCA                       A:44 X:00 Y:66 P:67 SP:FB PPU:102,333
DDB6  50 12     BVC $DDCA                       A:44 X:00 Y:66 P:67 SP:FB PPU:102,339
DDB8  18        CLC                             A:44 X:00 Y:66 P:67 SP:FB PPU:103,  4
DDB9  B8        CLV                             A:44 X:00 Y:66 P:66 SP:FB PPU:103, 10
DDBA  A9 99     LDA #$99                        A:44 X:00 Y:66 P:26 SP:FB PPU:103, 16
DDBC  A2 80     LDX #$80                        A:99 X:00 Y:66 P:A4 SP:FB PPU:103, 22
DDBE  95 85     STA $85,X @ 05 = 99             A:99 X:80 Y:66 P:A4 SP:FB PPU:103, 28
DDC0  A5 05     LDA $05 = 99                    A:99 X:80 Y:66 P:A4 SP:FB PPU:103, 40
DDC2  B0 06     BCS $DDCA                       A:99 X:80 Y:66 P:A4 SP:FB PPU:103, 49
DDC4  C9 99     CMP #$99                        A:99 X:80 Y:66 P:A4 SP:FB PPU:103, 55
DDC6  D0 02     BNE $DDCA                       A:99 X:80 Y:66 P:27 SP:FB PPU:103, 61
DDC8  50 04     BVC $DDCE                       A:99 X:80 Y:66 P:27 SP:FB PPU:103, 67
DDCE  A0 25     LDY #$25                        A:99 X:80 Y:66 P:27 SP:FB PPU:103, 76
DDD0  A2 78     LDX #$78                        A:99 X:80 Y:25 P:25 SP:FB PPU:103, 82
DDD2  20 90 F9  JSR $F990                       A:99 X:78 Y:25 P:25 SP:FB PPU:103, 88
F990  A2 55     LDX #$55                        A:99 X:78 Y:25 P:25 SP:F9 PPU:103,106
F992  A9 FF     LDA #$FF                        A:99 X:55 Y:25 P:25 SP:F9 PPU:103,112
F994  85 01     STA $01 = FF                    A:FF X:55 Y:25 P:A5 SP:F9 PPU:103,118
F996  EA        NOP                             A:FF X:55 Y:25 P:A5 SP:F9 PPU:103,127
F997  24 01     BIT $01 = FF                    A:FF X:55 Y:25 P:A5 SP:F9 PPU:103,133
F999  38        SEC                             A:FF X:55 Y:25 P:E5 SP:F9 PPU:103,142
F99A  A9 01     LDA #$01                        A:FF X:55 Y:25 P:E5 SP:F9 PPU:103,148
F99C  60        RTS                             A:01 X:55 Y:25 P:65 SP:F9 PPU:103,154
DDD5  95 00     STA $00,X @ 55 = 00             A:01 X:55 Y:25 P:65 SP:FB PPU:103,172
DDD7  56 00     LSR $00,X @ 55 = 01             A:01 X:55 Y:25 P:65 SP:FB PPU:103,184
DDD9  B5 00     LDA $00,X @ 55 = 00             A:01 X:55 Y:25 P:67 SP:FB PPU:103,202
DDDB  20 9D F9  JSR $F99D                       A:00 X:55 Y:25 P:67 SP:FB PPU:103,214
F99D  90 1B     BCC $F9BA                       A:00 X:55 Y:25 P:67 SP:F9 PPU:103,232
F99F  D0 19     BNE $F9BA                       A:00 X:55 Y:25 P:67 SP:F9 PPU:103,238
F9A1  30 17     BMI $F9BA                       A:00 X:55 Y:25 P:67 SP:F9 PPU:103,244
F9A3  50 15     BVC $F9BA                       A:00 X:55 Y:25 P:67 SP:F9 PPU:103,250
F9A5  C9 00     CMP #$00                        A:00 X:55 Y:25 P:67 SP:F9 PPU:103,256
F9A7  D0 11     BNE $F9BA                       A:00 X:55 Y:25 P:67 SP:F9 PPU:103,262
F9A9  B8        CLV                             A:00 X:55 Y:25 P:67 SP:F9 PPU:103,268
F9AA  A9 AA     LDA #$AA                        A:00 X:55 Y:25 P:27 SP:F9 PPU:103,274
F9AC  60        RTS                             A:AA X:55 Y:25 P:A5 SP:F9 PPU:103,280
DDDE  C8        INY                             A:AA X:55 Y:25 P:A5 SP:FB PPU:103,298
DDDF  95 00     STA $00,X @ 55 = 00             A:AA X:55 Y:26 P:25 SP:FB PPU:103,304
DDE1  56 00     LSR $00,X @ 55 = AA             A:AA X:55 Y:26 P:25 SP:FB PPU:103,316
DDE3  B5 00     LDA $00,X @ 55 = 55             A:AA X:55 Y:26 P:24 SP:FB PPU:103,334
DDE5  20 AD F9  JSR $F9AD                       A:55 X:55 Y:26 P:24 SP:FB PPU:104,  5
F9AD  B0 0B     BCS $F9BA                       A:55 X:55 Y:26 P:24 SP:F9 PPU:104, 23
F9AF  F0 09     BEQ $F9BA                       A:55 X:55 Y:26 P:24 SP:F9 PPU:104, 29
F9B1  30 07     BMI $F9BA                       A:55 X:55 Y:26 P:24 SP:F9 PPU:104, 35
F9B3  70 05     BVS $F9BA                       A:55 X:55 Y:26 P:24 SP:F9 PPU:104, 41
F9B5  C9 55     CMP #$55                        A:55 X:55 Y:26 P:24 SP:F9 PPU:104, 47
F9B7  D0 01     BNE $F9BA                       A:55 X:55 Y:26 P:27 SP:F9 PPU:104, 53
F9B9  60        RTS                             A:55 X:55 Y:26 P:27 SP:F9 PPU:104, 59
DDE8  C8        INY                             A:55 X:55 Y:26 P:27 SP:FB PPU:104, 77
DDE9  20 BD F9  JSR $F9BD                       A:55 X:55 Y:27 P:25 SP:FB PPU:104, 83
F9BD  24 01     BIT $01 = FF                    A:55 X:55 Y:27 P:25 SP:F9 PPU:104,101
F9BF  38        SEC                             A:55 X:55 Y:27 P:E5 SP:F9 PPU:104,110
F9C0  A9 80     LDA #$80                        A:55 X:55 Y:27 P:E5 SP:F9 PPU:104,116
F9C2  60        RTS                             A:80 X:55 Y:27 P:E5 SP:F9 PPU:104,122
DDEC  95 00     STA $00,X @ 55 = 55             A:80 X:55 Y:27 P:E5 SP:FB PPU:104,140
DDEE  16 00     ASL $00,X @ 55 = 80             A:80 X:55 Y:27 P:E5 SP:FB PPU:104,152
DDF0  B5 00     LDA $00,X @ 55 = 00             A:80 X:55 Y:27 P:67 SP:FB PPU:104,170
DDF2  20 C3 F9  JSR $F9C3                       A:00 X:55 Y:27 P:67 SP:FB PPU:104,182
F9C3  90 1C     BCC $F9E1                       A:00 X:55 Y:27 P:67 SP:F9 PPU:104,200
F9C5  D0 1A     BNE $F9E1                       A:00 X:55 Y:27 P:67 SP:F9 PPU:104,206
F9C7  30 18     BMI $F9E1                       A:00 X:55 Y:27 P:67 SP:F9 PPU:104,212
F9C9  50 16     BVC $F9E1                       A:00 X:55 Y:27 P:67 SP:F9 PPU:104,218
F9CB  C9 00     CMP #$00                        A:00 X:55 Y:27 P:67 SP:F9 PPU:104,224
F9CD  D0 12     BNE $F9E1                       A:00 X:55 Y:27 P:67 SP:F9 PPU:104,230
F9CF  B8        CLV                             A:00 X:55 Y:27 P:67 SP:F9 PPU:104,236
F9D0  A9 55     LDA #$55                        A:00 X:55 Y:27 P:27 SP:F9 PPU:104,242
F9D2  38        SEC                             A:55 X:55 Y:27 P:25 SP:F9 PPU:104,248
F9D3  60        RTS                             A:55 X:55 Y:27 P:25 SP:F9 PPU:104,254
DDF5  C8        INY                             A:55 X:55 Y:27 P:25 SP:FB PPU:104,272
DDF6  95 00     STA $00,X @ 55 = 00             A:55 X:55 Y:28 P:25 SP:FB PPU:104,278
DDF8  16 00     ASL $00,X @ 55 = 55             A:55 X:55 Y:28 P:25 SP:FB PPU:104,290
DDFA  B5 00     LDA $00,X @ 55 = AA             A:55 X:55 Y:28 P:A4 SP:FB PPU:104,308
DDFC  20 D4 F9  JSR $F9D4                       A:AA X:55 Y:28 P:A4 SP:FB PPU:104,320
F9D4  B0 0B     BCS $F9E1                       A:AA X:55 Y:28 P:A4 SP:F9 PPU:104,338
F9D6  F0 09     BEQ $F9E1                       A:AA X:55 Y:28 P:A4 SP:F9 PPU:105,  3
F9D8  10 07     BPL $F9E1                       A:AA X:55 Y:28 P:A4 SP:F9 PPU:105,  9
F9DA  70 05     BVS $F9E1                       A:AA X:55 Y:28 P:A4 SP:F9 PPU:105, 15
F9DC  C9 AA     CMP #$AA                        A:AA X:55 Y:28 P:A4 SP:F9 PPU:105, 21
F9DE  D0 01     BNE $F9E1                       A:AA X:55 Y:28 P:27 SP:F9 PPU:105, 27
F9E0  60        RTS                             A:AA X:55 Y:28 P:27 SP:F9 PPU:105, 33
DDFF  C8        INY                             A:AA X:55 Y:28 P:27 SP:FB PPU:105, 51
DE00  20 E4 F9  JSR $F9E4                       A:AA X:55 Y:29 P:25 SP:FB PPU:105, 57
F9E4  24 01     BIT $01 = FF                    A:AA X:55 Y:29 P:25 SP:F9 PPU:105, 75
F9E6  38        SEC                             A:AA X:55 Y:29 P:E5 SP:F9 PPU:105, 84
F9E7  A9 01     LDA #$01                        A:AA X:55 Y:29 P:E5 SP:F9 PPU:105, 90
F9E9  60        RTS                             A:01 X:55 Y:29 P:65 SP:F9 PPU:105, 96
DE03  95 00     STA $00,X @ 55 = AA             A:01 X:55 Y:29 P:65 SP:FB PPU:105,114
DE05  76 00     ROR $00,X @ 55 = 01             A:01 X:55 Y:29 P:65 SP:FB PPU:105,126
DE07  B5 00     LDA $00,X @ 55 = 80             A:01 X:55 Y:29 P:E5 SP:FB PPU:105,144
DE09  20 EA F9  JSR $F9EA                       A:80 X:55 Y:29 P:E5 SP:FB PPU:105,156
F9EA  90 1C     BCC $FA08                       A:80 X:55 Y:29 P:E5 SP:F9 PPU:105,174
F9EC  F0 1A     BEQ $FA08                       A:80 X:55 Y:29 P:E5 SP:F9 PPU:105,180
F9EE  10 18     BPL $FA08                       A:80 X:55 Y:29 P:E5 SP:F9 PPU:105,186
F9F0  50 16     BVC $FA08                       A:80 X:55 Y:29 P:E5 SP:F9 PPU:105,192
F9F2  C9 80     CMP #$80                        A:80 X:55 Y:29 P:E5 SP:F9 PPU:105,198
F9F4  D0 12     BNE $FA08                       A:80 X:55 Y:29 P:67 SP:F9 PPU:105,204
F9F6  B8        CLV                             A:80 X:55 Y:29 P:67 SP:F9 PPU:105,210
F9F7  18        CLC                             A:80 X:55 Y:29 P:27 SP:F9 PPU:105,216
F9F8  A9 55     LDA #$55                        A:80 X:55 Y:29 P:26 SP:F9 PPU:105,222
F9FA  60        RTS                             A:55 X:55 Y:29 P:24 SP:F9 PPU:105,228
DE0C  C8        INY                             A:55 X:55 Y:29 P:24 SP:FB PPU:105,246
DE0D  95 00     STA $00,X @ 55 = 80             A:55 X:55 Y:2A P:24 SP:FB PPU:105,252
DE0F  76 00     ROR $00,X @ 55 = 55             A:55 X:55 Y:2A P:24 SP:FB PPU:105,264
DE11  B5 00     LDA $00,X @ 55 = 2A             A:55 X:55 Y:2A P:25 SP:FB PPU:105,282
DE13  20 FB F9  JSR $F9FB                       A:2A X:55 Y:2A P:25 SP:FB PPU:105,294
F9FB  90 0B     BCC $FA08                       A:2A X:55 Y:2A P:25 SP:F9 PPU:105,312
F9FD  F0 09     BEQ $FA08                       A:2A X:55 Y:2A P:25 SP:F9 PPU:105,318
F9FF  30 07     BMI $FA08                       A:2A X:55 Y:2A P:25 SP:F9 PPU:105,324
FA01  70 05     BVS $FA08                       A:2A X:55 Y:2A P:25 SP:F9 PPU:105,330
FA03  C9 2A     CMP #$2A                        A:2A X:55 Y:2A P:25 SP:F9 PPU:105,336
FA05  D0 01     BNE $FA08                       A:2A X:55 Y:2A P:27 SP:F9 PPU:106,  1
FA07  60        RTS                             A:2A X:55 Y:2A P:27 SP:F9 PPU:106,  7
DE16  C8        INY                             A:2A X:55 Y:2A P:27 SP:FB PPU:106, 25
DE17  20 0A FA  JSR $FA0A                       A:2A X:55 Y:2B P:25 SP:FB PPU:106, 31
FA0A  24 01     BIT $01 = FF                    A:2A X:55 Y:2B P:25 SP:F9 PPU:106, 49
FA0C  38        SEC                             A:2A X:55 Y:2B P:E5 SP:F9 PPU:106, 58
FA0D  A9 80     LDA #$80                        A:2A X:55 Y:2B P:E5 SP:F9 PPU:106, 64
FA0F  60        RTS                             A:80 X:55 Y:2B P:E5 SP:F9 PPU:106, 70
DE1A  95 00     STA $00,X @ 55 = 2A             A:80 X:55 Y:2B P:E5 SP:FB PPU:106, 88
DE1C  36 00     ROL $00,X @ 55 = 80             A:80 X:55 Y:2B P:E5 SP:FB PPU:106,100
DE1E  B5 00     LDA $00,X @ 55 = 01             A:80 X:55 Y:2B P:65 SP:FB PPU:106,118
DE20  20 10 FA  JSR $FA10                       A:01 X:55 Y:2B P:65 SP:FB PPU:106,130
FA10  90 1C     BCC $FA2E                       A:01 X:55 Y:2B P:65 SP:F9 PPU:106,148
FA12  F0 1A     BEQ $FA2E                       A:01 X:55 Y:2B P:65 SP:F9 PPU:106,154
FA14  30 18     BMI $FA2E                       A:01 X:55 Y:2B P:65 SP:F9 PPU:106,160
FA16  50 16     BVC $FA2E                       A:01 X:55 Y:2B P:65 SP:F9 PPU:106,166
FA18  C9 01     CMP #$01                        A:01 X:55 Y:2B P:65 SP:F9 PPU:106,172
FA1A  D0 12     BNE $FA2E                       A:01 X:55 Y:2B P:67 SP:F9 PPU:106,178
FA1C  B8        CLV                             A:01 X:55 Y:2B P:67 SP:F9 PPU:106,184
FA1D  18        CLC                             A:01 X:55 Y:2B P:27 SP:F9 PPU:106,190
FA1E  A9 55     LDA #$55                        A:01 X:55 Y:2B P:26 SP:F9 PPU:106,196
FA20  60        RTS                             A:55 X:55 Y:2B P:24 SP:F9 PPU:106,202
DE23  C8        INY                             A:55 X:55 Y:2B P:24 SP:FB PPU:106,220
DE24  95 00     STA $00,X @ 55 = 01             A:55 X:55 Y:2C P:24 SP:FB PPU:106,226
DE26  36 00     ROL $00,X @ 55 = 55             A:55 X:55 Y:2C P:24 SP:FB PPU:106,238
DE28  B5 00     LDA $00,X @ 55 = AA             A:55 X:55 Y:2C P:A4 SP:FB PPU:106,256
DE2A  20 21 FA  JSR $FA21                       A:AA X:55 Y:2C P:A4 SP:FB PPU:106,268
FA21  B0 0B     BCS $FA2E                       A:AA X:55 Y:2C P:A4 SP:F9 PPU:106,286
FA23  F0 09     BEQ $FA2E                       A:AA X:55 Y:2C P:A4 SP:F9 PPU:106,292
FA25  10 07     BPL $FA2E                       A:AA X:55 Y:2C P:A4 SP:F9 PPU:106,298
FA27  70 05     BVS $FA2E                       A:AA X:55 Y:2C P:A4 SP:F9 PPU:106,304
FA29  C9 AA     CMP #$AA                        A:AA X:55 Y:2C P:A4 SP:F9 PPU:106,310
FA2B  D0 01     BNE $FA2E                       A:AA X:55 Y:2C P:27 SP:F9 PPU:106,316
FA2D  60        RTS                             A:AA X:55 Y:2C P:27 SP:F9 PPU:106,322
DE2D  A9 FF     LDA #$FF                        A:AA X:55 Y:2C P:27 SP:FB PPU:106,340
DE2F  95 00     STA $00,X @ 55 = AA             A:FF X:55 Y:2C P:A5 SP:FB PPU:107,  5
DE31  85 01     STA $01 = FF                    A:FF X:55 Y:2C P:A5 SP:FB PPU:107, 17
DE33  24 01     BIT $01 = FF                    A:FF X:55 Y:2C P:A5 SP:FB PPU:107, 26
DE35  38        SEC                             A:FF X:55 Y:2C P:E5 SP:FB PPU:107, 35
DE36  F6 00     INC $00,X @ 55 = FF             A:FF X:55 Y:2C P:E5 SP:FB PPU:107, 41
DE38  D0 0C     BNE $DE46                       A:FF X:55 Y:2C P:67 SP:FB PPU:107, 59
DE3A  30 0A     BMI $DE46                       A:FF X:55 Y:2C P:67 SP:FB PPU:107, 65
DE3C  50 08     BVC $DE46                       A:FF X:55 Y:2C P:67 SP:FB PPU:107, 71
DE3E  90 06     BCC $DE46                       A:FF X:55 Y:2C P:67 SP:FB PPU:107, 77
DE40  B5 00     LDA $00,X @ 55 = 00             A:FF X:55 Y:2C P:67 SP:FB PPU:107, 83
DE42  C9 00     CMP #$00                        A:00 X:55 Y:2C P:67 SP:FB PPU:107, 95
DE44  F0 04     BEQ $DE4A                       A:00 X:55 Y:2C P:67 SP:FB PPU:107,101
DE4A  A9 7F     LDA #$7F                        A:00 X:55 Y:2C P:67 SP:FB PPU:107,110
DE4C  95 00     STA $00,X @ 55 = 00             A:7F X:55 Y:2C P:65 SP:FB PPU:107,116
DE4E  B8        CLV                             A:7F X:55 Y:2C P:65 SP:FB PPU:107,128
DE4F  18        CLC                             A:7F X:55 Y:2C P:25 SP:FB PPU:107,134
DE50  F6 00     INC $00,X @ 55 = 7F             A:7F X:55 Y:2C P:24 SP:FB PPU:107,140
DE52  F0 0C     BEQ $DE60                       A:7F X:55 Y:2C P:A4 SP:FB PPU:107,158
DE54  10 0A     BPL $DE60                       A:7F X:55 Y:2C P:A4 SP:FB PPU:107,164
DE56  70 08     BVS $DE60                       A:7F X:55 Y:2C P:A4 SP:FB PPU:107,170
DE58  B0 06     BCS $DE60                       A:7F X:55 Y:2C P:A4 SP:FB PPU:107,176
DE5A  B5 00     LDA $00,X @ 55 = 80             A:7F X:55 Y:2C P:A4 SP:FB PPU:107,182
DE5C  C9 80     CMP #$80                        A:80 X:55 Y:2C P:A4 SP:FB PPU:107,194
DE5E  F0 04     BEQ $DE64                       A:80 X:55 Y:2C P:27 SP:FB PPU:107,200
DE64  A9 00     LDA #$00                        A:80 X:55 Y:2C P:27 SP:FB PPU:107,209
DE66  95 00     STA $00,X @ 55 = 80             A:00 X:55 Y:2C P:27 SP:FB PPU:107,215
DE68  24 01     BIT $01 = FF                    A:00 X:55 Y:2C P:27 SP:FB PPU:107,227
DE6A  38        SEC                             A:00 X:55 Y:2C P:E7 SP:FB PPU:107,236
DE6B  D6 00     DEC $00,X @ 55 = 00             A:00 X:55 Y:2C P:E7 SP:FB PPU:107,242
DE6D  F0 0C     BEQ $DE7B                       A:00 X:55 Y:2C P:E5 SP:FB PPU:107,260
DE6F  10 0A     BPL $DE7B                       A:00 X:55 Y:2C P:E5 SP:FB PPU:107,266
DE71  50 08     BVC $DE7B                       A:00 X:55 Y:2C P:E5 SP:FB PPU:107,272
DE73  90 06     BCC $DE7B                       A:00 X:55 Y:2C P:E5 SP:FB PPU:107,278
DE75  B5 00     LDA $00,X @ 55 = FF             A:00 X:55 Y:2C P:E5 SP:FB PPU:107,284
DE77  C9 FF     CMP #$FF                        A:FF X:55 Y:2C P:E5 SP:FB PPU:107,296
DE79  F0 04     BEQ $DE7F                       A:FF X:55 Y:2C P:67 SP:FB PPU:107,302
DE7F  A9 80     LDA #$80                        A:FF X:55 Y:2C P:67 SP:FB PPU:107,311
DE81  95 00     STA $00,X @ 55 = FF             A:80 X:55 Y:2C P:E5 SP:FB PPU:107,317
DE83  B8        CLV                             A:80 X:55 Y:2C P:E5 SP:FB PPU:107,329
DE84  18        CLC                             A:80 X:55 Y:2C P:A5 SP:FB PPU:107,335
DE85  D6 00     DEC $00,X @ 55 = 80             A:80 X:55 Y:2C P:A4 SP:FB PPU:108,  0
DE87  F0 0C     BEQ $DE95                       A:80 X:55 Y:2C P:24 SP:FB PPU:108, 18
DE89  30 0A     BMI $DE95                       A:80 X:55 Y:2C P:24 SP:FB PPU:108, 24
DE8B  70 08     BVS $DE95                       A:80 X:55 Y:2C P:24 SP:FB PPU:108, 30
DE8D  B0 06     BCS $DE95                       A:80 X:55 Y:2C P:24 SP:FB PPU:108, 36
DE8F  B5 00     LDA $00,X @ 55 = 7F             A:80 X:55 Y:2C P:24 SP:FB PPU:108, 42
DE91  C9 7F     CMP #$7F                        A:7F X:55 Y:2C P:24 SP:FB PPU:108, 54
DE93  F0 04     BEQ $DE99                       A:7F X:55 Y:2C P:27 SP:FB PPU:108, 60
DE99  A9 01     LDA #$01                        A:7F X:55 Y:2C P:27 SP:FB PPU:108, 69
DE9B  95 00     STA $00,X @ 55 = 7F             A:01 X:55 Y:2C P:25 SP:FB PPU:108, 75
DE9D  D6 00     DEC $00,X @ 55 = 01             A:01 X:55 Y:2C P:25 SP:FB PPU:108, 87
DE9F  F0 04     BEQ $DEA5                       A:01 X:55 Y:2C P:27 SP:FB PPU:108,105
DEA5  A9 33     LDA #$33                        A:01 X:55 Y:2C P:27 SP:FB PPU:108,114
DEA7  85 78     STA $78 = 7F                    A:33 X:55 Y:2C P:25 SP:FB PPU:108,120
DEA9  A9 44     LDA #$44                        A:33 X:55 Y:2C P:25 SP:FB PPU:108,129
DEAB  A0 78     LDY #$78                        A:44 X:55 Y:2C P:25 SP:FB PPU:108,135
DEAD  A2 00     LDX #$00                        A:44 X:55 Y:78 P:25 SP:FB PPU:108,141
DEAF  38        SEC                             A:44 X:00 Y:78 P:27 SP:FB PPU:108,147
DEB0  24 01     BIT $01 = FF                    A:44 X:00 Y:78 P:27 SP:FB PPU:108,153
DEB2  B6 00     LDX $00,Y @ 78 = 33             A:44 X:00 Y:78 P:E5 SP:FB PPU:108,162
DEB4  90 12     BCC $DEC8                       A:44 X:33 Y:78 P:65 SP:FB PPU:108,174
DEB6  50 10     BVC $DEC8                       A:44 X:33 Y:78 P:65 SP:FB PPU:108,180
DEB8  30 0E     BMI $DEC8                       A:44 X:33 Y:78 P:65 SP:FB PPU:108,186
DEBA  F0 0C     BEQ $DEC8                       A:44 X:33 Y:78 P:65 SP:FB PPU:108,192
DEBC  E0 33     CPX #$33                        A:44 X:33 Y:78 P:65 SP:FB PPU:108,198
DEBE  D0 08     BNE $DEC8                       A:44 X:33 Y:78 P:67 SP:FB PPU:108,204
DEC0  C0 78     CPY #$78                        A:44 X:33 Y:78 P:67 SP:FB PPU:108,210
DEC2  D0 04     BNE $DEC8                       A:44 X:33 Y:78 P:67 SP:FB PPU:108,216
DEC4  C9 44     CMP #$44                        A:44 X:33 Y:78 P:67 SP:FB PPU:108,222
DEC6  F0 04     BEQ $DECC                       A:44 X:33 Y:78 P:67 SP:FB PPU:108,228
DECC  A9 97     LDA #$97                        A:44 X:33 Y:78 P:67 SP:FB PPU:108,237
DECE  85 7F     STA $7F = 00                    A:97 X:33 Y:78 P:E5 SP:FB PPU:108,243
DED0  A9 47     LDA #$47                        A:97 X:33 Y:78 P:E5 SP:FB PPU:108,252
DED2  A0 FF     LDY #$FF                        A:47 X:33 Y:78 P:65 SP:FB PPU:108,258
DED4  A2 00     LDX #$00                        A:47 X:33 Y:FF P:E5 SP:FB PPU:108,264
DED6  18        CLC                             A:47 X:00 Y:FF P:67 SP:FB PPU:108,270
DED7  B8        CLV                             A:47 X:00 Y:FF P:66 SP:FB PPU:108,276
DED8  B6 80     LDX $80,Y @ 7F = 97             A:47 X:00 Y:FF P:26 SP:FB PPU:108,282
DEDA  B0 12     BCS $DEEE                       A:47 X:97 Y:FF P:A4 SP:FB PPU:108,294
DEDC  70 10     BVS $DEEE                       A:47 X:97 Y:FF P:A4 SP:FB PPU:108,300
DEDE  10 0E     BPL $DEEE                       A:47 X:97 Y:FF P:A4 SP:FB PPU:108,306
DEE0  F0 0C     BEQ $DEEE                       A:47 X:97 Y:FF P:A4 SP:FB PPU:108,312
DEE2  E0 97     CPX #$97                        A:47 X:97 Y:FF P:A4 SP:FB PPU:108,318
DEE4  D0 08     BNE $DEEE                       A:47 X:97 Y:FF P:27 SP:FB PPU:108,324
DEE6  C0 FF     CPY #$FF                        A:47 X:97 Y:FF P:27 SP:FB PPU:108,330
DEE8  D0 04     BNE $DEEE                       A:47 X:97 Y:FF P:27 SP:FB PPU:108,336
DEEA  C9 47     CMP #$47                        A:47 X:97 Y:FF P:27 SP:FB PPU:109,  1
DEEC  F0 04     BEQ $DEF2                       A:47 X:97 Y:FF P:27 SP:FB PPU:109,  7
DEF2  A9 00     LDA #$00                        A:47 X:97 Y:FF P:27 SP:FB PPU:109, 16
DEF4  85 7F     STA $7F = 97                    A:00 X:97 Y:FF P:27 SP:FB PPU:109, 22
DEF6  A9 47     LDA #$47                        A:00 X:97 Y:FF P:27 SP:FB PPU:109, 31
DEF8  A0 FF     LDY #$FF                        A:47 X:97 Y:FF P:25 SP:FB PPU:109, 37
DEFA  A2 69     LDX #$69                        A:47 X:97 Y:FF P:A5 SP:FB PPU:109, 43
DEFC  18        CLC                             A:47 X:69 Y:FF P:25 SP:FB PPU:109, 49
DEFD  B8        CLV                             A:47 X:69 Y:FF P:24 SP:FB PPU:109, 55
DEFE  96 80     STX $80,Y @ 7F = 00             A:47 X:69 Y:FF P:24 SP:FB PPU:109, 61
DF00  B0 18     BCS $DF1A                       A:47 X:69 Y:FF P:24 SP:FB PPU:109, 73
DF02  70 16     BVS $DF1A                       A:47 X:69 Y:FF P:24 SP:FB PPU:109, 79
DF04  30 14     BMI $DF1A                       A:47 X:69 Y:FF P:24 SP:FB PPU:109, 85
DF06  F0 12     BEQ $DF1A                       A:47 X:69 Y:FF P:24 SP:FB PPU:109, 91
DF08  E0 69     CPX #$69                        A:47 X:69 Y:FF P:24 SP:FB PPU:109, 97
DF0A  D0 0E     BNE $DF1A                       A:47 X:69 Y:FF P:27 SP:FB PPU:109,103
DF0C  C0 FF     CPY #$FF                        A:47 X:69 Y:FF P:27 SP:FB PPU:109,109
DF0E  D0 0A     BNE $DF1A                       A:47 X:69 Y:FF P:27 SP:FB PPU:109,115
DF10  C9 47     CMP #$47                        A:47 X:69 Y:FF P:27 SP:FB PPU:109,121
DF12  D0 06     BNE $DF1A                       A:47 X:69 Y:FF P:27 SP:FB PPU:109,127
DF14  A5 7F     LDA $7F = 69                    A:47 X:69 Y:FF P:27 SP:FB PPU:109,133
DF16  C9 69     CMP #$69                        A:69 X:69 Y:FF P:25 SP:FB PPU:109,142
DF18  F0 04     BEQ $DF1E                       A:69 X:69 Y:FF P:27 SP:FB PPU:109,148
DF1E  A9 F5     LDA #$F5                        A:69 X:69 Y:FF P:27 SP:FB PPU:109,157
DF20  85 4F     STA $4F = 00                    A:F5 X:69 Y:FF P:A5 SP:FB PPU:109,163
DF22  A9 47     LDA #$47                        A:F5 X:69 Y:FF P:A5 SP:FB PPU:109,172
DF24  A0 4F     LDY #$4F                        A:47 X:69 Y:FF P:25 SP:FB PPU:109,178
DF26  24 01     BIT $01 = FF                    A:47 X:69 Y:4F P:25 SP:FB PPU:109,184
DF28  A2 00     LDX #$00                        A:47 X:69 Y:4F P:E5 SP:FB PPU:109,193
DF2A  38        SEC                             A:47 X:00 Y:4F P:67 SP:FB PPU:109,199
DF2B  96 00     STX $00,Y @ 4F = F5             A:47 X:00 Y:4F P:67 SP:FB PPU:109,205
DF2D  90 16     BCC $DF45                       A:47 X:00 Y:4F P:67 SP:FB PPU:109,217
DF2F  50 14     BVC $DF45                       A:47 X:00 Y:4F P:67 SP:FB PPU:109,223
DF31  30 12     BMI $DF45                       A:47 X:00 Y:4F P:67 SP:FB PPU:109,229
DF33  D0 10     BNE $DF45                       A:47 X:00 Y:4F P:67 SP:FB PPU:109,235
DF35  E0 00     CPX #$00                        A:47 X:00 Y:4F P:67 SP:FB PPU:109,241
DF37  D0 0C     BNE $DF45                       A:47 X:00 Y:4F P:67 SP:FB PPU:109,247
DF39  C0 4F     CPY #$4F                        A:47 X:00 Y:4F P:67 SP:FB PPU:109,253
DF3B  D0 08     BNE $DF45                       A:47 X:00 Y:4F P:67 SP:FB PPU:109,259
DF3D  C9 47     CMP #$47                        A:47 X:00 Y:4F P:67 SP:FB PPU:109,265
DF3F  D0 04     BNE $DF45                       A:47 X:00 Y:4F P:67 SP:FB PPU:109,271
DF41  A5 4F     LDA $4F = 00                    A:47 X:00 Y:4F P:67 SP:FB PPU:109,277
DF43  F0 04     BEQ $DF49                       A:00 X:00 Y:4F P:67 SP:FB PPU:109,286
DF49  60        RTS                             A:00 X:00 Y:4F P:67 SP:FB PPU:109,295
C62C  20 AA E1  JSR $E1AA                       A:00 X:00 Y:4F P:67 SP:FD PPU:109,313
E1AA  A9 FF     LDA #$FF                        A:00 X:00 Y:4F P:67 SP:FB PPU:109,331
E1AC  85 01     STA $01 = FF                    A:FF X:00 Y:4F P:E5 SP:FB PPU:109,337
E1AE  A9 AA     LDA #$AA                        A:FF X:00 Y:4F P:E5 SP:FB PPU:110,  5
E1B0  8D 33 06  STA $0633 = 00                  A:AA X:00 Y:4F P:E5 SP:FB PPU:110, 11
E1B3  A9 BB     LDA #$BB                        A:AA X:00 Y:4F P:E5 SP:FB PPU:110, 23
E1B5  8D 89 06  STA $0689 = 00                  A:BB X:00 Y:4F P:E5 SP:FB PPU:110, 29
E1B8  A2 00     LDX #$00                        A:BB X:00 Y:4F P:E5 SP:FB PPU:110, 41
E1BA  A9 66     LDA #$66                        A:BB X:00 Y:4F P:67 SP:FB PPU:110, 47
E1BC  24 01     BIT $01 = FF                    A:66 X:00 Y:4F P:65 SP:FB PPU:110, 53
E1BE  38        SEC                             A:66 X:00 Y:4F P:E5 SP:FB PPU:110, 62
E1BF  A0 00     LDY #$00                        A:66 X:00 Y:4F P:E5 SP:FB PPU:110, 68
E1C1  BC 33 06  LDY $0633,X @ 0633 = AA         A:66 X:00 Y:00 P:67 SP:FB PPU:110, 74
E1C4  10 12     BPL $E1D8                       A:66 X:00 Y:AA P:E5 SP:FB PPU:110, 86
E1C6  F0 10     BEQ $E1D8                       A:66 X:00 Y:AA P:E5 SP:FB PPU:110, 92
E1C8  50 0E     BVC $E1D8                       A:66 X:00 Y:AA P:E5 SP:FB PPU:110, 98
E1CA  90 0C     BCC $E1D8                       A:66 X:00 Y:AA P:E5 SP:FB PPU:110,104
E1CC  C9 66     CMP #$66                        A:66 X:00 Y:AA P:E5 SP:FB PPU:110,110
E1CE  D0 08     BNE $E1D8                       A:66 X:00 Y:AA P:67 SP:FB PPU:110,116
E1D0  E0 00     CPX #$00                        A:66 X:00 Y:AA P:67 SP:FB PPU:110,122
E1D2  D0 04     BNE $E1D8                       A:66 X:00 Y:AA P:67 SP:FB PPU:110,128
E1D4  C0 AA     CPY #$AA                        A:66 X:00 Y:AA P:67 SP:FB PPU:110,134
E1D6  F0 04     BEQ $E1DC                       A:66 X:00 Y:AA P:67 SP:FB PPU:110,140
E1DC  A2 8A     LDX #$8A                        A:66 X:00 Y:AA P:67 SP:FB PPU:110,149
E1DE  A9 66     LDA #$66                        A:66 X:8A Y:AA P:E5 SP:FB PPU:110,155
E1E0  B8        CLV                             A:66 X:8A Y:AA P:65 SP:FB PPU:110,161
E1E1  18        CLC                             A:66 X:8A Y:AA P:25 SP:FB PPU:110,167
E1E2  A0 00     LDY #$00                        A:66 X:8A Y:AA P:24 SP:FB PPU:110,173
E1E4  BC FF 05  LDY $05FF,X @ 0689 = BB         A:66 X:8A Y:00 P:26 SP:FB PPU:110,179
E1E7  10 12     BPL $E1FB                       A:66 X:8A Y:BB P:A4 SP:FB PPU:110,194
E1E9  F0 10     BEQ $E1FB                       A:66 X:8A Y:BB P:A4 SP:FB PPU:110,200
E1EB  70 0E     BVS $E1FB                       A:66 X:8A Y:BB P:A4 SP:FB PPU:110,206
E1ED  B0 0C     BCS $E1FB                       A:66 X:8A Y:BB P:A4 SP:FB PPU:110,212
E1EF  C0 BB     CPY #$BB                        A:66 X:8A Y:BB P:A4 SP:FB PPU:110,218
E1F1  D0 08     BNE $E1FB                       A:66 X:8A Y:BB P:27 SP:FB PPU:110,224
E1F3  C9 66     CMP #$66                        A:66 X:8A Y:BB P:27 SP:FB PPU:110,230
E1F5  D0 04     BNE $E1FB                       A:66 X:8A Y:BB P:27 SP:FB PPU:110,236
E1F7  E0 8A     CPX #$8A                        A:66 X:8A Y:BB P:27 SP:FB PPU:110,242
E1F9  F0 04     BEQ $E1FF                       A:66 X:8A Y:BB P:27 SP:FB PPU:110,248
E1FF  A0 53     LDY #$53                        A:66 X:8A Y:BB P:27 SP:FB PPU:110,257
E201  A9 AA     LDA #$AA                        A:66 X:8A Y:53 P:25 SP:FB PPU:110,263
E203  A2 78     LDX #$78                        A:AA X:8A Y:53 P:A5 SP:FB PPU:110,269
E205  8D 78 06  STA $0678 = 00                  A:AA X:78 Y:53 P:25 SP:FB PPU:110,275
E208  20 B6 F7  JSR $F7B6                       A:AA X:78 Y:53 P:25 SP:FB PPU:110,287
F7B6  18        CLC                             A:AA X:78 Y:53 P:25 SP:F9 PPU:110,305
F7B7  A9 FF     LDA #$FF                        A:AA X:78 Y:53 P:24 SP:F9 PPU:110,311
F7B9  85 01     STA $01 = FF                    A:FF X:78 Y:53 P:A4 SP:F9 PPU:110,317
F7BB  24 01     BIT $01 = FF                    A:FF X:78 Y:53 P:A4 SP:F9 PPU:110,326
F7BD  A9 55     LDA #$55                        A:FF X:78 Y:53 P:E4 SP:F9 PPU:110,335
F7BF  60        RTS                             A:55 X:78 Y:53 P:64 SP:F9 PPU:111,  0
E20B  1D 00 06  ORA $0600,X @ 0678 = AA         A:55 X:78 Y:53 P:64 SP:FB PPU:111, 18
E20E  20 C0 F7  JSR $F7C0                       A:FF X:78 Y:53 P:E4 SP:FB PPU:111, 30
F7C0  B0 09     BCS $F7CB                       A:FF X:78 Y:53 P:E4 SP:F9 PPU:111, 48
F7C2  10 07     BPL $F7CB                       A:FF X:78 Y:53 P:E4 SP:F9 PPU:111, 54
F7C4  C9 FF     CMP #$FF                        A:FF X:78 Y:53 P:E4 SP:F9 PPU:111, 60
F7C6  D0 03     BNE $F7CB                       A:FF X:78 Y:53 P:67 SP:F9 PPU:111, 66
F7C8  50 01     BVC $F7CB                       A:FF X:78 Y:53 P:67 SP:F9 PPU:111, 72
F7CA  60        RTS                             A:FF X:78 Y:53 P:67 SP:F9 PPU:111, 78
E211  C8        INY                             A:FF X:78 Y:53 P:67 SP:FB PPU:111, 96
E212  A9 00     LDA #$00                        A:FF X:78 Y:54 P:65 SP:FB PPU:111,102
E214  8D 78 06  STA $0678 = AA                  A:00 X:78 Y:54 P:67 SP:FB PPU:111,108
E217  20 CE F7  JSR $F7CE                       A:00 X:78 Y:54 P:67 SP:FB PPU:111,120
F7CE  38        SEC                             A:00 X:78 Y:54 P:67 SP:F9 PPU:111,138
F7CF  B8        CLV                             A:00 X:78 Y:54 P:67 SP:F9 PPU:111,144
F7D0  A9 00     LDA #$00                        A:00 X:78 Y:54 P:27 SP:F9 PPU:111,150
F7D2  60        RTS                             A:00 X:78 Y:54 P:27 SP:F9 PPU:111,156
E21A  1D 00 06  ORA $0600,X @ 0678 = 00         A:00 X:78 Y:54 P:27 SP:FB PPU:111,174
E21D  20 D3 F7  JSR $F7D3                       A:00 X:78 Y:54 P:27 SP:FB PPU:111,186
F7D3  D0 07     BNE $F7DC                       A:00 X:78 Y:54 P:27 SP:F9 PPU:111,204
F7D5  70 05     BVS $F7DC                       A:00 X:78 Y:54 P:27 SP:F9 PPU:111,210
F7D7  90 03     BCC $F7DC                       A:00 X:78 Y:54 P:27 SP:F9 PPU:111,216
F7D9  30 01     BMI $F7DC                       A:00 X:78 Y:54 P:27 SP:F9 PPU:111,222
F7DB  60        RTS                             A:00 X:78 Y:54 P:27 SP:F9 PPU:111,228
E220  C8        INY                             A:00 X:78 Y:54 P:27 SP:FB PPU:111,246
E221  A9 AA     LDA #$AA                        A:00 X:78 Y:55 P:25 SP:FB PPU:111,252
E223  8D 78 06  STA $0678 = 00                  A:AA X:78 Y:55 P:A5 SP:FB PPU:111,258
E226  20 DF F7  JSR $F7DF                       A:AA X:78 Y:55 P:A5 SP:FB PPU:111,270
F7DF  18        CLC                             A:AA X:78 Y:55 P:A5 SP:F9 PPU:111,288
F7E0  24 01     BIT $01 = FF                    A:AA X:78 Y:55 P:A4 SP:F9 PPU:111,294
F7E2  A9 55     LDA #$55                        A:AA X:78 Y:55 P:E4 SP:F9 PPU:111,303
F7E4  60        RTS                             A:55 X:78 Y:55 P:64 SP:F9 PPU:111,309
E229  3D 00 06  AND $0600,X @ 0678 = AA         A:55 X:78 Y:55 P:64 SP:FB PPU:111,327
E22C  20 E5 F7  JSR $F7E5                       A:00 X:78 Y:55 P:66 SP:FB PPU:111,339
F7E5  D0 07     BNE $F7EE                       A:00 X:78 Y:55 P:66 SP:F9 PPU:112, 16
F7E7  50 05     BVC $F7EE                       A:00 X:78 Y:55 P:66 SP:F9 PPU:112, 22
F7E9  B0 03     BCS $F7EE                       A:00 X:78 Y:55 P:66 SP:F9 PPU:112, 28
F7EB  30 01     BMI $F7EE                       A:00 X:78 Y:55 P:66 SP:F9 PPU:112, 34
F7ED  60        RTS                             A:00 X:78 Y:55 P:66 SP:F9 PPU:112, 40
E22F  C8        INY                             A:00 X:78 Y:55 P:66 SP:FB PPU:112, 58
E230  A9 EF     LDA #$EF                        A:00 X:78 Y:56 P:64 SP:FB PPU:112, 64
E232  8D 78 06  STA $0678 = AA                  A:EF X:78 Y:56 P:E4 SP:FB PPU:112, 70
E235  20 F1 F7  JSR $F7F1                       A:EF X:78 Y:56 P:E4 SP:FB PPU:112, 82
F7F1  38        SEC                             A:EF X:78 Y:56 P:E4 SP:F9 PPU:112,100
F7F2  B8        CLV                             A:EF X:78 Y:56 P:E5 SP:F9 PPU:112,106
F7F3  A9 F8     LDA #$F8                        A:EF X:78 Y:56 P:A5 SP:F9 PPU:112,112
F7F5  60        RTS                             A:F8 X:78 Y:56 P:A5 SP:F9 PPU:112,118
E238  3D 00 06  AND $0600,X @ 0678 = EF         A:F8 X:78 Y:56 P:A5 SP:FB PPU:112,136
E23B  20 F6 F7  JSR $F7F6                       A:E8 X:78 Y:56 P:A5 SP:FB PPU:112,148
F7F6  90 09     BCC $F801                       A:E8 X:78 Y:56 P:A5 SP:F9 PPU:112,166
F7F8  10 07     BPL $F801                       A:E8 X:78 Y:56 P:A5 SP:F9 PPU:112,172
F7FA  C9 E8     CMP #$E8                        A:E8 X:78 Y:56 P:A5 SP:F9 PPU:112,178
F7FC  D0 03     BNE $F801                       A:E8 X:78 Y:56 P:27 SP:F9 PPU:112,184
F7FE  70 01     BVS $F801                       A:E8 X:78 Y:56 P:27 SP:F9 PPU:112,190
F800  60        RTS                             A:E8 X:78 Y:56 P:27 SP:F9 PPU:112,196
E23E  C8        INY                             A:E8 X:78 Y:56 P:27 SP:FB PPU:112,214
E23F  A9 AA     LDA #$AA                        A:E8 X:78 Y:57 P:25 SP:FB PPU:112,220
E241  8D 78 06  STA $0678 = EF                  A:AA X:78 Y:57 P:A5 SP:FB PPU:112,226
E244  20 04 F8  JSR $F804                       A:AA X:78 Y:57 P:A5 SP:FB PPU:112,238
F804  18        CLC                             A:AA X:78 Y:57 P:A5 SP:F9 PPU:112,256
F805  24 01     BIT $01 = FF                    A:AA X:78 Y:57 P:A4 SP:F9 PPU:112,262
F807  A9 5F     LDA #$5F                        A:AA X:78 Y:57 P:E4 SP:F9 PPU:112,271
F809  60        RTS                             A:5F X:78 Y:57 P:64 SP:F9 PPU:112,277
E247  5D 00 06  EOR $0600,X @ 0678 = AA         A:5F X:78 Y:57 P:64 SP:FB PPU:112,295
E24A  20 0A F8  JSR $F80A                       A:F5 X:78 Y:57 P:E4 SP:FB PPU:112,307
F80A  B0 09     BCS $F815                       A:F5 X:78 Y:57 P:E4 SP:F9 PPU:112,325
F80C  10 07     BPL $F815                       A:F5 X:78 Y:57 P:E4 SP:F9 PPU:112,331
F80E  C9 F5     CMP #$F5                        A:F5 X:78 Y:57 P:E4 SP:F9 PPU:112,337
F810  D0 03     BNE $F815                       A:F5 X:78 Y:57 P:67 SP:F9 PPU:113,  2
F812  50 01     BVC $F815                       A:F5 X:78 Y:57 P:67 SP:F9 PPU:113,  8
F814  60        RTS                             A:F5 X:78 Y:57 P:67 SP:F9 PPU:113, 14
E24D  C8        INY                             A:F5 X:78 Y:57 P:67 SP:FB PPU:113, 32
E24E  A9 70     LDA #$70                        A:F5 X:78 Y:58 P:65 SP:FB PPU:113, 38
E250  8D 78 06  STA $0678 = AA                  A:70 X:78 Y:58 P:65 SP:FB PPU:113, 44
E253  20 18 F8  JSR $F818                       A:70 X:78 Y:58 P:65 SP:FB PPU:113, 56
F818  38        SEC                             A:70 X:78 Y:58 P:65 SP:F9 PPU:113, 74
F819  B8        CLV                             A:70 X:78 Y:58 P:65 SP:F9 PPU:113, 80
F81A  A9 70     LDA #$70                        A:70 X:78 Y:58 P:25 SP:F9 PPU:113, 86
F81C  60        RTS                             A:70 X:78 Y:58 P:25 SP:F9 PPU:113, 92
E256  5D 00 06  EOR $0600,X @ 0678 = 70         A:70 X:78 Y:58 P:25 SP:FB PPU:113,110
E259  20 1D F8  JSR $F81D                       A:00 X:78 Y:58 P:27 SP:FB PPU:113,122
F81D  D0 07     BNE $F826                       A:00 X:78 Y:58 P:27 SP:F9 PPU:113,140
F81F  70 05     BVS $F826                       A:00 X:78 Y:58 P:27 SP:F9 PPU:113,146
F821  90 03     BCC $F826                       A:00 X:78 Y:58 P:27 SP:F9 PPU:113,152
F823  30 01     BMI $F826                       A:00 X:78 Y:58 P:27 SP:F9 PPU:113,158
F825  60        RTS                             A:00 X:78 Y:58 P:27 SP:F9 PPU:113,164
E25C  C8        INY                             A:00 X:78 Y:58 P:27 SP:FB PPU:113,182
E25D  A9 69     LDA #$69                        A:00 X:78 Y:59 P:25 SP:FB PPU:113,188
E25F  8D 78 06  STA $0678 = 70                  A:69 X:78 Y:59 P:25 SP:FB PPU:113,194
E262  20 29 F8  JSR $F829                       A:69 X:78 Y:59 P:25 SP:FB PPU:113,206
F829  18        CLC                             A:69 X:78 Y:59 P:25 SP:F9 PPU:113,224
F82A  24 01     BIT $01 = FF                    A:69 X:78 Y:59 P:24 SP:F9 PPU:113,230
F82C  A9 00     LDA #$00                        A:69 X:78 Y:59 P:E4 SP:F9 PPU:113,239
F82E  60        RTS                             A:00 X:78 Y:59 P:66 SP:F9 PPU:113,245
E265  7D 00 06  ADC $0600,X @ 0678 = 69         A:00 X:78 Y:59 P:66 SP:FB PPU:113,263
E268  20 2F F8  JSR $F82F                       A:69 X:78 Y:59 P:24 SP:FB PPU:113,275
F82F  30 09     BMI $F83A                       A:69 X:78 Y:59 P:24 SP:F9 PPU:113,293
F831  B0 07     BCS $F83A                       A:69 X:78 Y:59 P:24 SP:F9 PPU:113,299
F833  C9 69     CMP #$69                        A:69 X:78 Y:59 P:24 SP:F9 PPU:113,305
F835  D0 03     BNE $F83A                       A:69 X:78 Y:59 P:27 SP:F9 PPU:113,311
F837  70 01     BVS $F83A                       A:69 X:78 Y:59 P:27 SP:F9 PPU:113,317
F839  60        RTS                             A:69 X:78 Y:59 P:27 SP:F9 PPU:113,323
E26B  C8        INY                             A:69 X:78 Y:59 P:27 SP:FB PPU:114,  0
E26C  20 3D F8  JSR $F83D                       A:69 X:78 Y:5A P:25 SP:FB PPU:114,  6
F83D  38        SEC                             A:69 X:78 Y:5A P:25 SP:F9 PPU:114, 24
F83E  24 01     BIT $01 = FF                    A:69 X:78 Y:5A P:25 SP:F9 PPU:114, 30
F840  A9 00     LDA #$00                        A:69 X:78 Y:5A P:E5 SP:F9 PPU:114, 39
F842  60        RTS                             A:00 X:78 Y:5A P:67 SP:F9 PPU:114, 45
E26F  7D 00 06  ADC $0600,X @ 0678 = 69         A:00 X:78 Y:5A P:67 SP:FB PPU:114, 63
E272  20 43 F8  JSR $F843                       A:6A X:78 Y:5A P:24 SP:FB PPU:114, 75
F843  30 09     BMI $F84E                       A:6A X:78 Y:5A P:24 SP:F9 PPU:114, 93
F845  B0 07     BCS $F84E                       A:6A X:78 Y:5A P:24 SP:F9 PPU:114, 99
F847  C9 6A     CMP #$6A                        A:6A X:78 Y:5A P:24 SP:F9 PPU:114,105
F849  D0 03     BNE $F84E                       A:6A X:78 Y:5A P:27 SP:F9 PPU:114,111
F84B  70 01     BVS $F84E                       A:6A X:78 Y:5A P:27 SP:F9 PPU:114,117
F84D  60        RTS                             A:6A X:78 Y:5A P:27 SP:F9 PPU:114,123
E275  C8        INY                             A:6A X:78 Y:5A P:27 SP:FB PPU:114,141
E276  A9 7F     LDA #$7F                        A:6A X:78 Y:5B P:25 SP:FB PPU:114,147
E278  8D 78 06  STA $0678 = 69                  A:7F X:78 Y:5B P:25 SP:FB PPU:114,153
E27B  20 51 F8  JSR $F851                       A:7F X:78 Y:5B P:25 SP:FB PPU:114,165
F851  38        SEC                             A:7F X:78 Y:5B P:25 SP:F9 PPU:114,183
F852  B8        CLV                             A:7F X:78 Y:5B P:25 SP:F9 PPU:114,189
F853  A9 7F     LDA #$7F                        A:7F X:78 Y:5B P:25 SP:F9 PPU:114,195
F855  60        RTS                             A:7F X:78 Y:5B P:25 SP:F9 PPU:114,201
E27E  7D 00 06  ADC $0600,X @ 0678 = 7F         A:7F X:78 Y:5B P:25 SP:FB PPU:114,219
E281  20 56 F8  JSR $F856                       A:FF X:78 Y:5B P:E4 SP:FB PPU:114,231
F856  10 09     BPL $F861                       A:FF X:78 Y:5B P:E4 SP:F9 PPU:114,249
F858  B0 07     BCS $F861                       A:FF X:78 Y:5B P:E4 SP:F9 PPU:114,255
F85A  C9 FF     CMP #$FF                        A:FF X:78 Y:5B P:E4 SP:F9 PPU:114,261
F85C  D0 03     BNE $F861                       A:FF X:78 Y:5B P:67 SP:F9 PPU:114,267
F85E  50 01     BVC $F861                       A:FF X:78 Y:5B P:67 SP:F9 PPU:114,273
F860  60        RTS                             A:FF X:78 Y:5B P:67 SP:F9 PPU:114,279
E284  C8        INY                             A:FF X:78 Y:5B P:67 SP:FB PPU:114,297
E285  A9 80     LDA #$80                        A:FF X:78 Y:5C P:65 SP:FB PPU:114,303
E287  8D 78 06  STA $0678 = 7F                  A:80 X:78 Y:5C P:E5 SP:FB PPU:114,309
E28A  20 64 F8  JSR $F864                       A:80 X:78 Y:5C P:E5 SP:FB PPU:114,321
F864  18        CLC                             A:80 X:78 Y:5C P:E5 SP:F9 PPU:114,339
F865  24 01     BIT $01 = FF                    A:80 X:78 Y:5C P:E4 SP:F9 PPU:115,  4
F867  A9 7F     LDA #$7F                        A:80 X:78 Y:5C P:E4 SP:F9 PPU:115, 13
F869  60        RTS                             A:7F X:78 Y:5C P:64 SP:F9 PPU:115, 19
E28D  7D 00 06  ADC $0600,X @ 0678 = 80         A:7F X:78 Y:5C P:64 SP:FB PPU:115, 37
E290  20 6A F8  JSR $F86A                       A:FF X:78 Y:5C P:A4 SP:FB PPU:115, 49
F86A  10 09     BPL $F875                       A:FF X:78 Y:5C P:A4 SP:F9 PPU:115, 67
F86C  B0 07     BCS $F875                       A:FF X:78 Y:5C P:A4 SP:F9 PPU:115, 73
F86E  C9 FF     CMP #$FF                        A:FF X:78 Y:5C P:A4 SP:F9 PPU:115, 79
F870  D0 03     BNE $F875                       A:FF X:78 Y:5C P:27 SP:F9 PPU:115, 85
F872  70 01     BVS $F875                       A:FF X:78 Y:5C P:27 SP:F9 PPU:115, 91
F874  60        RTS                             A:FF X:78 Y:5C P:27 SP:F9 PPU:115, 97
E293  C8        INY                             A:FF X:78 Y:5C P:27 SP:FB PPU:115,115
E294  20 78 F8  JSR $F878                       A:FF X:78 Y:5D P:25 SP:FB PPU:115,121
F878  38        SEC                             A:FF X:78 Y:5D P:25 SP:F9 PPU:115,139
F879  B8        CLV                             A:FF X:78 Y:5D P:25 SP:F9 PPU:115,145
F87A  A9 7F     LDA #$7F                        A:FF X:78 Y:5D P:25 SP:F9 PPU:115,151
F87C  60        RTS                             A:7F X:78 Y:5D P:25 SP:F9 PPU:115,157
E297  7D 00 06  ADC $0600,X @ 0678 = 80         A:7F X:78 Y:5D P:25 SP:FB PPU:115,175
E29A  20 7D F8  JSR $F87D                       A:00 X:78 Y:5D P:27 SP:FB PPU:115,187
F87D  D0 07     BNE $F886                       A:00 X:78 Y:5D P:27 SP:F9 PPU:115,205
F87F  30 05     BMI $F886                       A:00 X:78 Y:5D P:27 SP:F9 PPU:115,211
F881  70 03     BVS $F886                       A:00 X:78 Y:5D P:27 SP:F9 PPU:115,217
F883  90 01     BCC $F886                       A:00 X:78 Y:5D P:27 SP:F9 PPU:115,223
F885  60        RTS                             A:00 X:78 Y:5D P:27 SP:F9 PPU:115,229
E29D  C8        INY                             A:00 X:78 Y:5D P:27 SP:FB PPU:115,247
E29E  A9 40     LDA #$40                        A:00 X:78 Y:5E P:25 SP:FB PPU:115,253
E2A0  8D 78 06  STA $0678 = 80                  A:40 X:78 Y:5E P:25 SP:FB PPU:115,259
E2A3  20 89 F8  JSR $F889                       A:40 X:78 Y:5E P:25 SP:FB PPU:115,271
F889  24 01     BIT $01 = FF                    A:40 X:78 Y:5E P:25 SP:F9 PPU:115,289
F88B  A9 40     LDA #$40                        A:40 X:78 Y:5E P:E5 SP:F9 PPU:115,298
F88D  60        RTS                             A:40 X:78 Y:5E P:65 SP:F9 PPU:115,304
E2A6  DD 00 06  CMP $0600,X @ 0678 = 40         A:40 X:78 Y:5E P:65 SP:FB PPU:115,322
E2A9  20 8E F8  JSR $F88E                       A:40 X:78 Y:5E P:67 SP:FB PPU:115,334
F88E  30 07     BMI $F897                       A:40 X:78 Y:5E P:67 SP:F9 PPU:116, 11
F890  90 05     BCC $F897                       A:40 X:78 Y:5E P:67 SP:F9 PPU:116, 17
F892  D0 03     BNE $F897                       A:40 X:78 Y:5E P:67 SP:F9 PPU:116, 23
F894  50 01     BVC $F897                       A:40 X:78 Y:5E P:67 SP:F9 PPU:116, 29
F896  60        RTS                             A:40 X:78 Y:5E P:67 SP:F9 PPU:116, 35
E2AC  C8        INY                             A:40 X:78 Y:5E P:67 SP:FB PPU:116, 53
E2AD  48        PHA                             A:40 X:78 Y:5F P:65 SP:FB PPU:116, 59
E2AE  A9 3F     LDA #$3F                        A:40 X:78 Y:5F P:65 SP:FA PPU:116, 68
E2B0  8D 78 06  STA $0678 = 40                  A:3F X:78 Y:5F P:65 SP:FA PPU:116, 74
E2B3  68        PLA                             A:3F X:78 Y:5F P:65 SP:FA PPU:116, 86
E2B4  20 9A F8  JSR $F89A                       A:40 X:78 Y:5F P:65 SP:FB PPU:116, 98
F89A  B8        CLV                             A:40 X:78 Y:5F P:65 SP:F9 PPU:116,116
F89B  60        RTS                             A:40 X:78 Y:5F P:25 SP:F9 PPU:116,122
E2B7  DD 00 06  CMP $0600,X @ 0678 = 3F         A:40 X:78 Y:5F P:25 SP:FB PPU:116,140
E2BA  20 9C F8  JSR $F89C                       A:40 X:78 Y:5F P:25 SP:FB PPU:116,152
F89C  F0 07     BEQ $F8A5                       A:40 X:78 Y:5F P:25 SP:F9 PPU:116,170
F89E  30 05     BMI $F8A5                       A:40 X:78 Y:5F P:25 SP:F9 PPU:116,176
F8A0  90 03     BCC $F8A5                       A:40 X:78 Y:5F P:25 SP:F9 PPU:116,182
F8A2  70 01     BVS $F8A5                       A:40 X:78 Y:5F P:25 SP:F9 PPU:116,188
F8A4  60        RTS                             A:40 X:78 Y:5F P:25 SP:F9 PPU:116,194
E2BD  C8        INY                             A:40 X:78 Y:5F P:25 SP:FB PPU:116,212
E2BE  48        PHA                             A:40 X:78 Y:60 P:25 SP:FB PPU:116,218
E2BF  A9 41     LDA #$41                        A:40 X:78 Y:60 P:25 SP:FA PPU:116,227
E2C1  8D 78 06  STA $0678 = 3F                  A:41 X:78 Y:60 P:25 SP:FA PPU:116,233
E2C4  68        PLA                             A:41 X:78 Y:60 P:25 SP:FA PPU:116,245
E2C5  DD 00 06  CMP $0600,X @ 0678 = 41         A:40 X:78 Y:60 P:25 SP:FB PPU:116,257
E2C8  20 A8 F8  JSR $F8A8                       A:40 X:78 Y:60 P:A4 SP:FB PPU:116,269
F8A8  F0 05     BEQ $F8AF                       A:40 X:78 Y:60 P:A4 SP:F9 PPU:116,287
F8AA  10 03     BPL $F8AF                       A:40 X:78 Y:60 P:A4 SP:F9 PPU:116,293
F8AC  10 01     BPL $F8AF                       A:40 X:78 Y:60 P:A4 SP:F9 PPU:116,299
F8AE  60        RTS                             A:40 X:78 Y:60 P:A4 SP:F9 PPU:116,305
E2CB  C8        INY                             A:40 X:78 Y:60 P:A4 SP:FB PPU:116,323
E2CC  48        PHA                             A:40 X:78 Y:61 P:24 SP:FB PPU:116,329
E2CD  A9 00     LDA #$00                        A:40 X:78 Y:61 P:24 SP:FA PPU:116,338
E2CF  8D 78 06  STA $0678 = 41                  A:00 X:78 Y:61 P:26 SP:FA PPU:117,  3
E2D2  68        PLA                             A:00 X:78 Y:61 P:26 SP:FA PPU:117, 15
E2D3  20 B2 F8  JSR $F8B2                       A:40 X:78 Y:61 P:24 SP:FB PPU:117, 27
F8B2  A9 80     LDA #$80                        A:40 X:78 Y:61 P:24 SP:F9 PPU:117, 45
F8B4  60        RTS                             A:80 X:78 Y:61 P:A4 SP:F9 PPU:117, 51
E2D6  DD 00 06  CMP $0600,X @ 0678 = 00         A:80 X:78 Y:61 P:A4 SP:FB PPU:117, 69
E2D9  20 B5 F8  JSR $F8B5                       A:80 X:78 Y:61 P:A5 SP:FB PPU:117, 81
F8B5  F0 05     BEQ $F8BC                       A:80 X:78 Y:61 P:A5 SP:F9 PPU:117, 99
F8B7  10 03     BPL $F8BC                       A:80 X:78 Y:61 P:A5 SP:F9 PPU:117,105
F8B9  90 01     BCC $F8BC                       A:80 X:78 Y:61 P:A5 SP:F9 PPU:117,111
F8BB  60        RTS                             A:80 X:78 Y:61 P:A5 SP:F9 PPU:117,117
E2DC  C8        INY                             A:80 X:78 Y:61 P:A5 SP:FB PPU:117,135
E2DD  48        PHA                             A:80 X:78 Y:62 P:25 SP:FB PPU:117,141
E2DE  A9 80     LDA #$80                        A:80 X:78 Y:62 P:25 SP:FA PPU:117,150
E2E0  8D 78 06  STA $0678 = 00                  A:80 X:78 Y:62 P:A5 SP:FA PPU:117,156
E2E3  68        PLA                             A:80 X:78 Y:62 P:A5 SP:FA PPU:117,168
E2E4  DD 00 06  CMP $0600,X @ 0678 = 80         A:80 X:78 Y:62 P:A5 SP:FB PPU:117,180
E2E7  20 BF F8  JSR $F8BF                       A:80 X:78 Y:62 P:27 SP:FB PPU:117,192
F8BF  D0 05     BNE $F8C6                       A:80 X:78 Y:62 P:27 SP:F9 PPU:117,210
F8C1  30 03     BMI $F8C6                       A:80 X:78 Y:62 P:27 SP:F9 PPU:117,216
F8C3  90 01     BCC $F8C6                       A:80 X:78 Y:62 P:27 SP:F9 PPU:117,222
F8C5  60        RTS                             A:80 X:78 Y:62 P:27 SP:F9 PPU:117,228
E2EA  C8        INY                             A:80 X:78 Y:62 P:27 SP:FB PPU:117,246
E2EB  48        PHA                             A:80 X:78 Y:63 P:25 SP:FB PPU:117,252
E2EC  A9 81     LDA #$81                        A:80 X:78 Y:63 P:25 SP:FA PPU:117,261
E2EE  8D 78 06  STA $0678 = 80                  A:81 X:78 Y:63 P:A5 SP:FA PPU:117,267
E2F1  68        PLA                             A:81 X:78 Y:63 P:A5 SP:FA PPU:117,279
E2F2  DD 00 06  CMP $0600,X @ 0678 = 81         A:80 X:78 Y:63 P:A5 SP:FB PPU:117,291
E2F5  20 C9 F8  JSR $F8C9                       A:80 X:78 Y:63 P:A4 SP:FB PPU:117,303
F8C9  B0 05     BCS $F8D0                       A:80 X:78 Y:63 P:A4 SP:F9 PPU:117,321
F8CB  F0 03     BEQ $F8D0                       A:80 X:78 Y:63 P:A4 SP:F9 PPU:117,327
F8CD  10 01     BPL $F8D0                       A:80 X:78 Y:63 P:A4 SP:F9 PPU:117,333
F8CF  60        RTS                             A:80 X:78 Y:63 P:A4 SP:F9 PPU:117,339
E2F8  C8        INY                             A:80 X:78 Y:63 P:A4 SP:FB PPU:118, 16
E2F9  48        PHA                             A:80 X:78 Y:64 P:24 SP:FB PPU:118, 22
E2FA  A9 7F     LDA #$7F                        A:80 X:78 Y:64 P:24 SP:FA PPU:118, 31
E2FC  8D 78 06  STA $0678 = 81                  A:7F X:78 Y:64 P:24 SP:FA PPU:118, 37
E2FF  68        PLA                             A:7F X:78 Y:64 P:24 SP:FA PPU:118, 49
E300  DD 00 06  CMP $0600,X @ 0678 = 7F         A:80 X:78 Y:64 P:A4 SP:FB PPU:118, 61
E303  20 D3 F8  JSR $F8D3                       A:80 X:78 Y:64 P:25 SP:FB PPU:118, 73
F8D3  90 05     BCC $F8DA                       A:80 X:78 Y:64 P:25 SP:F9 PPU:118, 91
F8D5  F0 03     BEQ $F8DA                       A:80 X:78 Y:64 P:25 SP:F9 PPU:118, 97
F8D7  30 01     BMI $F8DA                       A:80 X:78 Y:64 P:25 SP:F9 PPU:118,103
F8D9  60        RTS                             A:80 X:78 Y:64 P:25 SP:F9 PPU:118,109
E306  C8        INY                             A:80 X:78 Y:64 P:25 SP:FB PPU:118,127
E307  A9 40     LDA #$40                        A:80 X:78 Y:65 P:25 SP:FB PPU:118,133
E309  8D 78 06  STA $0678 = 7F                  A:40 X:78 Y:65 P:25 SP:FB PPU:118,139
E30C  20 31 F9  JSR $F931                       A:40 X:78 Y:65 P:25 SP:FB PPU:118,151
F931  24 01     BIT $01 = FF                    A:40 X:78 Y:65 P:25 SP:F9 PPU:118,169
F933  A9 40     LDA #$40                        A:40 X:78 Y:65 P:E5 SP:F9 PPU:118,178
F935  38        SEC                             A:40 X:78 Y:65 P:65 SP:F9 PPU:118,184
F936  60        RTS                             A:40 X:78 Y:65 P:65 SP:F9 PPU:118,190
E30F  FD 00 06  SBC $0600,X @ 0678 = 40         A:40 X:78 Y:65 P:65 SP:FB PPU:118,208
E312  20 37 F9  JSR $F937                       A:00 X:78 Y:65 P:27 SP:FB PPU:118,220
F937  30 0B     BMI $F944                       A:00 X:78 Y:65 P:27 SP:F9 PPU:118,238
F939  90 09     BCC $F944                       A:00 X:78 Y:65 P:27 SP:F9 PPU:118,244
F93B  D0 07     BNE $F944                       A:00 X:78 Y:65 P:27 SP:F9 PPU:118,250
F93D  70 05     BVS $F944                       A:00 X:78 Y:65 P:27 SP:F9 PPU:118,256
F93F  C9 00     CMP #$00                        A:00 X:78 Y:65 P:27 SP:F9 PPU:118,262
F941  D0 01     BNE $F944                       A:00 X:78 Y:65 P:27 SP:F9 PPU:118,268
F943  60        RTS                             A:00 X:78 Y:65 P:27 SP:F9 PPU:118,274
E315  C8        INY                             A:00 X:78 Y:65 P:27 SP:FB PPU:118,292
E316  A9 3F     LDA #$3F                        A:00 X:78 Y:66 P:25 SP:FB PPU:118,298
E318  8D 78 06  STA $0678 = 40                  A:3F X:78 Y:66 P:25 SP:FB PPU:118,304
E31B  20 47 F9  JSR $F947                       A:3F X:78 Y:66 P:25 SP:FB PPU:118,316
F947  B8        CLV                             A:3F X:78 Y:66 P:25 SP:F9 PPU:118,334
F948  38        SEC                             A:3F X:78 Y:66 P:25 SP:F9 PPU:118,340
F949  A9 40     LDA #$40                        A:3F X:78 Y:66 P:25 SP:F9 PPU:119,  5
F94B  60        RTS                             A:40 X:78 Y:66 P:25 SP:F9 PPU:119, 11
E31E  FD 00 06  SBC $0600,X @ 0678 = 3F         A:40 X:78 Y:66 P:25 SP:FB PPU:119, 29
E321  20 4C F9  JSR $F94C                       A:01 X:78 Y:66 P:25 SP:FB PPU:119, 41
F94C  F0 0B     BEQ $F959                       A:01 X:78 Y:66 P:25 SP:F9 PPU:119, 59
F94E  30 09     BMI $F959                       A:01 X:78 Y:66 P:25 SP:F9 PPU:119, 65
F950  90 07     BCC $F959                       A:01 X:78 Y:66 P:25 SP:F9 PPU:119, 71
F952  70 05     BVS $F959                       A:01 X:78 Y:66 P:25 SP:F9 PPU:119, 77
F954  C9 01     CMP #$01                        A:01 X:78 Y:66 P:25 SP:F9 PPU:119, 83
F956  D0 01     BNE $F959                       A:01 X:78 Y:66 P:27 SP:F9 PPU:119, 89
F958  60        RTS                             A:01 X:78 Y:66 P:27 SP:F9 PPU:119, 95
E324  C8        INY                             A:01 X:78 Y:66 P:27 SP:FB PPU:119,113
E325  A9 41     LDA #$41                        A:01 X:78 Y:67 P:25 SP:FB PPU:119,119
E327  8D 78 06  STA $0678 = 3F                  A:41 X:78 Y:67 P:25 SP:FB PPU:119,125
E32A  20 5C F9  JSR $F95C                       A:41 X:78 Y:67 P:25 SP:FB PPU:119,137
F95C  A9 40     LDA #$40                        A:41 X:78 Y:67 P:25 SP:F9 PPU:119,155
F95E  38        SEC                             A:40 X:78 Y:67 P:25 SP:F9 PPU:119,161
F95F  24 01     BIT $01 = FF                    A:40 X:78 Y:67 P:25 SP:F9 PPU:119,167
F961  60        RTS                             A:40 X:78 Y:67 P:E5 SP:F9 PPU:119,176
E32D  FD 00 06  SBC $0600,X @ 0678 = 41         A:40 X:78 Y:67 P:E5 SP:FB PPU:119,194
E330  20 62 F9  JSR $F962                       A:FF X:78 Y:67 P:A4 SP:FB PPU:119,206
F962  B0 0B     BCS $F96F                       A:FF X:78 Y:67 P:A4 SP:F9 PPU:119,224
F964  F0 09     BEQ $F96F                       A:FF X:78 Y:67 P:A4 SP:F9 PPU:119,230
F966  10 07     BPL $F96F                       A:FF X:78 Y:67 P:A4 SP:F9 PPU:119,236
F968  70 05     BVS $F96F                       A:FF X:78 Y:67 P:A4 SP:F9 PPU:119,242
F96A  C9 FF     CMP #$FF                        A:FF X:78 Y:67 P:A4 SP:F9 PPU:119,248
F96C  D0 01     BNE $F96F                       A:FF X:78 Y:67 P:27 SP:F9 PPU:119,254
F96E  60        RTS                             A:FF X:78 Y:67 P:27 SP:F9 PPU:119,260
E333  C8        INY                             A:FF X:78 Y:67 P:27 SP:FB PPU:119,278
E334  A9 00     LDA #$00                        A:FF X:78 Y:68 P:25 SP:FB PPU:119,284
E336  8D 78 06  STA $0678 = 41                  A:00 X:78 Y:68 P:27 SP:FB PPU:119,290
E339  20 72 F9  JSR $F972                       A:00 X:78 Y:68 P:27 SP:FB PPU:119,302
F972  18        CLC                             A:00 X:78 Y:68 P:27 SP:F9 PPU:119,320
F973  A9 80     LDA #$80                        A:00 X:78 Y:68 P:26 SP:F9 PPU:119,326
F975  60        RTS                             A:80 X:78 Y:68 P:A4 SP:F9 PPU:119,332
E33C  FD 00 06  SBC $0600,X @ 0678 = 00         A:80 X:78 Y:68 P:A4 SP:FB PPU:120,  9
E33F  20 76 F9  JSR $F976                       A:7F X:78 Y:68 P:65 SP:FB PPU:120, 21
F976  90 05     BCC $F97D                       A:7F X:78 Y:68 P:65 SP:F9 PPU:120, 39
F978  C9 7F     CMP #$7F                        A:7F X:78 Y:68 P:65 SP:F9 PPU:120, 45
F97A  D0 01     BNE $F97D                       A:7F X:78 Y:68 P:67 SP:F9 PPU:120, 51
F97C  60        RTS                             A:7F X:78 Y:68 P:67 SP:F9 PPU:120, 57
E342  C8        INY                             A:7F X:78 Y:68 P:67 SP:FB PPU:120, 75
E343  A9 7F     LDA #$7F                        A:7F X:78 Y:69 P:65 SP:FB PPU:120, 81
E345  8D 78 06  STA $0678 = 00                  A:7F X:78 Y:69 P:65 SP:FB PPU:120, 87
E348  20 80 F9  JSR $F980                       A:7F X:78 Y:69 P:65 SP:FB PPU:120, 99
F980  38        SEC                             A:7F X:78 Y:69 P:65 SP:F9 PPU:120,117
F981  A9 81     LDA #$81                        A:7F X:78 Y:69 P:65 SP:F9 PPU:120,123
F983  60        RTS                             A:81 X:78 Y:69 P:E5 SP:F9 PPU:120,129
E34B  FD 00 06  SBC $0600,X @ 0678 = 7F         A:81 X:78 Y:69 P:E5 SP:FB PPU:120,147
E34E  20 84 F9  JSR $F984                       A:02 X:78 Y:69 P:65 SP:FB PPU:120,159
F984  50 07     BVC $F98D                       A:02 X:78 Y:69 P:65 SP:F9 PPU:120,177
F986  90 05     BCC $F98D                       A:02 X:78 Y:69 P:65 SP:F9 PPU:120,183
F988  C9 02     CMP #$02                        A:02 X:78 Y:69 P:65 SP:F9 PPU:120,189
F98A  D0 01     BNE $F98D                       A:02 X:78 Y:69 P:67 SP:F9 PPU:120,195
F98C  60        RTS                             A:02 X:78 Y:69 P:67 SP:F9 PPU:120,201
E351  A9 AA     LDA #$AA                        A:02 X:78 Y:69 P:67 SP:FB PPU:120,219
E353  8D 33 06  STA $0633 = AA                  A:AA X:78 Y:69 P:E5 SP:FB PPU:120,225
E356  A9 BB     LDA #$BB                        A:AA X:78 Y:69 P:E5 SP:FB PPU:120,237
E358  8D 89 06  STA $0689 = BB                  A:BB X:78 Y:69 P:E5 SP:FB PPU:120,243
E35B  A2 00     LDX #$00                        A:BB X:78 Y:69 P:E5 SP:FB PPU:120,255
E35D  A0 66     LDY #$66                        A:BB X:00 Y:69 P:67 SP:FB PPU:120,261
E35F  24 01     BIT $01 = FF                    A:BB X:00 Y:66 P:65 SP:FB PPU:120,267
E361  38        SEC                             A:BB X:00 Y:66 P:E5 SP:FB PPU:120,276
E362  A9 00     LDA #$00                        A:BB X:00 Y:66 P:E5 SP:FB PPU:120,282
E364  BD 33 06  LDA $0633,X @ 0633 = AA         A:00 X:00 Y:66 P:67 SP:FB PPU:120,288
E367  10 12     BPL $E37B                       A:AA X:00 Y:66 P:E5 SP:FB PPU:120,300
E369  F0 10     BEQ $E37B                       A:AA X:00 Y:66 P:E5 SP:FB PPU:120,306
E36B  50 0E     BVC $E37B                       A:AA X:00 Y:66 P:E5 SP:FB PPU:120,312
E36D  90 0C     BCC $E37B                       A:AA X:00 Y:66 P:E5 SP:FB PPU:120,318
E36F  C0 66     CPY #$66                        A:AA X:00 Y:66 P:E5 SP:FB PPU:120,324
E371  D0 08     BNE $E37B                       A:AA X:00 Y:66 P:67 SP:FB PPU:120,330
E373  E0 00     CPX #$00                        A:AA X:00 Y:66 P:67 SP:FB PPU:120,336
E375  D0 04     BNE $E37B                       A:AA X:00 Y:66 P:67 SP:FB PPU:121,  1
E377  C9 AA     CMP #$AA                        A:AA X:00 Y:66 P:67 SP:FB PPU:121,  7
E379  F0 04     BEQ $E37F                       A:AA X:00 Y:66 P:67 SP:FB PPU:121, 13
E37F  A2 8A     LDX #$8A                        A:AA X:00 Y:66 P:67 SP:FB PPU:121, 22
E381  A0 66     LDY #$66                        A:AA X:8A Y:66 P:E5 SP:FB PPU:121, 28
E383  B8        CLV                             A:AA X:8A Y:66 P:65 SP:FB PPU:121, 34
E384  18        CLC                             A:AA X:8A Y:66 P:25 SP:FB PPU:121, 40
E385  A9 00     LDA #$00                        A:AA X:8A Y:66 P:24 SP:FB PPU:121, 46
E387  BD FF 05  LDA $05FF,X @ 0689 = BB         A:00 X:8A Y:66 P:26 SP:FB PPU:121, 52
E38A  10 12     BPL $E39E                       A:BB X:8A Y:66 P:A4 SP:FB PPU:121, 67
E38C  F0 10     BEQ $E39E                       A:BB X:8A Y:66 P:A4 SP:FB PPU:121, 73
E38E  70 0E     BVS $E39E                       A:BB X:8A Y:66 P:A4 SP:FB PPU:121, 79
E390  B0 0C     BCS $E39E                       A:BB X:8A Y:66 P:A4 SP:FB PPU:121, 85
E392  C9 BB     CMP #$BB                        A:BB X:8A Y:66 P:A4 SP:FB PPU:121, 91
E394  D0 08     BNE $E39E                       A:BB X:8A Y:66 P:27 SP:FB PPU:121, 97
E396  C0 66     CPY #$66                        A:BB X:8A Y:66 P:27 SP:FB PPU:121,103
E398  D0 04     BNE $E39E                       A:BB X:8A Y:66 P:27 SP:FB PPU:121,109
E39A  E0 8A     CPX #$8A                        A:BB X:8A Y:66 P:27 SP:FB PPU:121,115
E39C  F0 04     BEQ $E3A2                       A:BB X:8A Y:66 P:27 SP:FB PPU:121,121
E3A2  24 01     BIT $01 = FF                    A:BB X:8A Y:66 P:27 SP:FB PPU:121,130
E3A4  38        SEC                             A:BB X:8A Y:66 P:E5 SP:FB PPU:121,139
E3A5  A9 44     LDA #$44                        A:BB X:8A Y:66 P:E5 SP:FB PPU:121,145
E3A7  A2 00     LDX #$00                        A:44 X:8A Y:66 P:65 SP:FB PPU:121,151
E3A9  9D 33 06  STA $0633,X @ 0633 = AA         A:44 X:00 Y:66 P:67 SP:FB PPU:121,157
E3AC  AD 33 06  LDA $0633 = 44                  A:44 X:00 Y:66 P:67 SP:FB PPU:121,172
E3AF  90 1A     BCC $E3CB                       A:44 X:00 Y:66 P:65 SP:FB PPU:121,184
E3B1  C9 44     CMP #$44                        A:44 X:00 Y:66 P:65 SP:FB PPU:121,190
E3B3  D0 16     BNE $E3CB                       A:44 X:00 Y:66 P:67 SP:FB PPU:121,196
E3B5  50 14     BVC $E3CB                       A:44 X:00 Y:66 P:67 SP:FB PPU:121,202
E3B7  18        CLC                             A:44 X:00 Y:66 P:67 SP:FB PPU:121,208
E3B8  B8        CLV                             A:44 X:00 Y:66 P:66 SP:FB PPU:121,214
E3B9  A9 99     LDA #$99                        A:44 X:00 Y:66 P:26 SP:FB PPU:121,220
E3BB  A2 80     LDX #$80                        A:99 X:00 Y:66 P:A4 SP:FB PPU:121,226
E3BD  9D 85 05  STA $0585,X @ 0605 = 00         A:99 X:80 Y:66 P:A4 SP:FB PPU:121,232
E3C0  AD 05 06  LDA $0605 = 99                  A:99 X:80 Y:66 P:A4 SP:FB PPU:121,247
E3C3  B0 06     BCS $E3CB                       A:99 X:80 Y:66 P:A4 SP:FB PPU:121,259
E3C5  C9 99     CMP #$99                        A:99 X:80 Y:66 P:A4 SP:FB PPU:121,265
E3C7  D0 02     BNE $E3CB                       A:99 X:80 Y:66 P:27 SP:FB PPU:121,271
E3C9  50 04     BVC $E3CF                       A:99 X:80 Y:66 P:27 SP:FB PPU:121,277
E3CF  A0 6D     LDY #$6D                        A:99 X:80 Y:66 P:27 SP:FB PPU:121,286
E3D1  A2 6D     LDX #$6D                        A:99 X:80 Y:6D P:25 SP:FB PPU:121,292
E3D3  20 90 F9  JSR $F990                       A:99 X:6D Y:6D P:25 SP:FB PPU:121,298
F990  A2 55     LDX #$55                        A:99 X:6D Y:6D P:25 SP:F9 PPU:121,316
F992  A9 FF     LDA #$FF                        A:99 X:55 Y:6D P:25 SP:F9 PPU:121,322
F994  85 01     STA $01 = FF                    A:FF X:55 Y:6D P:A5 SP:F9 PPU:121,328
F996  EA        NOP                             A:FF X:55 Y:6D P:A5 SP:F9 PPU:121,337
F997  24 01     BIT $01 = FF                    A:FF X:55 Y:6D P:A5 SP:F9 PPU:122,  2
F999  38        SEC                             A:FF X:55 Y:6D P:E5 SP:F9 PPU:122, 11
F99A  A9 01     LDA #$01                        A:FF X:55 Y:6D P:E5 SP:F9 PPU:122, 17
F99C  60        RTS                             A:01 X:55 Y:6D P:65 SP:F9 PPU:122, 23
E3D6  9D 00 06  STA $0600,X @ 0655 = 00         A:01 X:55 Y:6D P:65 SP:FB PPU:122, 41
E3D9  5E 00 06  LSR $0600,X @ 0655 = 01         A:01 X:55 Y:6D P:65 SP:FB PPU:122, 56
E3DC  BD 00 06  LDA $0600,X @ 0655 = 00         A:01 X:55 Y:6D P:67 SP:FB PPU:122, 77
E3DF  20 9D F9  JSR $F99D                       A:00 X:55 Y:6D P:67 SP:FB PPU:122, 89
F99D  90 1B     BCC $F9BA                       A:00 X:55 Y:6D P:67 SP:F9 PPU:122,107
F99F  D0 19     BNE $F9BA                       A:00 X:55 Y:6D P:67 SP:F9 PPU:122,113
F9A1  30 17     BMI $F9BA                       A:00 X:55 Y:6D P:67 SP:F9 PPU:122,119
F9A3  50 15     BVC $F9BA                       A:00 X:55 Y:6D P:67 SP:F9 PPU:122,125
F9A5  C9 00     CMP #$00                        A:00 X:55 Y:6D P:67 SP:F9 PPU:122,131
F9A7  D0 11     BNE $F9BA                       A:00 X:55 Y:6D P:67 SP:F9 PPU:122,137
F9A9  B8        CLV                             A:00 X:55 Y:6D P:67 SP:F9 PPU:122,143
F9AA  A9 AA     LDA #$AA                        A:00 X:55 Y:6D P:27 SP:F9 PPU:122,149
F9AC  60        RTS                             A:AA X:55 Y:6D P:A5 SP:F9 PPU:122,155
E3E2  C8        INY                             A:AA X:55 Y:6D P:A5 SP:FB PPU:122,173
E3E3  9D 00 06  STA $0600,X @ 0655 = 00         A:AA X:55 Y:6E P:25 SP:FB PPU:122,179
E3E6  5E 00 06  LSR $0600,X @ 0655 = AA         A:AA X:55 Y:6E P:25 SP:FB PPU:122,194
E3E9  BD 00 06  LDA $0600,X @ 0655 = 55         A:AA X:55 Y:6E P:24 SP:FB PPU:122,215
E3EC  20 AD F9  JSR $F9AD                       A:55 X:55 Y:6E P:24 SP:FB PPU:122,227
F9AD  B0 0B     BCS $F9BA                       A:55 X:55 Y:6E P:24 SP:F9 PPU:122,245
F9AF  F0 09     BEQ $F9BA                       A:55 X:55 Y:6E P:24 SP:F9 PPU:122,251
F9B1  30 07     BMI $F9BA                       A:55 X:55 Y:6E P:24 SP:F9 PPU:122,257
F9B3  70 05     BVS $F9BA                       A:55 X:55 Y:6E P:24 SP:F9 PPU:122,263
F9B5  C9 55     CMP #$55                        A:55 X:55 Y:6E P:24 SP:F9 PPU:122,269
F9B7  D0 01     BNE $F9BA                       A:55 X:55 Y:6E P:27 SP:F9 PPU:122,275
F9B9  60        RTS                             A:55 X:55 Y:6E P:27 SP:F9 PPU:122,281
E3EF  C8        INY                             A:55 X:55 Y:6E P:27 SP:FB PPU:122,299
E3F0  20 BD F9  JSR $F9BD                       A:55 X:55 Y:6F P:25 SP:FB PPU:122,305
F9BD  24 01     BIT $01 = FF                    A:55 X:55 Y:6F P:25 SP:F9 PPU:122,323
F9BF  38        SEC                             A:55 X:55 Y:6F P:E5 SP:F9 PPU:122,332
F9C0  A9 80     LDA #$80                        A:55 X:55 Y:6F P:E5 SP:F9 PPU:122,338
F9C2  60        RTS                             A:80 X:55 Y:6F P:E5 SP:F9 PPU:123,  3
E3F3  9D 00 06  STA $0600,X @ 0655 = 55         A:80 X:55 Y:6F P:E5 SP:FB PPU:123, 21
E3F6  1E 00 06  ASL $0600,X @ 0655 = 80         A:80 X:55 Y:6F P:E5 SP:FB PPU:123, 36
E3F9  BD 00 06  LDA $0600,X @ 0655 = 00         A:80 X:55 Y:6F P:67 SP:FB PPU:123, 57
E3FC  20 C3 F9  JSR $F9C3                       A:00 X:55 Y:6F P:67 SP:FB PPU:123, 69
F9C3  90 1C     BCC $F9E1                       A:00 X:55 Y:6F P:67 SP:F9 PPU:123, 87
F9C5  D0 1A     BNE $F9E1                       A:00 X:55 Y:6F P:67 SP:F9 PPU:123, 93
F9C7  30 18     BMI $F9E1                       A:00 X:55 Y:6F P:67 SP:F9 PPU:123, 99
F9C9  50 16     BVC $F9E1                       A:00 X:55 Y:6F P:67 SP:F9 PPU:123,105
F9CB  C9 00     CMP #$00                        A:00 X:55 Y:6F P:67 SP:F9 PPU:123,111
F9CD  D0 12     BNE $F9E1                       A:00 X:55 Y:6F P:67 SP:F9 PPU:123,117
F9CF  B8        CLV                             A:00 X:55 Y:6F P:67 SP:F9 PPU:123,123
F9D0  A9 55     LDA #$55                        A:00 X:55 Y:6F P:27 SP:F9 PPU:123,129
F9D2  38        SEC                             A:55 X:55 Y:6F P:25 SP:F9 PPU:123,135
F9D3  60        RTS                             A:55 X:55 Y:6F P:25 SP:F9 PPU:123,141
E3FF  C8        INY                             A:55 X:55 Y:6F P:25 SP:FB PPU:123,159
E400  9D 00 06  STA $0600,X @ 0655 = 00         A:55 X:55 Y:70 P:25 SP:FB PPU:123,165
E403  1E 00 06  ASL $0600,X @ 0655 = 55         A:55 X:55 Y:70 P:25 SP:FB PPU:123,180
E406  BD 00 06  LDA $0600,X @ 0655 = AA         A:55 X:55 Y:70 P:A4 SP:FB PPU:123,201
E409  20 D4 F9  JSR $F9D4                       A:AA X:55 Y:70 P:A4 SP:FB PPU:123,213
F9D4  B0 0B     BCS $F9E1                       A:AA X:55 Y:70 P:A4 SP:F9 PPU:123,231
F9D6  F0 09     BEQ $F9E1                       A:AA X:55 Y:70 P:A4 SP:F9 PPU:123,237
F9D8  10 07     BPL $F9E1                       A:AA X:55 Y:70 P:A4 SP:F9 PPU:123,243
F9DA  70 05     BVS $F9E1                       A:AA X:55 Y:70 P:A4 SP:F9 PPU:123,249
F9DC  C9 AA     CMP #$AA                        A:AA X:55 Y:70 P:A4 SP:F9 PPU:123,255
F9DE  D0 01     BNE $F9E1                       A:AA X:55 Y:70 P:27 SP:F9 PPU:123,261
F9E0  60        RTS                             A:AA X:55 Y:70 P:27 SP:F9 PPU:123,267
E40C  C8        INY                             A:AA X:55 Y:70 P:27 SP:FB PPU:123,285
E40D  20 E4 F9  JSR $F9E4                       A:AA X:55 Y:71 P:25 SP:FB PPU:123,291
F9E4  24 01     BIT $01 = FF                    A:AA X:55 Y:71 P:25 SP:F9 PPU:123,309
F9E6  38        SEC                             A:AA X:55 Y:71 P:E5 SP:F9 PPU:123,318
F9E7  A9 01     LDA #$01                        A:AA X:55 Y:71 P:E5 SP:F9 PPU:123,324
F9E9  60        RTS                             A:01 X:55 Y:71 P:65 SP:F9 PPU:123,330
E410  9D 00 06  STA $0600,X @ 0655 = AA         A:01 X:55 Y:71 P:65 SP:FB PPU:124,  7
E413  7E 00 06  ROR $0600,X @ 0655 = 01         A:01 X:55 Y:71 P:65 SP:FB PPU:124, 22
E416  BD 00 06  LDA $0600,X @ 0655 = 80         A:01 X:55 Y:71 P:E5 SP:FB PPU:124, 43
E419  20 EA F9  JSR $F9EA                       A:80 X:55 Y:71 P:E5 SP:FB PPU:124, 55
F9EA  90 1C     BCC $FA08                       A:80 X:55 Y:71 P:E5 SP:F9 PPU:124, 73
F9EC  F0 1A     BEQ $FA08                       A:80 X:55 Y:71 P:E5 SP:F9 PPU:124, 79
F9EE  10 18     BPL $FA08                       A:80 X:55 Y:71 P:E5 SP:F9 PPU:124, 85
F9F0  50 16     BVC $FA08                       A:80 X:55 Y:71 P:E5 SP:F9 PPU:124, 91
F9F2  C9 80     CMP #$80                        A:80 X:55 Y:71 P:E5 SP:F9 PPU:124, 97
F9F4  D0 12     BNE $FA08                       A:80 X:55 Y:71 P:67 SP:F9 PPU:124,103
F9F6  B8        CLV                             A:80 X:55 Y:71 P:67 SP:F9 PPU:124,109
F9F7  18        CLC                             A:80 X:55 Y:71 P:27 SP:F9 PPU:124,115
F9F8  A9 55     LDA #$55                        A:80 X:55 Y:71 P:26 SP:F9 PPU:124,121
F9FA  60        RTS                             A:55 X:55 Y:71 P:24 SP:F9 PPU:124,127
E41C  C8        INY                             A:55 X:55 Y:71 P:24 SP:FB PPU:124,145
E41D  9D 00 06  STA $0600,X @ 0655 = 80         A:55 X:55 Y:72 P:24 SP:FB PPU:124,151
E420  7E 00 06  ROR $0600,X @ 0655 = 55         A:55 X:55 Y:72 P:24 SP:FB PPU:124,166
E423  BD 00 06  LDA $0600,X @ 0655 = 2A         A:55 X:55 Y:72 P:25 SP:FB PPU:124,187
E426  20 FB F9  JSR $F9FB                       A:2A X:55 Y:72 P:25 SP:FB PPU:124,199
F9FB  90 0B     BCC $FA08                       A:2A X:55 Y:72 P:25 SP:F9 PPU:124,217
F9FD  F0 09     BEQ $FA08                       A:2A X:55 Y:72 P:25 SP:F9 PPU:124,223
F9FF  30 07     BMI $FA08                       A:2A X:55 Y:72 P:25 SP:F9 PPU:124,229
FA01  70 05     BVS $FA08                       A:2A X:55 Y:72 P:25 SP:F9 PPU:124,235
FA03  C9 2A     CMP #$2A                        A:2A X:55 Y:72 P:25 SP:F9 PPU:124,241
FA05  D0 01     BNE $FA08                       A:2A X:55 Y:72 P:27 SP:F9 PPU:124,247
FA07  60        RTS                             A:2A X:55 Y:72 P:27 SP:F9 PPU:124,253
E429  C8        INY                             A:2A X:55 Y:72 P:27 SP:FB PPU:124,271
E42A  20 0A FA  JSR $FA0A                       A:2A X:55 Y:73 P:25 SP:FB PPU:124,277
FA0A  24 01     BIT $01 = FF                    A:2A X:55 Y:73 P:25 SP:F9 PPU:124,295
FA0C  38        SEC                             A:2A X:55 Y:73 P:E5 SP:F9 PPU:124,304
FA0D  A9 80     LDA #$80                        A:2A X:55 Y:73 P:E5 SP:F9 PPU:124,310
FA0F  60        RTS                             A:80 X:55 Y:73 P:E5 SP:F9 PPU:124,316
E42D  9D 00 06  STA $0600,X @ 0655 = 2A         A:80 X:55 Y:73 P:E5 SP:FB PPU:124,334
E430  3E 00 06  ROL $0600,X @ 0655 = 80         A:80 X:55 Y:73 P:E5 SP:FB PPU:125,  8
E433  BD 00 06  LDA $0600,X @ 0655 = 01         A:80 X:55 Y:73 P:65 SP:FB PPU:125, 29
E436  20 10 FA  JSR $FA10                       A:01 X:55 Y:73 P:65 SP:FB PPU:125, 41
FA10  90 1C     BCC $FA2E                       A:01 X:55 Y:73 P:65 SP:F9 PPU:125, 59
FA12  F0 1A     BEQ $FA2E                       A:01 X:55 Y:73 P:65 SP:F9 PPU:125, 65
FA14  30 18     BMI $FA2E                       A:01 X:55 Y:73 P:65 SP:F9 PPU:125, 71
FA16  50 16     BVC $FA2E                       A:01 X:55 Y:73 P:65 SP:F9 PPU:125, 77
FA18  C9 01     CMP #$01                        A:01 X:55 Y:73 P:65 SP:F9 PPU:125, 83
FA1A  D0 12     BNE $FA2E                       A:01 X:55 Y:73 P:67 SP:F9 PPU:125, 89
FA1C  B8        CLV                             A:01 X:55 Y:73 P:67 SP:F9 PPU:125, 95
FA1D  18        CLC                             A:01 X:55 Y:73 P:27 SP:F9 PPU:125,101
FA1E  A9 55     LDA #$55                        A:01 X:55 Y:73 P:26 SP:F9 PPU:125,107
FA20  60        RTS                             A:55 X:55 Y:73 P:24 SP:F9 PPU:125,113
E439  C8        INY                             A:55 X:55 Y:73 P:24 SP:FB PPU:125,131
E43A  9D 00 06  STA $0600,X @ 0655 = 01         A:55 X:55 Y:74 P:24 SP:FB PPU:125,137
E43D  3E 00 06  ROL $0600,X @ 0655 = 55         A:55 X:55 Y:74 P:24 SP:FB PPU:125,152
E440  BD 00 06  LDA $0600,X @ 0655 = AA         A:55 X:55 Y:74 P:A4 SP:FB PPU:125,173
E443  20 21 FA  JSR $FA21                       A:AA X:55 Y:74 P:A4 SP:FB PPU:125,185
FA21  B0 0B     BCS $FA2E                       A:AA X:55 Y:74 P:A4 SP:F9 PPU:125,203
FA23  F0 09     BEQ $FA2E                       A:AA X:55 Y:74 P:A4 SP:F9 PPU:125,209
FA25  10 07     BPL $FA2E                       A:AA X:55 Y:74 P:A4 SP:F9 PPU:125,215
FA27  70 05     BVS $FA2E                       A:AA X:55 Y:74 P:A4 SP:F9 PPU:125,221
FA29  C9 AA     CMP #$AA                        A:AA X:55 Y:74 P:A4 SP:F9 PPU:125,227
FA2B  D0 01     BNE $FA2E                       A:AA X:55 Y:74 P:27 SP:F9 PPU:125,233
FA2D  60        RTS                             A:AA X:55 Y:74 P:27 SP:F9 PPU:125,239
E446  A9 FF     LDA #$FF                        A:AA X:55 Y:74 P:27 SP:FB PPU:125,257
E448  9D 00 06  STA $0600,X @ 0655 = AA         A:FF X:55 Y:74 P:A5 SP:FB PPU:125,263
E44B  85 01     STA $01 = FF                    A:FF X:55 Y:74 P:A5 SP:FB PPU:125,278
E44D  24 01     BIT $01 = FF                    A:FF X:55 Y:74 P:A5 SP:FB PPU:125,287
E44F  38        SEC                             A:FF X:55 Y:74 P:E5 SP:FB PPU:125,296
E450  FE 00 06  INC $0600,X @ 0655 = FF         A:FF X:55 Y:74 P:E5 SP:FB PPU:125,302
E453  D0 0D     BNE $E462                       A:FF X:55 Y:74 P:67 SP:FB PPU:125,323
E455  30 0B     BMI $E462                       A:FF X:55 Y:74 P:67 SP:FB PPU:125,329
E457  50 09     BVC $E462                       A:FF X:55 Y:74 P:67 SP:FB PPU:125,335
E459  90 07     BCC $E462                       A:FF X:55 Y:74 P:67 SP:FB PPU:126,  0
E45B  BD 00 06  LDA $0600,X @ 0655 = 00         A:FF X:55 Y:74 P:67 SP:FB PPU:126,  6
E45E  C9 00     CMP #$00                        A:00 X:55 Y:74 P:67 SP:FB PPU:126, 18
E460  F0 04     BEQ $E466                       A:00 X:55 Y:74 P:67 SP:FB PPU:126, 24
E466  A9 7F     LDA #$7F                        A:00 X:55 Y:74 P:67 SP:FB PPU:126, 33
E468  9D 00 06  STA $0600,X @ 0655 = 00         A:7F X:55 Y:74 P:65 SP:FB PPU:126, 39
E46B  B8        CLV                             A:7F X:55 Y:74 P:65 SP:FB PPU:126, 54
E46C  18        CLC                             A:7F X:55 Y:74 P:25 SP:FB PPU:126, 60
E46D  FE 00 06  INC $0600,X @ 0655 = 7F         A:7F X:55 Y:74 P:24 SP:FB PPU:126, 66
E470  F0 0D     BEQ $E47F                       A:7F X:55 Y:74 P:A4 SP:FB PPU:126, 87
E472  10 0B     BPL $E47F                       A:7F X:55 Y:74 P:A4 SP:FB PPU:126, 93
E474  70 09     BVS $E47F                       A:7F X:55 Y:74 P:A4 SP:FB PPU:126, 99
E476  B0 07     BCS $E47F                       A:7F X:55 Y:74 P:A4 SP:FB PPU:126,105
E478  BD 00 06  LDA $0600,X @ 0655 = 80         A:7F X:55 Y:74 P:A4 SP:FB PPU:126,111
E47B  C9 80     CMP #$80                        A:80 X:55 Y:74 P:A4 SP:FB PPU:126,123
E47D  F0 04     BEQ $E483                       A:80 X:55 Y:74 P:27 SP:FB PPU:126,129
E483  A9 00     LDA #$00                        A:80 X:55 Y:74 P:27 SP:FB PPU:126,138
E485  9D 00 06  STA $0600,X @ 0655 = 80         A:00 X:55 Y:74 P:27 SP:FB PPU:126,144
E488  24 01     BIT $01 = FF                    A:00 X:55 Y:74 P:27 SP:FB PPU:126,159
E48A  38        SEC                             A:00 X:55 Y:74 P:E7 SP:FB PPU:126,168
E48B  DE 00 06  DEC $0600,X @ 0655 = 00         A:00 X:55 Y:74 P:E7 SP:FB PPU:126,174
E48E  F0 0D     BEQ $E49D                       A:00 X:55 Y:74 P:E5 SP:FB PPU:126,195
E490  10 0B     BPL $E49D                       A:00 X:55 Y:74 P:E5 SP:FB PPU:126,201
E492  50 09     BVC $E49D                       A:00 X:55 Y:74 P:E5 SP:FB PPU:126,207
E494  90 07     BCC $E49D                       A:00 X:55 Y:74 P:E5 SP:FB PPU:126,213
E496  BD 00 06  LDA $0600,X @ 0655 = FF         A:00 X:55 Y:74 P:E5 SP:FB PPU:126,219
E499  C9 FF     CMP #$FF                        A:FF X:55 Y:74 P:E5 SP:FB PPU:126,231
E49B  F0 04     BEQ $E4A1                       A:FF X:55 Y:74 P:67 SP:FB PPU:126,237
E4A1  A9 80     LDA #$80                        A:FF X:55 Y:74 P:67 SP:FB PPU:126,246
E4A3  9D 00 06  STA $0600,X @ 0655 = FF         A:80 X:55 Y:74 P:E5 SP:FB PPU:126,252
E4A6  B8        CLV                             A:80 X:55 Y:74 P:E5 SP:FB PPU:126,267
E4A7  18        CLC                             A:80 X:55 Y:74 P:A5 SP:FB PPU:126,273
E4A8  DE 00 06  DEC $0600,X @ 0655 = 80         A:80 X:55 Y:74 P:A4 SP:FB PPU:126,279
E4AB  F0 0D     BEQ $E4BA                       A:80 X:55 Y:74 P:24 SP:FB PPU:126,300
E4AD  30 0B     BMI $E4BA                       A:80 X:55 Y:74 P:24 SP:FB PPU:126,306
E4AF  70 09     BVS $E4BA                       A:80 X:55 Y:74 P:24 SP:FB PPU:126,312
E4B1  B0 07     BCS $E4BA                       A:80 X:55 Y:74 P:24 SP:FB PPU:126,318
E4B3  BD 00 06  LDA $0600,X @ 0655 = 7F         A:80 X:55 Y:74 P:24 SP:FB PPU:126,324
E4B6  C9 7F     CMP #$7F                        A:7F X:55 Y:74 P:24 SP:FB PPU:126,336
E4B8  F0 04     BEQ $E4BE                       A:7F X:55 Y:74 P:27 SP:FB PPU:127,  1
E4BE  A9 01     LDA #$01                        A:7F X:55 Y:74 P:27 SP:FB PPU:127, 10
E4C0  9D 00 06  STA $0600,X @ 0655 = 7F         A:01 X:55 Y:74 P:25 SP:FB PPU:127, 16
E4C3  DE 00 06  DEC $0600,X @ 0655 = 01         A:01 X:55 Y:74 P:25 SP:FB PPU:127, 31
E4C6  F0 04     BEQ $E4CC                       A:01 X:55 Y:74 P:27 SP:FB PPU:127, 52
E4CC  A9 33     LDA #$33                        A:01 X:55 Y:74 P:27 SP:FB PPU:127, 61
E4CE  8D 78 06  STA $0678 = 7F                  A:33 X:55 Y:74 P:25 SP:FB PPU:127, 67
E4D1  A9 44     LDA #$44                        A:33 X:55 Y:74 P:25 SP:FB PPU:127, 79
E4D3  A0 78     LDY #$78                        A:44 X:55 Y:74 P:25 SP:FB PPU:127, 85
E4D5  A2 00     LDX #$00                        A:44 X:55 Y:78 P:25 SP:FB PPU:127, 91
E4D7  38        SEC                             A:44 X:00 Y:78 P:27 SP:FB PPU:127, 97
E4D8  24 01     BIT $01 = FF                    A:44 X:00 Y:78 P:27 SP:FB PPU:127,103
E4DA  BE 00 06  LDX $0600,Y @ 0678 = 33         A:44 X:00 Y:78 P:E5 SP:FB PPU:127,112
E4DD  90 12     BCC $E4F1                       A:44 X:33 Y:78 P:65 SP:FB PPU:127,124
E4DF  50 10     BVC $E4F1                       A:44 X:33 Y:78 P:65 SP:FB PPU:127,130
E4E1  30 0E     BMI $E4F1                       A:44 X:33 Y:78 P:65 SP:FB PPU:127,136
E4E3  F0 0C     BEQ $E4F1                       A:44 X:33 Y:78 P:65 SP:FB PPU:127,142
E4E5  E0 33     CPX #$33                        A:44 X:33 Y:78 P:65 SP:FB PPU:127,148
E4E7  D0 08     BNE $E4F1                       A:44 X:33 Y:78 P:67 SP:FB PPU:127,154
E4E9  C0 78     CPY #$78                        A:44 X:33 Y:78 P:67 SP:FB PPU:127,160
E4EB  D0 04     BNE $E4F1                       A:44 X:33 Y:78 P:67 SP:FB PPU:127,166
E4ED  C9 44     CMP #$44                        A:44 X:33 Y:78 P:67 SP:FB PPU:127,172
E4EF  F0 04     BEQ $E4F5                       A:44 X:33 Y:78 P:67 SP:FB PPU:127,178
E4F5  A9 97     LDA #$97                        A:44 X:33 Y:78 P:67 SP:FB PPU:127,187
E4F7  8D 7F 06  STA $067F = 00                  A:97 X:33 Y:78 P:E5 SP:FB PPU:127,193
E4FA  A9 47     LDA #$47                        A:97 X:33 Y:78 P:E5 SP:FB PPU:127,205
E4FC  A0 FF     LDY #$FF                        A:47 X:33 Y:78 P:65 SP:FB PPU:127,211
E4FE  A2 00     LDX #$00                        A:47 X:33 Y:FF P:E5 SP:FB PPU:127,217
E500  18        CLC                             A:47 X:00 Y:FF P:67 SP:FB PPU:127,223
E501  B8        CLV                             A:47 X:00 Y:FF P:66 SP:FB PPU:127,229
E502  BE 80 05  LDX $0580,Y @ 067F = 97         A:47 X:00 Y:FF P:26 SP:FB PPU:127,235
E505  B0 12     BCS $E519                       A:47 X:97 Y:FF P:A4 SP:FB PPU:127,250
E507  70 10     BVS $E519                       A:47 X:97 Y:FF P:A4 SP:FB PPU:127,256
E509  10 0E     BPL $E519                       A:47 X:97 Y:FF P:A4 SP:FB PPU:127,262
E50B  F0 0C     BEQ $E519                       A:47 X:97 Y:FF P:A4 SP:FB PPU:127,268
E50D  E0 97     CPX #$97                        A:47 X:97 Y:FF P:A4 SP:FB PPU:127,274
E50F  D0 08     BNE $E519                       A:47 X:97 Y:FF P:27 SP:FB PPU:127,280
E511  C0 FF     CPY #$FF                        A:47 X:97 Y:FF P:27 SP:FB PPU:127,286
E513  D0 04     BNE $E519                       A:47 X:97 Y:FF P:27 SP:FB PPU:127,292
E515  C9 47     CMP #$47                        A:47 X:97 Y:FF P:27 SP:FB PPU:127,298
E517  F0 04     BEQ $E51D                       A:47 X:97 Y:FF P:27 SP:FB PPU:127,304
E51D  60        RTS                             A:47 X:97 Y:FF P:27 SP:FB PPU:127,313
C62F  20 A3 C6  JSR $C6A3                       A:47 X:97 Y:FF P:27 SP:FD PPU:127,331
C6A3  A0 4E     LDY #$4E                        A:47 X:97 Y:FF P:27 SP:FB PPU:128,  8
C6A5  A9 FF     LDA #$FF                        A:47 X:97 Y:4E P:25 SP:FB PPU:128, 14
C6A7  85 01     STA $01 = FF                    A:FF X:97 Y:4E P:A5 SP:FB PPU:128, 20
C6A9  20 B0 C6  JSR $C6B0                       A:FF X:97 Y:4E P:A5 SP:FB PPU:128, 29
C6B0  A9 FF     LDA #$FF                        A:FF X:97 Y:4E P:A5 SP:F9 PPU:128, 47
C6B2  48        PHA                             A:FF X:97 Y:4E P:A5 SP:F9 PPU:128, 53
C6B3  A9 AA     LDA #$AA                        A:FF X:97 Y:4E P:A5 SP:F8 PPU:128, 62
C6B5  D0 05     BNE $C6BC                       A:AA X:97 Y:4E P:A5 SP:F8 PPU:128, 68
C6BC  28        PLP                             A:AA X:97 Y:4E P:A5 SP:F8 PPU:128, 77
C6BD  04 A9    *NOP $A9 = 00                    A:AA X:97 Y:4E P:EF SP:F9 PPU:128, 89
C6BF  44 A9    *NOP $A9 = 00                    A:AA X:97 Y:4E P:EF SP:F9 PPU:128, 98
C6C1  64 A9    *NOP $A9 = 00                    A:AA X:97 Y:4E P:EF SP:F9 PPU:128,107
C6C3  EA        NOP                             A:AA X:97 Y:4E P:EF SP:F9 PPU:128,116
C6C4  EA        NOP                             A:AA X:97 Y:4E P:EF SP:F9 PPU:128,122
C6C5  EA        NOP                             A:AA X:97 Y:4E P:EF SP:F9 PPU:128,128
C6C6  EA        NOP                             A:AA X:97 Y:4E P:EF SP:F9 PPU:128,134
C6C7  08        PHP                             A:AA X:97 Y:4E P:EF SP:F9 PPU:128,140
C6C8  48        PHA                             A:AA X:97 Y:4E P:EF SP:F8 PPU:128,149
C6C9  0C A9 A9 *NOP $A9A9 = A9                  A:AA X:97 Y:4E P:EF SP:F7 PPU:128,158
C6CC  EA        NOP                             A:AA X:97 Y:4E P:EF SP:F7 PPU:128,170
C6CD  EA        NOP                             A:AA X:97 Y:4E P:EF SP:F7 PPU:128,176
C6CE  EA        NOP                             A:AA X:97 Y:4E P:EF SP:F7 PPU:128,182
C6CF  EA        NOP                             A:AA X:97 Y:4E P:EF SP:F7 PPU:128,188
C6D0  08        PHP                             A:AA X:97 Y:4E P:EF SP:F7 PPU:128,194
C6D1  48        PHA                             A:AA X:97 Y:4E P:EF SP:F6 PPU:128,203
C6D2  14 A9    *NOP $A9,X @ 40 = 00             A:AA X:97 Y:4E P:EF SP:F5 PPU:128,212
C6D4  34 A9    *NOP $A9,X @ 40 = 00             A:AA X:97 Y:4E P:EF SP:F5 PPU:128,224
C6D6  54 A9    *NOP $A9,X @ 40 = 00             A:AA X:97 Y:4E P:EF SP:F5 PPU:128,236
C6D8  74 A9    *NOP $A9,X @ 40 = 00             A:AA X:97 Y:4E P:EF SP:F5 PPU:128,248
C6DA  D4 A9    *NOP $A9,X @ 40 = 00             A:AA X:97 Y:4E P:EF SP:F5 PPU:128,260
C6DC  F4 A9    *NOP $A9,X @ 40 = 00             A:AA X:97 Y:4E P:EF SP:F5 PPU:128,272
C6DE  EA        NOP                             A:AA X:97 Y:4E P:EF SP:F5 PPU:128,284
C6DF  EA        NOP                             A:AA X:97 Y:4E P:EF SP:F5 PPU:128,290
C6E0  EA        NOP                             A:AA X:97 Y:4E P:EF SP:F5 PPU:128,296
C6E1  EA        NOP                             A:AA X:97 Y:4E P:EF SP:F5 PPU:128,302
C6E2  08        PHP                             A:AA X:97 Y:4E P:EF SP:F5 PPU:128,308
C6E3  48        PHA                             A:AA X:97 Y:4E P:EF SP:F4 PPU:128,317
C6E4  1A       *NOP                             A:AA X:97 Y:4E P:EF SP:F3 PPU:128,326
C6E5  3A       *NOP                             A:AA X:97 Y:4E P:EF SP:F3 PPU:128,332
C6E6  5A       *NOP                             A:AA X:97 Y:4E P:EF SP:F3 PPU:128,338
C6E7  7A       *NOP                             A:AA X:97 Y:4E P:EF SP:F3 PPU:129,  3
C6E8  DA       *NOP                             A:AA X:97 Y:4E P:EF SP:F3 PPU:129,  9
C6E9  FA       *NOP                             A:AA X:97 Y:4E P:EF SP:F3 PPU:129, 15
C6EA  80 89    *NOP #$89                        A:AA X:97 Y:4E P:EF SP:F3 PPU:129, 21
C6EC  EA        NOP                             A:AA X:97 Y:4E P:EF SP:F3 PPU:129, 27
C6ED  EA        NOP                             A:AA X:97 Y:4E P:EF SP:F3 PPU:129, 33
C6EE  EA        NOP                             A:AA X:97 Y:4E P:EF SP:F3 PPU:129, 39
C6EF  EA        NOP                             A:AA X:97 Y:4E P:EF SP:F3 PPU:129, 45
C6F0  08        PHP                             A:AA X:97 Y:4E P:EF SP:F3 PPU:129, 51
C6F1  48        PHA                             A:AA X:97 Y:4E P:EF SP:F2 PPU:129, 60
C6F2  1C A9 A9 *NOP $A9A9,X @ AA40 = 00         A:AA X:97 Y:4E P:EF SP:F1 PPU:129, 69
C6F5  3C A9 A9 *NOP $A9A9,X @ AA40 = 00         A:AA X:97 Y:4E P:EF SP:F1 PPU:129, 84
C6F8  5C A9 A9 *NOP $A9A9,X @ AA40 = 00         A:AA X:97 Y:4E P:EF SP:F1 PPU:129, 99
C6FB  7C A9 A9 *NOP $A9A9,X @ AA40 = 00         A:AA X:97 Y:4E P:EF SP:F1 PPU:129,114
C6FE  DC A9 A9 *NOP $A9A9,X @ AA40 = 00         A:AA X:97 Y:4E P:EF SP:F1 PPU:129,129
C701  FC A9 A9 *NOP $A9A9,X @ AA40 = 00         A:AA X:97 Y:4E P:EF SP:F1 PPU:129,144
C704  EA        NOP                             A:AA X:97 Y:4E P:EF SP:F1 PPU:129,159
C705  EA        NOP                             A:AA X:97 Y:4E P:EF SP:F1 PPU:129,165
C706  EA        NOP                             A:AA X:97 Y:4E P:EF SP:F1 PPU:129,171
C707  EA        NOP                             A:AA X:97 Y:4E P:EF SP:F1 PPU:129,177
C708  08        PHP                             A:AA X:97 Y:4E P:EF SP:F1 PPU:129,183
C709  48        PHA                             A:AA X:97 Y:4E P:EF SP:F0 PPU:129,192
C70A  A2 05     LDX #$05                        A:AA X:97 Y:4E P:EF SP:EF PPU:129,201
C70C  68        PLA                             A:AA X:05 Y:4E P:6D SP:EF PPU:129,207
C70D  C9 55     CMP #$55                        A:AA X:05 Y:4E P:ED SP:F0 PPU:129,219
C70F  F0 0A     BEQ $C71B                       A:AA X:05 Y:4E P:6D SP:F0 PPU:129,225
C711  C9 AA     CMP #$AA                        A:AA X:05 Y:4E P:6D SP:F0 PPU:129,231
C713  F0 06     BEQ $C71B                       A:AA X:05 Y:4E P:6F SP:F0 PPU:129,237
C71B  68        PLA                             A:AA X:05 Y:4E P:6F SP:F0 PPU:129,246
C71C  29 CB     AND #$CB                        A:FF X:05 Y:4E P:ED SP:F1 PPU:129,258
C71E  C9 00     CMP #$00                        A:CB X:05 Y:4E P:ED SP:F1 PPU:129,264
C720  F0 06     BEQ $C728                       A:CB X:05 Y:4E P:ED SP:F1 PPU:129,270
C722  C9 CB     CMP #$CB                        A:CB X:05 Y:4E P:ED SP:F1 PPU:129,276
C724  F0 02     BEQ $C728                       A:CB X:05 Y:4E P:6F SP:F1 PPU:129,282
C728  C8        INY                             A:CB X:05 Y:4E P:6F SP:F1 PPU:129,291
C729  CA        DEX                             A:CB X:05 Y:4F P:6D SP:F1 PPU:129,297
C72A  D0 E0     BNE $C70C                       A:CB X:04 Y:4F P:6D SP:F1 PPU:129,303
C70C  68        PLA                             A:CB X:04 Y:4F P:6D SP:F1 PPU:129,312
C70D  C9 55     CMP #$55                        A:AA X:04 Y:4F P:ED SP:F2 PPU:129,324
C70F  F0 0A     BEQ $C71B                       A:AA X:04 Y:4F P:6D SP:F2 PPU:129,330
C711  C9 AA     CMP #$AA                        A:AA X:04 Y:4F P:6D SP:F2 PPU:129,336
C713  F0 06     BEQ $C71B                       A:AA X:04 Y:4F P:6F SP:F2 PPU:130,  1
C71B  68        PLA                             A:AA X:04 Y:4F P:6F SP:F2 PPU:130, 10
C71C  29 CB     AND #$CB                        A:FF X:04 Y:4F P:ED SP:F3 PPU:130, 22
C71E  C9 00     CMP #$00                        A:CB X:04 Y:4F P:ED SP:F3 PPU:130, 28
C720  F0 06     BEQ $C728                       A:CB X:04 Y:4F P:ED SP:F3 PPU:130, 34
C722  C9 CB     CMP #$CB                        A:CB X:04 Y:4F P:ED SP:F3 PPU:130, 40
C724  F0 02     BEQ $C728                       A:CB X:04 Y:4F P:6F SP:F3 PPU:130, 46
C728  C8        INY                             A:CB X:04 Y:4F P:6F SP:F3 PPU:130, 55
C729  CA        DEX                             A:CB X:04 Y:50 P:6D SP:F3 PPU:130, 61
C72A  D0 E0     BNE $C70C                       A:CB X:03 Y:50 P:6D SP:F3 PPU:130, 67
C70C  68        PLA                             A:CB X:03 Y:50 P:6D SP:F3 PPU:130, 76
C70D  C9 55     CMP #$55                        A:AA X:03 Y:50 P:ED SP:F4 PPU:130, 88
C70F  F0 0A     BEQ $C71B                       A:AA X:03 Y:50 P:6D SP:F4 PPU:130, 94
C711  C9 AA     CMP #$AA                        A:AA X:03 Y:50 P:6D SP:F4 PPU:130,100
C713  F0 06     BEQ $C71B                       A:AA X:03 Y:50 P:6F SP:F4 PPU:130,106
C71B  68        PLA                             A:AA X:03 Y:50 P:6F SP:F4 PPU:130,115
C71C  29 CB     AND #$CB                        A:FF X:03 Y:50 P:ED SP:F5 PPU:130,127
C71E  C9 00     CMP #$00                        A:CB X:03 Y:50 P:ED SP:F5 PPU:130,133
C720  F0 06     BEQ $C728                       A:CB X:03 Y:50 P:ED SP:F5 PPU:130,139
C722  C9 CB     CMP #$CB                        A:CB X:03 Y:50 P:ED SP:F5 PPU:130,145
C724  F0 02     BEQ $C728                       A:CB X:03 Y:50 P:6F SP:F5 PPU:130,151
C728  C8        INY                             A:CB X:03 Y:50 P:6F SP:F5 PPU:130,160
C729  CA        DEX                             A:CB X:03 Y:51 P:6D SP:F5 PPU:130,166
C72A  D0 E0     BNE $C70C                       A:CB X:02 Y:51 P:6D SP:F5 PPU:130,172
C70C  68        PLA                             A:CB X:02 Y:51 P:6D SP:F5 PPU:130,181
C70D  C9 55     CMP #$55                        A:AA X:02 Y:51 P:ED SP:F6 PPU:130,193
C70F  F0 0A     BEQ $C71B                       A:AA X:02 Y:51 P:6D SP:F6 PPU:130,199
C711  C9 AA     CMP #$AA                        A:AA X:02 Y:51 P:6D SP:F6 PPU:130,205
C713  F0 06     BEQ $C71B                       A:AA X:02 Y:51 P:6F SP:F6 PPU:130,211
C71B  68        PLA                             A:AA X:02 Y:51 P:6F SP:F6 PPU:130,220
C71C  29 CB     AND #$CB                        A:FF X:02 Y:51 P:ED SP:F7 PPU:130,232
C71E  C9 00     CMP #$00                        A:CB X:02 Y:51 P:ED SP:F7 PPU:130,238
C720  F0 06     BEQ $C728                       A:CB X:02 Y:51 P:ED SP:F7 PPU:130,244
C722  C9 CB     CMP #$CB                        A:CB X:02 Y:51 P:ED SP:F7 PPU:130,250
C724  F0 02     BEQ $C728                       A:CB X:02 Y:51 P:6F SP:F7 PPU:130,256
C728  C8        INY                             A:CB X:02 Y:51 P:6F SP:F7 PPU:130,265
C729  CA        DEX                             A:CB X:02 Y:52 P:6D SP:F7 PPU:130,271
C72A  D0 E0     BNE $C70C                       A:CB X:01 Y:52 P:6D SP:F7 PPU:130,277
C70C  68        PLA                             A:CB X:01 Y:52 P:6D SP:F7 PPU:130,286
C70D  C9 55     CMP #$55                        A:AA X:01 Y:52 P:ED SP:F8 PPU:130,298
C70F  F0 0A     BEQ $C71B                       A:AA X:01 Y:52 P:6D SP:F8 PPU:130,304
C711  C9 AA     CMP #$AA                        A:AA X:01 Y:52 P:6D SP:F8 PPU:130,310
C713  F0 06     BEQ $C71B                       A:AA X:01 Y:52 P:6F SP:F8 PPU:130,316
C71B  68        PLA                             A:AA X:01 Y:52 P:6F SP:F8 PPU:130,325
C71C  29 CB     AND #$CB                        A:FF X:01 Y:52 P:ED SP:F9 PPU:130,337
C71E  C9 00     CMP #$00                        A:CB X:01 Y:52 P:ED SP:F9 PPU:131,  2
C720  F0 06     BEQ $C728                       A:CB X:01 Y:52 P:ED SP:F9 PPU:131,  8
C722  C9 CB     CMP #$CB                        A:CB X:01 Y:52 P:ED SP:F9 PPU:131, 14
C724  F0 02     BEQ $C728                       A:CB X:01 Y:52 P:6F SP:F9 PPU:131, 20
C728  C8        INY                             A:CB X:01 Y:52 P:6F SP:F9 PPU:131, 29
C729  CA        DEX                             A:CB X:01 Y:53 P:6D SP:F9 PPU:131, 35
C72A  D0 E0     BNE $C70C                       A:CB X:00 Y:53 P:6F SP:F9 PPU:131, 41
C72C  60        RTS                             A:CB X:00 Y:53 P:6F SP:F9 PPU:131, 47
C6AC  20 B7 C6  JSR $C6B7                       A:CB X:00 Y:53 P:6F SP:FB PPU:131, 65
C6B7  A9 34     LDA #$34                        A:CB X:00 Y:53 P:6F SP:F9 PPU:131, 83
C6B9  48        PHA                             A:34 X:00 Y:53 P:6D SP:F9 PPU:131, 89
C6BA  A9 55     LDA #$55                        A:34 X:00 Y:53 P:6D SP:F8 PPU:131, 98
C6BC  28        PLP                             A:55 X:00 Y:53 P:6D SP:F8 PPU:131,104
C6BD  04 A9    *NOP $A9 = 00                    A:55 X:00 Y:53 P:24 SP:F9 PPU:131,116
C6BF  44 A9    *NOP $A9 = 00                    A:55 X:00 Y:53 P:24 SP:F9 PPU:131,125
C6C1  64 A9    *NOP $A9 = 00                    A:55 X:00 Y:53 P:24 SP:F9 PPU:131,134
C6C3  EA        NOP                             A:55 X:00 Y:53 P:24 SP:F9 PPU:131,143
C6C4  EA        NOP                             A:55 X:00 Y:53 P:24 SP:F9 PPU:131,149
C6C5  EA        NOP                             A:55 X:00 Y:53 P:24 SP:F9 PPU:131,155
C6C6  EA        NOP                             A:55 X:00 Y:53 P:24 SP:F9 PPU:131,161
C6C7  08        PHP                             A:55 X:00 Y:53 P:24 SP:F9 PPU:131,167
C6C8  48        PHA                             A:55 X:00 Y:53 P:24 SP:F8 PPU:131,176
C6C9  0C A9 A9 *NOP $A9A9 = A9                  A:55 X:00 Y:53 P:24 SP:F7 PPU:131,185
C6CC  EA        NOP                             A:55 X:00 Y:53 P:24 SP:F7 PPU:131,197
C6CD  EA        NOP                             A:55 X:00 Y:53 P:24 SP:F7 PPU:131,203
C6CE  EA        NOP                             A:55 X:00 Y:53 P:24 SP:F7 PPU:131,209
C6CF  EA        NOP                             A:55 X:00 Y:53 P:24 SP:F7 PPU:131,215
C6D0  08        PHP                             A:55 X:00 Y:53 P:24 SP:F7 PPU:131,221
C6D1  48        PHA                             A:55 X:00 Y:53 P:24 SP:F6 PPU:131,230
C6D2  14 A9    *NOP $A9,X @ A9 = 00             A:55 X:00 Y:53 P:24 SP:F5 PPU:131,239
C6D4  34 A9    *NOP $A9,X @ A9 = 00             A:55 X:00 Y:53 P:24 SP:F5 PPU:131,251
C6D6  54 A9    *NOP $A9,X @ A9 = 00             A:55 X:00 Y:53 P:24 SP:F5 PPU:131,263
C6D8  74 A9    *NOP $A9,X @ A9 = 00             A:55 X:00 Y:53 P:24 SP:F5 PPU:131,275
C6DA  D4 A9    *NOP $A9,X @ A9 = 00             A:55 X:00 Y:53 P:24 SP:F5 PPU:131,287
C6DC  F4 A9    *NOP $A9,X @ A9 = 00             A:55 X:00 Y:53 P:24 SP:F5 PPU:131,299
C6DE  EA        NOP                             A:55 X:00 Y:53 P:24 SP:F5 PPU:131,311
C6DF  EA        NOP                             A:55 X:00 Y:53 P:24 SP:F5 PPU:131,317
C6E0  EA        NOP                             A:55 X:00 Y:53 P:24 SP:F5 PPU:131,323
C6E1  EA        NOP                             A:55 X:00 Y:53 P:24 SP:F5 PPU:131,329
C6E2  08        PHP                             A:55 X:00 Y:53 P:24 SP:F5 PPU:131,335
C6E3  48        PHA                             A:55 X:00 Y:53 P:24 SP:F4 PPU:132,  3
C6E4  1A       *NOP                             A:55 X:00 Y:53 P:24 SP:F3 PPU:132, 12
C6E5  3A       *NOP                             A:55 X:00 Y:53 P:24 SP:F3 PPU:132, 18
C6E6  5A       *NOP                             A:55 X:00 Y:53 P:24 SP:F3 PPU:132, 24
C6E7  7A       *NOP                             A:55 X:00 Y:53 P:24 SP:F3 PPU:132, 30
C6E8  DA       *NOP                             A:55 X:00 Y:53 P:24 SP:F3 PPU:132, 36
C6E9  FA       *NOP                             A:55 X:00 Y:53 P:24 SP:F3 PPU:132, 42
C6EA  80 89    *NOP #$89                        A:55 X:00 Y:53 P:24 SP:F3 PPU:132, 48
C6EC  EA        NOP                             A:55 X:00 Y:53 P:24 SP:F3 PPU:132, 54
C6ED  EA        NOP                             A:55 X:00 Y:53 P:24 SP:F3 PPU:132, 60
C6EE  EA        NOP                             A:55 X:00 Y:53 P:24 SP:F3 PPU:132, 66
C6EF  EA        NOP                             A:55 X:00 Y:53 P:24 SP:F3 PPU:132, 72
C6F0  08        PHP                             A:55 X:00 Y:53 P:24 SP:F3 PPU:132, 78
C6F1  48        PHA                             A:55 X:00 Y:53 P:24 SP:F2 PPU:132, 87
C6F2  1C A9 A9 *NOP $A9A9,X @ A9A9 = A9         A:55 X:00 Y:53 P:24 SP:F1 PPU:132, 96
C6F5  3C A9 A9 *NOP $A9A9,X @ A9A9 = A9         A:55 X:00 Y:53 P:24 SP:F1 PPU:132,108
C6F8  5C A9 A9 *NOP $A9A9,X @ A9A9 = A9         A:55 X:00 Y:53 P:24 SP:F1 PPU:132,120
C6FB  7C A9 A9 *NOP $A9A9,X @ A9A9 = A9         A:55 X:00 Y:53 P:24 SP:F1 PPU:132,132
C6FE  DC A9 A9 *NOP $A9A9,X @ A9A9 = A9         A:55 X:00 Y:53 P:24 SP:F1 PPU:132,144
C701  FC A9 A9 *NOP $A9A9,X @ A9A9 = A9         A:55 X:00 Y:53 P:24 SP:F1 PPU:132,156
C704  EA        NOP                             A:55 X:00 Y:53 P:24 SP:F1 PPU:132,168
C705  EA        NOP                             A:55 X:00 Y:53 P:24 SP:F1 PPU:132,174
C706  EA        NOP                             A:55 X:00 Y:53 P:24 SP:F1 PPU:132,180
C707  EA        NOP                             A:55 X:00 Y:53 P:24 SP:F1 PPU:132,186
C708  08        PHP                             A:55 X:00 Y:53 P:24 SP:F1 PPU:132,192
C709  48        PHA                             A:55 X:00 Y:53 P:24 SP:F0 PPU:132,201
C70A  A2 05     LDX #$05                        A:55 X:00 Y:53 P:24 SP:EF PPU:132,210
C70C  68        PLA                             A:55 X:05 Y:53 P:24 SP:EF PPU:132,216
C70D  C9 55     CMP #$55                        A:55 X:05 Y:53 P:24 SP:F0 PPU:132,228
C70F  F0 0A     BEQ $C71B                       A:55 X:05 Y:53 P:27 SP:F0 PPU:132,234
C71B  68        PLA                             A:55 X:05 Y:53 P:27 SP:F0 PPU:132,243
C71C  29 CB     AND #$CB                        A:34 X:05 Y:53 P:25 SP:F1 PPU:132,255
C71E  C9 00     CMP #$00                        A:00 X:05 Y:53 P:27 SP:F1 PPU:132,261
C720  F0 06     BEQ $C728                       A:00 X:05 Y:53 P:27 SP:F1 PPU:132,267
C728  C8        INY                             A:00 X:05 Y:53 P:27 SP:F1 PPU:132,276
C729  CA        DEX                             A:00 X:05 Y:54 P:25 SP:F1 PPU:132,282
C72A  D0 E0     BNE $C70C                       A:00 X:04 Y:54 P:25 SP:F1 PPU:132,288
C70C  68        PLA                             A:00 X:04 Y:54 P:25 SP:F1 PPU:132,297
C70D  C9 55     CMP #$55                        A:55 X:04 Y:54 P:25 SP:F2 PPU:132,309
C70F  F0 0A     BEQ $C71B                       A:55 X:04 Y:54 P:27 SP:F2 PPU:132,315
C71B  68        PLA                             A:55 X:04 Y:54 P:27 SP:F2 PPU:132,324
C71C  29 CB     AND #$CB                        A:34 X:04 Y:54 P:25 SP:F3 PPU:132,336
C71E  C9 00     CMP #$00                        A:00 X:04 Y:54 P:27 SP:F3 PPU:133,  1
C720  F0 06     BEQ $C728                       A:00 X:04 Y:54 P:27 SP:F3 PPU:133,  7
C728  C8        INY                             A:00 X:04 Y:54 P:27 SP:F3 PPU:133, 16
C729  CA        DEX                             A:00 X:04 Y:55 P:25 SP:F3 PPU:133, 22
C72A  D0 E0     BNE $C70C                       A:00 X:03 Y:55 P:25 SP:F3 PPU:133, 28
C70C  68        PLA                             A:00 X:03 Y:55 P:25 SP:F3 PPU:133, 37
C70D  C9 55     CMP #$55                        A:55 X:03 Y:55 P:25 SP:F4 PPU:133, 49
C70F  F0 0A     BEQ $C71B                       A:55 X:03 Y:55 P:27 SP:F4 PPU:133, 55
C71B  68        PLA                             A:55 X:03 Y:55 P:27 SP:F4 PPU:133, 64
C71C  29 CB     AND #$CB                        A:34 X:03 Y:55 P:25 SP:F5 PPU:133, 76
C71E  C9 00     CMP #$00                        A:00 X:03 Y:55 P:27 SP:F5 PPU:133, 82
C720  F0 06     BEQ $C728                       A:00 X:03 Y:55 P:27 SP:F5 PPU:133, 88
C728  C8        INY                             A:00 X:03 Y:55 P:27 SP:F5 PPU:133, 97
C729  CA        DEX                             A:00 X:03 Y:56 P:25 SP:F5 PPU:133,103
C72A  D0 E0     BNE $C70C                       A:00 X:02 Y:56 P:25 SP:F5 PPU:133,109
C70C  68        PLA                             A:00 X:02 Y:56 P:25 SP:F5 PPU:133,118
C70D  C9 55     CMP #$55                        A:55 X:02 Y:56 P:25 SP:F6 PPU:133,130
C70F  F0 0A     BEQ $C71B                       A:55 X:02 Y:56 P:27 SP:F6 PPU:133,136
C71B  68        PLA                             A:55 X:02 Y:56 P:27 SP:F6 PPU:133,145
C71C  29 CB     AND #$CB                        A:34 X:02 Y:56 P:25 SP:F7 PPU:133,157
C71E  C9 00     CMP #$00                        A:00 X:02 Y:56 P:27 SP:F7 PPU:133,163
C720  F0 06     BEQ $C728                       A:00 X:02 Y:56 P:27 SP:F7 PPU:133,169
C728  C8        INY                             A:00 X:02 Y:56 P:27 SP:F7 PPU:133,178
C729  CA        DEX                             A:00 X:02 Y:57 P:25 SP:F7 PPU:133,184
C72A  D0 E0     BNE $C70C                       A:00 X:01 Y:57 P:25 SP:F7 PPU:133,190
C70C  68        PLA                             A:00 X:01 Y:57 P:25 SP:F7 PPU:133,199
C70D  C9 55     CMP #$55                        A:55 X:01 Y:57 P:25 SP:F8 PPU:133,211
C70F  F0 0A     BEQ $C71B                       A:55 X:01 Y:57 P:27 SP:F8 PPU:133,217
C71B  68        PLA                             A:55 X:01 Y:57 P:27 SP:F8 PPU:133,226
C71C  29 CB     AND #$CB                        A:34 X:01 Y:57 P:25 SP:F9 PPU:133,238
C71E  C9 00     CMP #$00                        A:00 X:01 Y:57 P:27 SP:F9 PPU:133,244
C720  F0 06     BEQ $C728                       A:00 X:01 Y:57 P:27 SP:F9 PPU:133,250
C728  C8        INY                             A:00 X:01 Y:57 P:27 SP:F9 PPU:133,259
C729  CA        DEX                             A:00 X:01 Y:58 P:25 SP:F9 PPU:133,265
C72A  D0 E0     BNE $C70C                       A:00 X:00 Y:58 P:27 SP:F9 PPU:133,271
C72C  60        RTS                             A:00 X:00 Y:58 P:27 SP:F9 PPU:133,277
C6AF  60        RTS                             A:00 X:00 Y:58 P:27 SP:FB PPU:133,295
C632  20 1E E5  JSR $E51E                       A:00 X:00 Y:58 P:27 SP:FD PPU:133,313
E51E  A9 55     LDA #$55                        A:00 X:00 Y:58 P:27 SP:FB PPU:133,331
E520  8D 80 05  STA $0580 = 00                  A:55 X:00 Y:58 P:25 SP:FB PPU:133,337
E523  A9 AA     LDA #$AA                        A:55 X:00 Y:58 P:25 SP:FB PPU:134,  8
E525  8D 32 04  STA $0432 = 00                  A:AA X:00 Y:58 P:A5 SP:FB PPU:134, 14
E528  A9 80     LDA #$80                        A:AA X:00 Y:58 P:A5 SP:FB PPU:134, 26
E52A  85 43     STA $43 = 00                    A:80 X:00 Y:58 P:A5 SP:FB PPU:134, 32
E52C  A9 05     LDA #$05                        A:80 X:00 Y:58 P:A5 SP:FB PPU:134, 41
E52E  85 44     STA $44 = 00                    A:05 X:00 Y:58 P:25 SP:FB PPU:134, 47
E530  A9 32     LDA #$32                        A:05 X:00 Y:58 P:25 SP:FB PPU:134, 56
E532  85 45     STA $45 = 00                    A:32 X:00 Y:58 P:25 SP:FB PPU:134, 62
E534  A9 04     LDA #$04                        A:32 X:00 Y:58 P:25 SP:FB PPU:134, 71
E536  85 46     STA $46 = 00                    A:04 X:00 Y:58 P:25 SP:FB PPU:134, 77
E538  A2 03     LDX #$03                        A:04 X:00 Y:58 P:25 SP:FB PPU:134, 86
E53A  A0 77     LDY #$77                        A:04 X:03 Y:58 P:25 SP:FB PPU:134, 92
E53C  A9 FF     LDA #$FF                        A:04 X:03 Y:77 P:25 SP:FB PPU:134, 98
E53E  85 01     STA $01 = FF                    A:FF X:03 Y:77 P:A5 SP:FB PPU:134,104
E540  24 01     BIT $01 = FF                    A:FF X:03 Y:77 P:A5 SP:FB PPU:134,113
E542  38        SEC                             A:FF X:03 Y:77 P:E5 SP:FB PPU:134,122
E543  A9 00     LDA #$00                        A:FF X:03 Y:77 P:E5 SP:FB PPU:134,128
E545  A3 40    *LAX ($40,X) @ 43 = 0580 = 55    A:00 X:03 Y:77 P:67 SP:FB PPU:134,134
E547  EA        NOP                             A:55 X:55 Y:77 P:65 SP:FB PPU:134,152
E548  EA        NOP                             A:55 X:55 Y:77 P:65 SP:FB PPU:134,158
E549  EA        NOP                             A:55 X:55 Y:77 P:65 SP:FB PPU:134,164
E54A  EA        NOP                             A:55 X:55 Y:77 P:65 SP:FB PPU:134,170
E54B  F0 12     BEQ $E55F                       A:55 X:55 Y:77 P:65 SP:FB PPU:134,176
E54D  30 10     BMI $E55F                       A:55 X:55 Y:77 P:65 SP:FB PPU:134,182
E54F  50 0E     BVC $E55F                       A:55 X:55 Y:77 P:65 SP:FB PPU:134,188
E551  90 0C     BCC $E55F                       A:55 X:55 Y:77 P:65 SP:FB PPU:134,194
E553  C9 55     CMP #$55                        A:55 X:55 Y:77 P:65 SP:FB PPU:134,200
E555  D0 08     BNE $E55F                       A:55 X:55 Y:77 P:67 SP:FB PPU:134,206
E557  E0 55     CPX #$55                        A:55 X:55 Y:77 P:67 SP:FB PPU:134,212
E559  D0 04     BNE $E55F                       A:55 X:55 Y:77 P:67 SP:FB PPU:134,218
E55B  C0 77     CPY #$77                        A:55 X:55 Y:77 P:67 SP:FB PPU:134,224
E55D  F0 04     BEQ $E563                       A:55 X:55 Y:77 P:67 SP:FB PPU:134,230
E563  A2 05     LDX #$05                        A:55 X:55 Y:77 P:67 SP:FB PPU:134,239
E565  A0 33     LDY #$33                        A:55 X:05 Y:77 P:65 SP:FB PPU:134,245
E567  B8        CLV                             A:55 X:05 Y:33 P:65 SP:FB PPU:134,251
E568  18        CLC                             A:55 X:05 Y:33 P:25 SP:FB PPU:134,257
E569  A9 00     LDA #$00                        A:55 X:05 Y:33 P:24 SP:FB PPU:134,263
E56B  A3 40    *LAX ($40,X) @ 45 = 0432 = AA    A:00 X:05 Y:33 P:26 SP:FB PPU:134,269
E56D  EA        NOP                             A:AA X:AA Y:33 P:A4 SP:FB PPU:134,287
E56E  EA        NOP                             A:AA X:AA Y:33 P:A4 SP:FB PPU:134,293
E56F  EA        NOP                             A:AA X:AA Y:33 P:A4 SP:FB PPU:134,299
E570  EA        NOP                             A:AA X:AA Y:33 P:A4 SP:FB PPU:134,305
E571  F0 12     BEQ $E585                       A:AA X:AA Y:33 P:A4 SP:FB PPU:134,311
E573  10 10     BPL $E585                       A:AA X:AA Y:33 P:A4 SP:FB PPU:134,317
E575  70 0E     BVS $E585                       A:AA X:AA Y:33 P:A4 SP:FB PPU:134,323
E577  B0 0C     BCS $E585                       A:AA X:AA Y:33 P:A4 SP:FB PPU:134,329
E579  C9 AA     CMP #$AA                        A:AA X:AA Y:33 P:A4 SP:FB PPU:134,335
E57B  D0 08     BNE $E585                       A:AA X:AA Y:33 P:27 SP:FB PPU:135,  0
E57D  E0 AA     CPX #$AA                        A:AA X:AA Y:33 P:27 SP:FB PPU:135,  6
E57F  D0 04     BNE $E585                       A:AA X:AA Y:33 P:27 SP:FB PPU:135, 12
E581  C0 33     CPY #$33                        A:AA X:AA Y:33 P:27 SP:FB PPU:135, 18
E583  F0 04     BEQ $E589                       A:AA X:AA Y:33 P:27 SP:FB PPU:135, 24
E589  A9 87     LDA #$87                        A:AA X:AA Y:33 P:27 SP:FB PPU:135, 33
E58B  85 67     STA $67 = 00                    A:87 X:AA Y:33 P:A5 SP:FB PPU:135, 39
E58D  A9 32     LDA #$32                        A:87 X:AA Y:33 P:A5 SP:FB PPU:135, 48
E58F  85 68     STA $68 = 00                    A:32 X:AA Y:33 P:25 SP:FB PPU:135, 54
E591  A0 57     LDY #$57                        A:32 X:AA Y:33 P:25 SP:FB PPU:135, 63
E593  24 01     BIT $01 = FF                    A:32 X:AA Y:57 P:25 SP:FB PPU:135, 69
E595  38        SEC                             A:32 X:AA Y:57 P:E5 SP:FB PPU:135, 78
E596  A9 00     LDA #$00                        A:32 X:AA Y:57 P:E5 SP:FB PPU:135, 84
E598  A7 67    *LAX $67 = 87                    A:00 X:AA Y:57 P:67 SP:FB PPU:135, 90
E59A  EA        NOP                             A:87 X:87 Y:57 P:E5 SP:FB PPU:135, 99
E59B  EA        NOP                             A:87 X:87 Y:57 P:E5 SP:FB PPU:135,105
E59C  EA        NOP                             A:87 X:87 Y:57 P:E5 SP:FB PPU:135,111
E59D  EA        NOP                             A:87 X:87 Y:57 P:E5 SP:FB PPU:135,117
E59E  F0 12     BEQ $E5B2                       A:87 X:87 Y:57 P:E5 SP:FB PPU:135,123
E5A0  10 10     BPL $E5B2                       A:87 X:87 Y:57 P:E5 SP:FB PPU:135,129
E5A2  50 0E     BVC $E5B2                       A:87 X:87 Y:57 P:E5 SP:FB PPU:135,135
E5A4  90 0C     BCC $E5B2                       A:87 X:87 Y:57 P:E5 SP:FB PPU:135,141
E5A6  C9 87     CMP #$87                        A:87 X:87 Y:57 P:E5 SP:FB PPU:135,147
E5A8  D0 08     BNE $E5B2                       A:87 X:87 Y:57 P:67 SP:FB PPU:135,153
E5AA  E0 87     CPX #$87                        A:87 X:87 Y:57 P:67 SP:FB PPU:135,159
E5AC  D0 04     BNE $E5B2                       A:87 X:87 Y:57 P:67 SP:FB PPU:135,165
E5AE  C0 57     CPY #$57                        A:87 X:87 Y:57 P:67 SP:FB PPU:135,171
E5B0  F0 04     BEQ $E5B6                       A:87 X:87 Y:57 P:67 SP:FB PPU:135,177
E5B6  A0 53     LDY #$53                        A:87 X:87 Y:57 P:67 SP:FB PPU:135,186
E5B8  B8        CLV                             A:87 X:87 Y:53 P:65 SP:FB PPU:135,192
E5B9  18        CLC                             A:87 X:87 Y:53 P:25 SP:FB PPU:135,198
E5BA  A9 00     LDA #$00                        A:87 X:87 Y:53 P:24 SP:FB PPU:135,204
E5BC  A7 68    *LAX $68 = 32                    A:00 X:87 Y:53 P:26 SP:FB PPU:135,210
E5BE  EA        NOP                             A:32 X:32 Y:53 P:24 SP:FB PPU:135,219
E5BF  EA        NOP                             A:32 X:32 Y:53 P:24 SP:FB PPU:135,225
E5C0  EA        NOP                             A:32 X:32 Y:53 P:24 SP:FB PPU:135,231
E5C1  EA        NOP                             A:32 X:32 Y:53 P:24 SP:FB PPU:135,237
E5C2  F0 12     BEQ $E5D6                       A:32 X:32 Y:53 P:24 SP:FB PPU:135,243
E5C4  30 10     BMI $E5D6                       A:32 X:32 Y:53 P:24 SP:FB PPU:135,249
E5C6  70 0E     BVS $E5D6                       A:32 X:32 Y:53 P:24 SP:FB PPU:135,255
E5C8  B0 0C     BCS $E5D6                       A:32 X:32 Y:53 P:24 SP:FB PPU:135,261
E5CA  C9 32     CMP #$32                        A:32 X:32 Y:53 P:24 SP:FB PPU:135,267
E5CC  D0 08     BNE $E5D6                       A:32 X:32 Y:53 P:27 SP:FB PPU:135,273
E5CE  E0 32     CPX #$32                        A:32 X:32 Y:53 P:27 SP:FB PPU:135,279
E5D0  D0 04     BNE $E5D6                       A:32 X:32 Y:53 P:27 SP:FB PPU:135,285
E5D2  C0 53     CPY #$53                        A:32 X:32 Y:53 P:27 SP:FB PPU:135,291
E5D4  F0 04     BEQ $E5DA                       A:32 X:32 Y:53 P:27 SP:FB PPU:135,297
E5DA  A9 87     LDA #$87                        A:32 X:32 Y:53 P:27 SP:FB PPU:135,306
E5DC  8D 77 05  STA $0577 = 00                  A:87 X:32 Y:53 P:A5 SP:FB PPU:135,312
E5DF  A9 32     LDA #$32                        A:87 X:32 Y:53 P:A5 SP:FB PPU:135,324
E5E1  8D 78 05  STA $0578 = 00                  A:32 X:32 Y:53 P:25 SP:FB PPU:135,330
E5E4  A0 57     LDY #$57                        A:32 X:32 Y:53 P:25 SP:FB PPU:136,  1
E5E6  24 01     BIT $01 = FF                    A:32 X:32 Y:57 P:25 SP:FB PPU:136,  7
E5E8  38        SEC                             A:32 X:32 Y:57 P:E5 SP:FB PPU:136, 16
E5E9  A9 00     LDA #$00                        A:32 X:32 Y:57 P:E5 SP:FB PPU:136, 22
E5EB  AF 77 05 *LAX $0577 = 87                  A:00 X:32 Y:57 P:67 SP:FB PPU:136, 28
E5EE  EA        NOP                             A:87 X:87 Y:57 P:E5 SP:FB PPU:136, 40
E5EF  EA        NOP                             A:87 X:87 Y:57 P:E5 SP:FB PPU:136, 46
E5F0  EA        NOP                             A:87 X:87 Y:57 P:E5 SP:FB PPU:136, 52
E5F1  EA        NOP                             A:87 X:87 Y:57 P:E5 SP:FB PPU:136, 58
E5F2  F0 12     BEQ $E606                       A:87 X:87 Y:57 P:E5 SP:FB PPU:136, 64
E5F4  10 10     BPL $E606                       A:87 X:87 Y:57 P:E5 SP:FB PPU:136, 70
E5F6  50 0E     BVC $E606                       A:87 X:87 Y:57 P:E5 SP:FB PPU:136, 76
E5F8  90 0C     BCC $E606                       A:87 X:87 Y:57 P:E5 SP:FB PPU:136, 82
E5FA  C9 87     CMP #$87                        A:87 X:87 Y:57 P:E5 SP:FB PPU:136, 88
E5FC  D0 08     BNE $E606                       A:87 X:87 Y:57 P:67 SP:FB PPU:136, 94
E5FE  E0 87     CPX #$87                        A:87 X:87 Y:57 P:67 SP:FB PPU:136,100
E600  D0 04     BNE $E606                       A:87 X:87 Y:57 P:67 SP:FB PPU:136,106
E602  C0 57     CPY #$57                        A:87 X:87 Y:57 P:67 SP:FB PPU:136,112
E604  F0 04     BEQ $E60A                       A:87 X:87 Y:57 P:67 SP:FB PPU:136,118
E60A  A0 53     LDY #$53                        A:87 X:87 Y:57 P:67 SP:FB PPU:136,127
E60C  B8        CLV                             A:87 X:87 Y:53 P:65 SP:FB PPU:136,133
E60D  18        CLC                             A:87 X:87 Y:53 P:25 SP:FB PPU:136,139
E60E  A9 00     LDA #$00                        A:87 X:87 Y:53 P:24 SP:FB PPU:136,145
E610  AF 78 05 *LAX $0578 = 32                  A:00 X:87 Y:53 P:26 SP:FB PPU:136,151
E613  EA        NOP                             A:32 X:32 Y:53 P:24 SP:FB PPU:136,163
E614  EA        NOP                             A:32 X:32 Y:53 P:24 SP:FB PPU:136,169
E615  EA        NOP                             A:32 X:32 Y:53 P:24 SP:FB PPU:136,175
E616  EA        NOP                             A:32 X:32 Y:53 P:24 SP:FB PPU:136,181
E617  F0 12     BEQ $E62B                       A:32 X:32 Y:53 P:24 SP:FB PPU:136,187
E619  30 10     BMI $E62B                       A:32 X:32 Y:53 P:24 SP:FB PPU:136,193
E61B  70 0E     BVS $E62B                       A:32 X:32 Y:53 P:24 SP:FB PPU:136,199
E61D  B0 0C     BCS $E62B                       A:32 X:32 Y:53 P:24 SP:FB PPU:136,205
E61F  C9 32     CMP #$32                        A:32 X:32 Y:53 P:24 SP:FB PPU:136,211
E621  D0 08     BNE $E62B                       A:32 X:32 Y:53 P:27 SP:FB PPU:136,217
E623  E0 32     CPX #$32                        A:32 X:32 Y:53 P:27 SP:FB PPU:136,223
E625  D0 04     BNE $E62B                       A:32 X:32 Y:53 P:27 SP:FB PPU:136,229
E627  C0 53     CPY #$53                        A:32 X:32 Y:53 P:27 SP:FB PPU:136,235
E629  F0 04     BEQ $E62F                       A:32 X:32 Y:53 P:27 SP:FB PPU:136,241
E62F  A9 FF     LDA #$FF                        A:32 X:32 Y:53 P:27 SP:FB PPU:136,250
E631  85 43     STA $43 = 80                    A:FF X:32 Y:53 P:A5 SP:FB PPU:136,256
E633  A9 04     LDA #$04                        A:FF X:32 Y:53 P:A5 SP:FB PPU:136,265
E635  85 44     STA $44 = 05                    A:04 X:32 Y:53 P:25 SP:FB PPU:136,271
E637  A9 32     LDA #$32                        A:04 X:32 Y:53 P:25 SP:FB PPU:136,280
E639  85 45     STA $45 = 32                    A:32 X:32 Y:53 P:25 SP:FB PPU:136,286
E63B  A9 04     LDA #$04                        A:32 X:32 Y:53 P:25 SP:FB PPU:136,295
E63D  85 46     STA $46 = 04                    A:04 X:32 Y:53 P:25 SP:FB PPU:136,301
E63F  A9 55     LDA #$55                        A:04 X:32 Y:53 P:25 SP:FB PPU:136,310
E641  8D 80 05  STA $0580 = 55                  A:55 X:32 Y:53 P:25 SP:FB PPU:136,316
E644  A9 AA     LDA #$AA                        A:55 X:32 Y:53 P:25 SP:FB PPU:136,328
E646  8D 32 04  STA $0432 = AA                  A:AA X:32 Y:53 P:A5 SP:FB PPU:136,334
E649  A2 03     LDX #$03                        A:AA X:32 Y:53 P:A5 SP:FB PPU:137,  5
E64B  A0 81     LDY #$81                        A:AA X:03 Y:53 P:25 SP:FB PPU:137, 11
E64D  24 01     BIT $01 = FF                    A:AA X:03 Y:81 P:A5 SP:FB PPU:137, 17
E64F  38        SEC                             A:AA X:03 Y:81 P:E5 SP:FB PPU:137, 26
E650  A9 00     LDA #$00                        A:AA X:03 Y:81 P:E5 SP:FB PPU:137, 32
E652  B3 43    *LAX ($43),Y = 04FF @ 0580 = 55  A:00 X:03 Y:81 P:67 SP:FB PPU:137, 38
E654  EA        NOP                             A:55 X:55 Y:81 P:65 SP:FB PPU:137, 56
E655  EA        NOP                             A:55 X:55 Y:81 P:65 SP:FB PPU:137, 62
E656  EA        NOP                             A:55 X:55 Y:81 P:65 SP:FB PPU:137, 68
E657  EA        NOP                             A:55 X:55 Y:81 P:65 SP:FB PPU:137, 74
E658  F0 12     BEQ $E66C                       A:55 X:55 Y:81 P:65 SP:FB PPU:137, 80
E65A  30 10     BMI $E66C                       A:55 X:55 Y:81 P:65 SP:FB PPU:137, 86
E65C  50 0E     BVC $E66C                       A:55 X:55 Y:81 P:65 SP:FB PPU:137, 92
E65E  90 0C     BCC $E66C                       A:55 X:55 Y:81 P:65 SP:FB PPU:137, 98
E660  C9 55     CMP #$55                        A:55 X:55 Y:81 P:65 SP:FB PPU:137,104
E662  D0 08     BNE $E66C                       A:55 X:55 Y:81 P:67 SP:FB PPU:137,110
E664  E0 55     CPX #$55                        A:55 X:55 Y:81 P:67 SP:FB PPU:137,116
E666  D0 04     BNE $E66C                       A:55 X:55 Y:81 P:67 SP:FB PPU:137,122
E668  C0 81     CPY #$81                        A:55 X:55 Y:81 P:67 SP:FB PPU:137,128
E66A  F0 04     BEQ $E670                       A:55 X:55 Y:81 P:67 SP:FB PPU:137,134
E670  A2 05     LDX #$05                        A:55 X:55 Y:81 P:67 SP:FB PPU:137,143
E672  A0 00     LDY #$00                        A:55 X:05 Y:81 P:65 SP:FB PPU:137,149
E674  B8        CLV                             A:55 X:05 Y:00 P:67 SP:FB PPU:137,155
E675  18        CLC                             A:55 X:05 Y:00 P:27 SP:FB PPU:137,161
E676  A9 00     LDA #$00                        A:55 X:05 Y:00 P:26 SP:FB PPU:137,167
E678  B3 45    *LAX ($45),Y = 0432 @ 0432 = AA  A:00 X:05 Y:00 P:26 SP:FB PPU:137,173
E67A  EA        NOP                             A:AA X:AA Y:00 P:A4 SP:FB PPU:137,188
E67B  EA        NOP                             A:AA X:AA Y:00 P:A4 SP:FB PPU:137,194
E67C  EA        NOP                             A:AA X:AA Y:00 P:A4 SP:FB PPU:137,200
E67D  EA        NOP                             A:AA X:AA Y:00 P:A4 SP:FB PPU:137,206
E67E  F0 12     BEQ $E692                       A:AA X:AA Y:00 P:A4 SP:FB PPU:137,212
E680  10 10     BPL $E692                       A:AA X:AA Y:00 P:A4 SP:FB PPU:137,218
E682  70 0E     BVS $E692                       A:AA X:AA Y:00 P:A4 SP:FB PPU:137,224
E684  B0 0C     BCS $E692                       A:AA X:AA Y:00 P:A4 SP:FB PPU:137,230
E686  C9 AA     CMP #$AA                        A:AA X:AA Y:00 P:A4 SP:FB PPU:137,236
E688  D0 08     BNE $E692                       A:AA X:AA Y:00 P:27 SP:FB PPU:137,242
E68A  E0 AA     CPX #$AA                        A:AA X:AA Y:00 P:27 SP:FB PPU:137,248
E68C  D0 04     BNE $E692                       A:AA X:AA Y:00 P:27 SP:FB PPU:137,254
E68E  C0 00     CPY #$00                        A:AA X:AA Y:00 P:27 SP:FB PPU:137,260
E690  F0 04     BEQ $E696                       A:AA X:AA Y:00 P:27 SP:FB PPU:137,266
E696  A9 87     LDA #$87                        A:AA X:AA Y:00 P:27 SP:FB PPU:137,275
E698  85 67     STA $67 = 87                    A:87 X:AA Y:00 P:A5 SP:FB PPU:137,281
E69A  A9 32     LDA #$32                        A:87 X:AA Y:00 P:A5 SP:FB PPU:137,290
E69C  85 68     STA $68 = 32                    A:32 X:AA Y:00 P:25 SP:FB PPU:137,296
E69E  A0 57     LDY #$57                        A:32 X:AA Y:00 P:25 SP:FB PPU:137,305
E6A0  24 01     BIT $01 = FF                    A:32 X:AA Y:57 P:25 SP:FB PPU:137,311
E6A2  38        SEC                             A:32 X:AA Y:57 P:E5 SP:FB PPU:137,320
E6A3  A9 00     LDA #$00                        A:32 X:AA Y:57 P:E5 SP:FB PPU:137,326
E6A5  B7 10    *LAX $10,Y @ 67 = 87             A:00 X:AA Y:57 P:67 SP:FB PPU:137,332
E6A7  EA        NOP                             A:87 X:87 Y:57 P:E5 SP:FB PPU:138,  3
E6A8  EA        NOP                             A:87 X:87 Y:57 P:E5 SP:FB PPU:138,  9
E6A9  EA        NOP                             A:87 X:87 Y:57 P:E5 SP:FB PPU:138, 15
E6AA  EA        NOP                             A:87 X:87 Y:57 P:E5 SP:FB PPU:138, 21
E6AB  F0 12     BEQ $E6BF                       A:87 X:87 Y:57 P:E5 SP:FB PPU:138, 27
E6AD  10 10     BPL $E6BF                       A:87 X:87 Y:57 P:E5 SP:FB PPU:138, 33
E6AF  50 0E     BVC $E6BF                       A:87 X:87 Y:57 P:E5 SP:FB PPU:138, 39
E6B1  90 0C     BCC $E6BF                       A:87 X:87 Y:57 P:E5 SP:FB PPU:138, 45
E6B3  C9 87     CMP #$87                        A:87 X:87 Y:57 P:E5 SP:FB PPU:138, 51
E6B5  D0 08     BNE $E6BF                       A:87 X:87 Y:57 P:67 SP:FB PPU:138, 57
E6B7  E0 87     CPX #$87                        A:87 X:87 Y:57 P:67 SP:FB PPU:138, 63
E6B9  D0 04     BNE $E6BF                       A:87 X:87 Y:57 P:67 SP:FB PPU:138, 69
E6BB  C0 57     CPY #$57                        A:87 X:87 Y:57 P:67 SP:FB PPU:138, 75
E6BD  F0 04     BEQ $E6C3                       A:87 X:87 Y:57 P:67 SP:FB PPU:138, 81
E6C3  A0 FF     LDY #$FF                        A:87 X:87 Y:57 P:67 SP:FB PPU:138, 90
E6C5  B8        CLV                             A:87 X:87 Y:FF P:E5 SP:FB PPU:138, 96
E6C6  18        CLC                             A:87 X:87 Y:FF P:A5 SP:FB PPU:138,102
E6C7  A9 00     LDA #$00                        A:87 X:87 Y:FF P:A4 SP:FB PPU:138,108
E6C9  B7 69    *LAX $69,Y @ 68 = 32             A:00 X:87 Y:FF P:26 SP:FB PPU:138,114
E6CB  EA        NOP                             A:32 X:32 Y:FF P:24 SP:FB PPU:138,126
E6CC  EA        NOP                             A:32 X:32 Y:FF P:24 SP:FB PPU:138,132
E6CD  EA        NOP                             A:32 X:32 Y:FF P:24 SP:FB PPU:138,138
E6CE  EA        NOP                             A:32 X:32 Y:FF P:24 SP:FB PPU:138,144
E6CF  F0 12     BEQ $E6E3                       A:32 X:32 Y:FF P:24 SP:FB PPU:138,150
E6D1  30 10     BMI $E6E3                       A:32 X:32 Y:FF P:24 SP:FB PPU:138,156
E6D3  70 0E     BVS $E6E3                       A:32 X:32 Y:FF P:24 SP:FB PPU:138,162
E6D5  B0 0C     BCS $E6E3                       A:32 X:32 Y:FF P:24 SP:FB PPU:138,168
E6D7  C9 32     CMP #$32                        A:32 X:32 Y:FF P:24 SP:FB PPU:138,174
E6D9  D0 08     BNE $E6E3                       A:32 X:32 Y:FF P:27 SP:FB PPU:138,180
E6DB  E0 32     CPX #$32                        A:32 X:32 Y:FF P:27 SP:FB PPU:138,186
E6DD  D0 04     BNE $E6E3                       A:32 X:32 Y:FF P:27 SP:FB PPU:138,192
E6DF  C0 FF     CPY #$FF                        A:32 X:32 Y:FF P:27 SP:FB PPU:138,198
E6E1  F0 04     BEQ $E6E7                       A:32 X:32 Y:FF P:27 SP:FB PPU:138,204
E6E7  A9 87     LDA #$87                        A:32 X:32 Y:FF P:27 SP:FB PPU:138,213
E6E9  8D 87 05  STA $0587 = 00                  A:87 X:32 Y:FF P:A5 SP:FB PPU:138,219
E6EC  A9 32     LDA #$32                        A:87 X:32 Y:FF P:A5 SP:FB PPU:138,231
E6EE  8D 88 05  STA $0588 = 00                  A:32 X:32 Y:FF P:25 SP:FB PPU:138,237
E6F1  A0 30     LDY #$30                        A:32 X:32 Y:FF P:25 SP:FB PPU:138,249
E6F3  24 01     BIT $01 = FF                    A:32 X:32 Y:30 P:25 SP:FB PPU:138,255
E6F5  38        SEC                             A:32 X:32 Y:30 P:E5 SP:FB PPU:138,264
E6F6  A9 00     LDA #$00                        A:32 X:32 Y:30 P:E5 SP:FB PPU:138,270
E6F8  BF 57 05 *LAX $0557,Y @ 0587 = 87         A:00 X:32 Y:30 P:67 SP:FB PPU:138,276
E6FB  EA        NOP                             A:87 X:87 Y:30 P:E5 SP:FB PPU:138,288
E6FC  EA        NOP                             A:87 X:87 Y:30 P:E5 SP:FB PPU:138,294
E6FD  EA        NOP                             A:87 X:87 Y:30 P:E5 SP:FB PPU:138,300
E6FE  EA        NOP                             A:87 X:87 Y:30 P:E5 SP:FB PPU:138,306
E6FF  F0 12     BEQ $E713                       A:87 X:87 Y:30 P:E5 SP:FB PPU:138,312
E701  10 10     BPL $E713                       A:87 X:87 Y:30 P:E5 SP:FB PPU:138,318
E703  50 0E     BVC $E713                       A:87 X:87 Y:30 P:E5 SP:FB PPU:138,324
E705  90 0C     BCC $E713                       A:87 X:87 Y:30 P:E5 SP:FB PPU:138,330
E707  C9 87     CMP #$87                        A:87 X:87 Y:30 P:E5 SP:FB PPU:138,336
E709  D0 08     BNE $E713                       A:87 X:87 Y:30 P:67 SP:FB PPU:139,  1
E70B  E0 87     CPX #$87                        A:87 X:87 Y:30 P:67 SP:FB PPU:139,  7
E70D  D0 04     BNE $E713                       A:87 X:87 Y:30 P:67 SP:FB PPU:139, 13
E70F  C0 30     CPY #$30                        A:87 X:87 Y:30 P:67 SP:FB PPU:139, 19
E711  F0 04     BEQ $E717                       A:87 X:87 Y:30 P:67 SP:FB PPU:139, 25
E717  A0 40     LDY #$40                        A:87 X:87 Y:30 P:67 SP:FB PPU:139, 34
E719  B8        CLV                             A:87 X:87 Y:40 P:65 SP:FB PPU:139, 40
E71A  18        CLC                             A:87 X:87 Y:40 P:25 SP:FB PPU:139, 46
E71B  A9 00     LDA #$00                        A:87 X:87 Y:40 P:24 SP:FB PPU:139, 52
E71D  BF 48 05 *LAX $0548,Y @ 0588 = 32         A:00 X:87 Y:40 P:26 SP:FB PPU:139, 58
E720  EA        NOP                             A:32 X:32 Y:40 P:24 SP:FB PPU:139, 70
E721  EA        NOP                             A:32 X:32 Y:40 P:24 SP:FB PPU:139, 76
E722  EA        NOP                             A:32 X:32 Y:40 P:24 SP:FB PPU:139, 82
E723  EA        NOP                             A:32 X:32 Y:40 P:24 SP:FB PPU:139, 88
E724  F0 12     BEQ $E738                       A:32 X:32 Y:40 P:24 SP:FB PPU:139, 94
E726  30 10     BMI $E738                       A:32 X:32 Y:40 P:24 SP:FB PPU:139,100
E728  70 0E     BVS $E738                       A:32 X:32 Y:40 P:24 SP:FB PPU:139,106
E72A  B0 0C     BCS $E738                       A:32 X:32 Y:40 P:24 SP:FB PPU:139,112
E72C  C9 32     CMP #$32                        A:32 X:32 Y:40 P:24 SP:FB PPU:139,118
E72E  D0 08     BNE $E738                       A:32 X:32 Y:40 P:27 SP:FB PPU:139,124
E730  E0 32     CPX #$32                        A:32 X:32 Y:40 P:27 SP:FB PPU:139,130
E732  D0 04     BNE $E738                       A:32 X:32 Y:40 P:27 SP:FB PPU:139,136
E734  C0 40     CPY #$40                        A:32 X:32 Y:40 P:27 SP:FB PPU:139,142
E736  F0 04     BEQ $E73C                       A:32 X:32 Y:40 P:27 SP:FB PPU:139,148
E73C  60        RTS                             A:32 X:32 Y:40 P:27 SP:FB PPU:139,157
C635  20 3D E7  JSR $E73D                       A:32 X:32 Y:40 P:27 SP:FD PPU:139,175
E73D  A9 C0     LDA #$C0                        A:32 X:32 Y:40 P:27 SP:FB PPU:139,193
E73F  85 01     STA $01 = FF                    A:C0 X:32 Y:40 P:A5 SP:FB PPU:139,199
E741  A9 00     LDA #$00                        A:C0 X:32 Y:40 P:A5 SP:FB PPU:139,208
E743  8D 89 04  STA $0489 = 00                  A:00 X:32 Y:40 P:27 SP:FB PPU:139,214
E746  A9 89     LDA #$89                        A:00 X:32 Y:40 P:27 SP:FB PPU:139,226
E748  85 60     STA $60 = 00                    A:89 X:32 Y:40 P:A5 SP:FB PPU:139,232
E74A  A9 04     LDA #$04                        A:89 X:32 Y:40 P:A5 SP:FB PPU:139,241
E74C  85 61     STA $61 = 00                    A:04 X:32 Y:40 P:25 SP:FB PPU:139,247
E74E  A0 44     LDY #$44                        A:04 X:32 Y:40 P:25 SP:FB PPU:139,256
E750  A2 17     LDX #$17                        A:04 X:32 Y:44 P:25 SP:FB PPU:139,262
E752  A9 3E     LDA #$3E                        A:04 X:17 Y:44 P:25 SP:FB PPU:139,268
E754  24 01     BIT $01 = C0                    A:3E X:17 Y:44 P:25 SP:FB PPU:139,274
E756  18        CLC                             A:3E X:17 Y:44 P:E7 SP:FB PPU:139,283
E757  83 49    *SAX ($49,X) @ 60 = 0489 = 00    A:3E X:17 Y:44 P:E6 SP:FB PPU:139,289
E759  EA        NOP                             A:3E X:17 Y:44 P:E6 SP:FB PPU:139,307
E75A  EA        NOP                             A:3E X:17 Y:44 P:E6 SP:FB PPU:139,313
E75B  EA        NOP                             A:3E X:17 Y:44 P:E6 SP:FB PPU:139,319
E75C  EA        NOP                             A:3E X:17 Y:44 P:E6 SP:FB PPU:139,325
E75D  D0 19     BNE $E778                       A:3E X:17 Y:44 P:E6 SP:FB PPU:139,331
E75F  B0 17     BCS $E778                       A:3E X:17 Y:44 P:E6 SP:FB PPU:139,337
E761  50 15     BVC $E778                       A:3E X:17 Y:44 P:E6 SP:FB PPU:140,  2
E763  10 13     BPL $E778                       A:3E X:17 Y:44 P:E6 SP:FB PPU:140,  8
E765  C9 3E     CMP #$3E                        A:3E X:17 Y:44 P:E6 SP:FB PPU:140, 14
E767  D0 0F     BNE $E778                       A:3E X:17 Y:44 P:67 SP:FB PPU:140, 20
E769  C0 44     CPY #$44                        A:3E X:17 Y:44 P:67 SP:FB PPU:140, 26
E76B  D0 0B     BNE $E778                       A:3E X:17 Y:44 P:67 SP:FB PPU:140, 32
E76D  E0 17     CPX #$17                        A:3E X:17 Y:44 P:67 SP:FB PPU:140, 38
E76F  D0 07     BNE $E778                       A:3E X:17 Y:44 P:67 SP:FB PPU:140, 44
E771  AD 89 04  LDA $0489 = 16                  A:3E X:17 Y:44 P:67 SP:FB PPU:140, 50
E774  C9 16     CMP #$16                        A:16 X:17 Y:44 P:65 SP:FB PPU:140, 62
E776  F0 04     BEQ $E77C                       A:16 X:17 Y:44 P:67 SP:FB PPU:140, 68
E77C  A0 44     LDY #$44                        A:16 X:17 Y:44 P:67 SP:FB PPU:140, 77
E77E  A2 7A     LDX #$7A                        A:16 X:17 Y:44 P:65 SP:FB PPU:140, 83
E780  A9 66     LDA #$66                        A:16 X:7A Y:44 P:65 SP:FB PPU:140, 89
E782  38        SEC                             A:66 X:7A Y:44 P:65 SP:FB PPU:140, 95
E783  B8        CLV                             A:66 X:7A Y:44 P:65 SP:FB PPU:140,101
E784  83 E6    *SAX ($E6,X) @ 60 = 0489 = 16    A:66 X:7A Y:44 P:25 SP:FB PPU:140,107
E786  EA        NOP                             A:66 X:7A Y:44 P:25 SP:FB PPU:140,125
E787  EA        NOP                             A:66 X:7A Y:44 P:25 SP:FB PPU:140,131
E788  EA        NOP                             A:66 X:7A Y:44 P:25 SP:FB PPU:140,137
E789  EA        NOP                             A:66 X:7A Y:44 P:25 SP:FB PPU:140,143
E78A  F0 19     BEQ $E7A5                       A:66 X:7A Y:44 P:25 SP:FB PPU:140,149
E78C  90 17     BCC $E7A5                       A:66 X:7A Y:44 P:25 SP:FB PPU:140,155
E78E  70 15     BVS $E7A5                       A:66 X:7A Y:44 P:25 SP:FB PPU:140,161
E790  30 13     BMI $E7A5                       A:66 X:7A Y:44 P:25 SP:FB PPU:140,167
E792  C9 66     CMP #$66                        A:66 X:7A Y:44 P:25 SP:FB PPU:140,173
E794  D0 0F     BNE $E7A5                       A:66 X:7A Y:44 P:27 SP:FB PPU:140,179
E796  C0 44     CPY #$44                        A:66 X:7A Y:44 P:27 SP:FB PPU:140,185
E798  D0 0B     BNE $E7A5                       A:66 X:7A Y:44 P:27 SP:FB PPU:140,191
E79A  E0 7A     CPX #$7A                        A:66 X:7A Y:44 P:27 SP:FB PPU:140,197
E79C  D0 07     BNE $E7A5                       A:66 X:7A Y:44 P:27 SP:FB PPU:140,203
E79E  AD 89 04  LDA $0489 = 62                  A:66 X:7A Y:44 P:27 SP:FB PPU:140,209
E7A1  C9 62     CMP #$62                        A:62 X:7A Y:44 P:25 SP:FB PPU:140,221
E7A3  F0 04     BEQ $E7A9                       A:62 X:7A Y:44 P:27 SP:FB PPU:140,227
E7A9  A9 FF     LDA #$FF                        A:62 X:7A Y:44 P:27 SP:FB PPU:140,236
E7AB  85 49     STA $49 = 00                    A:FF X:7A Y:44 P:A5 SP:FB PPU:140,242
E7AD  A0 44     LDY #$44                        A:FF X:7A Y:44 P:A5 SP:FB PPU:140,251
E7AF  A2 AA     LDX #$AA                        A:FF X:7A Y:44 P:25 SP:FB PPU:140,257
E7B1  A9 55     LDA #$55                        A:FF X:AA Y:44 P:A5 SP:FB PPU:140,263
E7B3  24 01     BIT $01 = C0                    A:55 X:AA Y:44 P:25 SP:FB PPU:140,269
E7B5  18        CLC                             A:55 X:AA Y:44 P:E5 SP:FB PPU:140,278
E7B6  87 49    *SAX $49 = FF                    A:55 X:AA Y:44 P:E4 SP:FB PPU:140,284
E7B8  EA        NOP                             A:55 X:AA Y:44 P:E4 SP:FB PPU:140,293
E7B9  EA        NOP                             A:55 X:AA Y:44 P:E4 SP:FB PPU:140,299
E7BA  EA        NOP                             A:55 X:AA Y:44 P:E4 SP:FB PPU:140,305
E7BB  EA        NOP                             A:55 X:AA Y:44 P:E4 SP:FB PPU:140,311
E7BC  F0 18     BEQ $E7D6                       A:55 X:AA Y:44 P:E4 SP:FB PPU:140,317
E7BE  B0 16     BCS $E7D6                       A:55 X:AA Y:44 P:E4 SP:FB PPU:140,323
E7C0  50 14     BVC $E7D6                       A:55 X:AA Y:44 P:E4 SP:FB PPU:140,329
E7C2  10 12     BPL $E7D6                       A:55 X:AA Y:44 P:E4 SP:FB PPU:140,335
E7C4  C9 55     CMP #$55                        A:55 X:AA Y:44 P:E4 SP:FB PPU:141,  0
E7C6  D0 0E     BNE $E7D6                       A:55 X:AA Y:44 P:67 SP:FB PPU:141,  6
E7C8  C0 44     CPY #$44                        A:55 X:AA Y:44 P:67 SP:FB PPU:141, 12
E7CA  D0 0A     BNE $E7D6                       A:55 X:AA Y:44 P:67 SP:FB PPU:141, 18
E7CC  E0 AA     CPX #$AA                        A:55 X:AA Y:44 P:67 SP:FB PPU:141, 24
E7CE  D0 06     BNE $E7D6                       A:55 X:AA Y:44 P:67 SP:FB PPU:141, 30
E7D0  A5 49     LDA $49 = 00                    A:55 X:AA Y:44 P:67 SP:FB PPU:141, 36
E7D2  C9 00     CMP #$00                        A:00 X:AA Y:44 P:67 SP:FB PPU:141, 45
E7D4  F0 04     BEQ $E7DA                       A:00 X:AA Y:44 P:67 SP:FB PPU:141, 51
E7DA  A9 00     LDA #$00                        A:00 X:AA Y:44 P:67 SP:FB PPU:141, 60
E7DC  85 56     STA $56 = 00                    A:00 X:AA Y:44 P:67 SP:FB PPU:141, 66
E7DE  A0 58     LDY #$58                        A:00 X:AA Y:44 P:67 SP:FB PPU:141, 75
E7E0  A2 EF     LDX #$EF                        A:00 X:AA Y:58 P:65 SP:FB PPU:141, 81
E7E2  A9 66     LDA #$66                        A:00 X:EF Y:58 P:E5 SP:FB PPU:141, 87
E7E4  38        SEC                             A:66 X:EF Y:58 P:65 SP:FB PPU:141, 93
E7E5  B8        CLV                             A:66 X:EF Y:58 P:65 SP:FB PPU:141, 99
E7E6  87 56    *SAX $56 = 00                    A:66 X:EF Y:58 P:25 SP:FB PPU:141,105
E7E8  EA        NOP                             A:66 X:EF Y:58 P:25 SP:FB PPU:141,114
E7E9  EA        NOP                             A:66 X:EF Y:58 P:25 SP:FB PPU:141,120
E7EA  EA        NOP                             A:66 X:EF Y:58 P:25 SP:FB PPU:141,126
E7EB  EA        NOP                             A:66 X:EF Y:58 P:25 SP:FB PPU:141,132
E7EC  F0 18     BEQ $E806                       A:66 X:EF Y:58 P:25 SP:FB PPU:141,138
E7EE  90 16     BCC $E806                       A:66 X:EF Y:58 P:25 SP:FB PPU:141,144
E7F0  70 14     BVS $E806                       A:66 X:EF Y:58 P:25 SP:FB PPU:141,150
E7F2  30 12     BMI $E806                       A:66 X:EF Y:58 P:25 SP:FB PPU:141,156
E7F4  C9 66     CMP #$66                        A:66 X:EF Y:58 P:25 SP:FB PPU:141,162
E7F6  D0 0E     BNE $E806                       A:66 X:EF Y:58 P:27 SP:FB PPU:141,168
E7F8  C0 58     CPY #$58                        A:66 X:EF Y:58 P:27 SP:FB PPU:141,174
E7FA  D0 0A     BNE $E806                       A:66 X:EF Y:58 P:27 SP:FB PPU:141,180
E7FC  E0 EF     CPX #$EF                        A:66 X:EF Y:58 P:27 SP:FB PPU:141,186
E7FE  D0 06     BNE $E806                       A:66 X:EF Y:58 P:27 SP:FB PPU:141,192
E800  A5 56     LDA $56 = 66                    A:66 X:EF Y:58 P:27 SP:FB PPU:141,198
E802  C9 66     CMP #$66                        A:66 X:EF Y:58 P:25 SP:FB PPU:141,207
E804  F0 04     BEQ $E80A                       A:66 X:EF Y:58 P:27 SP:FB PPU:141,213
E80A  A9 FF     LDA #$FF                        A:66 X:EF Y:58 P:27 SP:FB PPU:141,222
E80C  8D 49 05  STA $0549 = 00                  A:FF X:EF Y:58 P:A5 SP:FB PPU:141,228
E80F  A0 E5     LDY #$E5                        A:FF X:EF Y:58 P:A5 SP:FB PPU:141,240
E811  A2 AF     LDX #$AF                        A:FF X:EF Y:E5 P:A5 SP:FB PPU:141,246
E813  A9 F5     LDA #$F5                        A:FF X:AF Y:E5 P:A5 SP:FB PPU:141,252
E815  24 01     BIT $01 = C0                    A:F5 X:AF Y:E5 P:A5 SP:FB PPU:141,258
E817  18        CLC                             A:F5 X:AF Y:E5 P:E5 SP:FB PPU:141,267
E818  8F 49 05 *SAX $0549 = FF                  A:F5 X:AF Y:E5 P:E4 SP:FB PPU:141,273
E81B  EA        NOP                             A:F5 X:AF Y:E5 P:E4 SP:FB PPU:141,285
E81C  EA        NOP                             A:F5 X:AF Y:E5 P:E4 SP:FB PPU:141,291
E81D  EA        NOP                             A:F5 X:AF Y:E5 P:E4 SP:FB PPU:141,297
E81E  EA        NOP                             A:F5 X:AF Y:E5 P:E4 SP:FB PPU:141,303
E81F  F0 19     BEQ $E83A                       A:F5 X:AF Y:E5 P:E4 SP:FB PPU:141,309
E821  B0 17     BCS $E83A                       A:F5 X:AF Y:E5 P:E4 SP:FB PPU:141,315
E823  50 15     BVC $E83A                       A:F5 X:AF Y:E5 P:E4 SP:FB PPU:141,321
E825  10 13     BPL $E83A                       A:F5 X:AF Y:E5 P:E4 SP:FB PPU:141,327
E827  C9 F5     CMP #$F5                        A:F5 X:AF Y:E5 P:E4 SP:FB PPU:141,333
E829  D0 0F     BNE $E83A                       A:F5 X:AF Y:E5 P:67 SP:FB PPU:141,339
E82B  C0 E5     CPY #$E5                        A:F5 X:AF Y:E5 P:67 SP:FB PPU:142,  4
E82D  D0 0B     BNE $E83A                       A:F5 X:AF Y:E5 P:67 SP:FB PPU:142, 10
E82F  E0 AF     CPX #$AF                        A:F5 X:AF Y:E5 P:67 SP:FB PPU:142, 16
E831  D0 07     BNE $E83A                       A:F5 X:AF Y:E5 P:67 SP:FB PPU:142, 22
E833  AD 49 05  LDA $0549 = A5                  A:F5 X:AF Y:E5 P:67 SP:FB PPU:142, 28
E836  C9 A5     CMP #$A5                        A:A5 X:AF Y:E5 P:E5 SP:FB PPU:142, 40
E838  F0 04     BEQ $E83E                       A:A5 X:AF Y:E5 P:67 SP:FB PPU:142, 46
E83E  A9 00     LDA #$00                        A:A5 X:AF Y:E5 P:67 SP:FB PPU:142, 55
E840  8D 56 05  STA $0556 = 00                  A:00 X:AF Y:E5 P:67 SP:FB PPU:142, 61
E843  A0 58     LDY #$58                        A:00 X:AF Y:E5 P:67 SP:FB PPU:142, 73
E845  A2 B3     LDX #$B3                        A:00 X:AF Y:58 P:65 SP:FB PPU:142, 79
E847  A9 97     LDA #$97                        A:00 X:B3 Y:58 P:E5 SP:FB PPU:142, 85
E849  38        SEC                             A:97 X:B3 Y:58 P:E5 SP:FB PPU:142, 91
E84A  B8        CLV                             A:97 X:B3 Y:58 P:E5 SP:FB PPU:142, 97
E84B  8F 56 05 *SAX $0556 = 00                  A:97 X:B3 Y:58 P:A5 SP:FB PPU:142,103
E84E  EA        NOP                             A:97 X:B3 Y:58 P:A5 SP:FB PPU:142,115
E84F  EA        NOP                             A:97 X:B3 Y:58 P:A5 SP:FB PPU:142,121
E850  EA        NOP                             A:97 X:B3 Y:58 P:A5 SP:FB PPU:142,127
E851  EA        NOP                             A:97 X:B3 Y:58 P:A5 SP:FB PPU:142,133
E852  F0 19     BEQ $E86D                       A:97 X:B3 Y:58 P:A5 SP:FB PPU:142,139
E854  90 17     BCC $E86D                       A:97 X:B3 Y:58 P:A5 SP:FB PPU:142,145
E856  70 15     BVS $E86D                       A:97 X:B3 Y:58 P:A5 SP:FB PPU:142,151
E858  10 13     BPL $E86D                       A:97 X:B3 Y:58 P:A5 SP:FB PPU:142,157
E85A  C9 97     CMP #$97                        A:97 X:B3 Y:58 P:A5 SP:FB PPU:142,163
E85C  D0 0F     BNE $E86D                       A:97 X:B3 Y:58 P:27 SP:FB PPU:142,169
E85E  C0 58     CPY #$58                        A:97 X:B3 Y:58 P:27 SP:FB PPU:142,175
E860  D0 0B     BNE $E86D                       A:97 X:B3 Y:58 P:27 SP:FB PPU:142,181
E862  E0 B3     CPX #$B3                        A:97 X:B3 Y:58 P:27 SP:FB PPU:142,187
E864  D0 07     BNE $E86D                       A:97 X:B3 Y:58 P:27 SP:FB PPU:142,193
E866  AD 56 05  LDA $0556 = 93                  A:97 X:B3 Y:58 P:27 SP:FB PPU:142,199
E869  C9 93     CMP #$93                        A:93 X:B3 Y:58 P:A5 SP:FB PPU:142,211
E86B  F0 04     BEQ $E871                       A:93 X:B3 Y:58 P:27 SP:FB PPU:142,217
E871  A9 FF     LDA #$FF                        A:93 X:B3 Y:58 P:27 SP:FB PPU:142,226
E873  85 49     STA $49 = 00                    A:FF X:B3 Y:58 P:A5 SP:FB PPU:142,232
E875  A0 FF     LDY #$FF                        A:FF X:B3 Y:58 P:A5 SP:FB PPU:142,241
E877  A2 AA     LDX #$AA                        A:FF X:B3 Y:FF P:A5 SP:FB PPU:142,247
E879  A9 55     LDA #$55                        A:FF X:AA Y:FF P:A5 SP:FB PPU:142,253
E87B  24 01     BIT $01 = C0                    A:55 X:AA Y:FF P:25 SP:FB PPU:142,259
E87D  18        CLC                             A:55 X:AA Y:FF P:E5 SP:FB PPU:142,268
E87E  97 4A    *SAX $4A,Y @ 49 = FF             A:55 X:AA Y:FF P:E4 SP:FB PPU:142,274
E880  EA        NOP                             A:55 X:AA Y:FF P:E4 SP:FB PPU:142,286
E881  EA        NOP                             A:55 X:AA Y:FF P:E4 SP:FB PPU:142,292
E882  EA        NOP                             A:55 X:AA Y:FF P:E4 SP:FB PPU:142,298
E883  EA        NOP                             A:55 X:AA Y:FF P:E4 SP:FB PPU:142,304
E884  F0 18     BEQ $E89E                       A:55 X:AA Y:FF P:E4 SP:FB PPU:142,310
E886  B0 16     BCS $E89E                       A:55 X:AA Y:FF P:E4 SP:FB PPU:142,316
E888  50 14     BVC $E89E                       A:55 X:AA Y:FF P:E4 SP:FB PPU:142,322
E88A  10 12     BPL $E89E                       A:55 X:AA Y:FF P:E4 SP:FB PPU:142,328
E88C  C9 55     CMP #$55                        A:55 X:AA Y:FF P:E4 SP:FB PPU:142,334
E88E  D0 0E     BNE $E89E                       A:55 X:AA Y:FF P:67 SP:FB PPU:142,340
E890  C0 FF     CPY #$FF                        A:55 X:AA Y:FF P:67 SP:FB PPU:143,  5
E892  D0 0A     BNE $E89E                       A:55 X:AA Y:FF P:67 SP:FB PPU:143, 11
E894  E0 AA     CPX #$AA                        A:55 X:AA Y:FF P:67 SP:FB PPU:143, 17
E896  D0 06     BNE $E89E                       A:55 X:AA Y:FF P:67 SP:FB PPU:143, 23
E898  A5 49     LDA $49 = 00                    A:55 X:AA Y:FF P:67 SP:FB PPU:143, 29
E89A  C9 00     CMP #$00                        A:00 X:AA Y:FF P:67 SP:FB PPU:143, 38
E89C  F0 04     BEQ $E8A2                       A:00 X:AA Y:FF P:67 SP:FB PPU:143, 44
E8A2  A9 00     LDA #$00                        A:00 X:AA Y:FF P:67 SP:FB PPU:143, 53
E8A4  85 56     STA $56 = 66                    A:00 X:AA Y:FF P:67 SP:FB PPU:143, 59
E8A6  A0 06     LDY #$06                        A:00 X:AA Y:FF P:67 SP:FB PPU:143, 68
E8A8  A2 EF     LDX #$EF                        A:00 X:AA Y:06 P:65 SP:FB PPU:143, 74
E8AA  A9 66     LDA #$66                        A:00 X:EF Y:06 P:E5 SP:FB PPU:143, 80
E8AC  38        SEC                             A:66 X:EF Y:06 P:65 SP:FB PPU:143, 86
E8AD  B8        CLV                             A:66 X:EF Y:06 P:65 SP:FB PPU:143, 92
E8AE  97 50    *SAX $50,Y @ 56 = 00             A:66 X:EF Y:06 P:25 SP:FB PPU:143, 98
E8B0  EA        NOP                             A:66 X:EF Y:06 P:25 SP:FB PPU:143,110
E8B1  EA        NOP                             A:66 X:EF Y:06 P:25 SP:FB PPU:143,116
E8B2  EA        NOP                             A:66 X:EF Y:06 P:25 SP:FB PPU:143,122
E8B3  EA        NOP                             A:66 X:EF Y:06 P:25 SP:FB PPU:143,128
E8B4  F0 18     BEQ $E8CE                       A:66 X:EF Y:06 P:25 SP:FB PPU:143,134
E8B6  90 16     BCC $E8CE                       A:66 X:EF Y:06 P:25 SP:FB PPU:143,140
E8B8  70 14     BVS $E8CE                       A:66 X:EF Y:06 P:25 SP:FB PPU:143,146
E8BA  30 12     BMI $E8CE                       A:66 X:EF Y:06 P:25 SP:FB PPU:143,152
E8BC  C9 66     CMP #$66                        A:66 X:EF Y:06 P:25 SP:FB PPU:143,158
E8BE  D0 0E     BNE $E8CE                       A:66 X:EF Y:06 P:27 SP:FB PPU:143,164
E8C0  C0 06     CPY #$06                        A:66 X:EF Y:06 P:27 SP:FB PPU:143,170
E8C2  D0 0A     BNE $E8CE                       A:66 X:EF Y:06 P:27 SP:FB PPU:143,176
E8C4  E0 EF     CPX #$EF                        A:66 X:EF Y:06 P:27 SP:FB PPU:143,182
E8C6  D0 06     BNE $E8CE                       A:66 X:EF Y:06 P:27 SP:FB PPU:143,188
E8C8  A5 56     LDA $56 = 66                    A:66 X:EF Y:06 P:27 SP:FB PPU:143,194
E8CA  C9 66     CMP #$66                        A:66 X:EF Y:06 P:25 SP:FB PPU:143,203
E8CC  F0 04     BEQ $E8D2                       A:66 X:EF Y:06 P:27 SP:FB PPU:143,209
E8D2  60        RTS                             A:66 X:EF Y:06 P:27 SP:FB PPU:143,218
C638  20 D3 E8  JSR $E8D3                       A:66 X:EF Y:06 P:27 SP:FD PPU:143,236
E8D3  A0 90     LDY #$90                        A:66 X:EF Y:06 P:27 SP:FB PPU:143,254
E8D5  20 31 F9  JSR $F931                       A:66 X:EF Y:90 P:A5 SP:FB PPU:143,260
F931  24 01     BIT $01 = C0                    A:66 X:EF Y:90 P:A5 SP:F9 PPU:143,278
F933  A9 40     LDA #$40                        A:66 X:EF Y:90 P:E5 SP:F9 PPU:143,287
F935  38        SEC                             A:40 X:EF Y:90 P:65 SP:F9 PPU:143,293
F936  60        RTS                             A:40 X:EF Y:90 P:65 SP:F9 PPU:143,299
E8D8  EB 40    *SBC #$40                        A:40 X:EF Y:90 P:65 SP:FB PPU:143,317
E8DA  EA        NOP                             A:00 X:EF Y:90 P:27 SP:FB PPU:143,323
E8DB  EA        NOP                             A:00 X:EF Y:90 P:27 SP:FB PPU:143,329
E8DC  EA        NOP                             A:00 X:EF Y:90 P:27 SP:FB PPU:143,335
E8DD  EA        NOP                             A:00 X:EF Y:90 P:27 SP:FB PPU:144,  0
E8DE  20 37 F9  JSR $F937                       A:00 X:EF Y:90 P:27 SP:FB PPU:144,  6
F937  30 0B     BMI $F944                       A:00 X:EF Y:90 P:27 SP:F9 PPU:144, 24
F939  90 09     BCC $F944                       A:00 X:EF Y:90 P:27 SP:F9 PPU:144, 30
F93B  D0 07     BNE $F944                       A:00 X:EF Y:90 P:27 SP:F9 PPU:144, 36
F93D  70 05     BVS $F944                       A:00 X:EF Y:90 P:27 SP:F9 PPU:144, 42
F93F  C9 00     CMP #$00                        A:00 X:EF Y:90 P:27 SP:F9 PPU:144, 48
F941  D0 01     BNE $F944                       A:00 X:EF Y:90 P:27 SP:F9 PPU:144, 54
F943  60        RTS                             A:00 X:EF Y:90 P:27 SP:F9 PPU:144, 60
E8E1  C8        INY                             A:00 X:EF Y:90 P:27 SP:FB PPU:144, 78
E8E2  20 47 F9  JSR $F947                       A:00 X:EF Y:91 P:A5 SP:FB PPU:144, 84
F947  B8        CLV                             A:00 X:EF Y:91 P:A5 SP:F9 PPU:144,102
F948  38        SEC                             A:00 X:EF Y:91 P:A5 SP:F9 PPU:144,108
F949  A9 40     LDA #$40                        A:00 X:EF Y:91 P:A5 SP:F9 PPU:144,114
F94B  60        RTS                             A:40 X:EF Y:91 P:25 SP:F9 PPU:144,120
E8E5  EB 3F    *SBC #$3F                        A:40 X:EF Y:91 P:25 SP:FB PPU:144,138
E8E7  EA        NOP                             A:01 X:EF Y:91 P:25 SP:FB PPU:144,144
E8E8  EA        NOP                             A:01 X:EF Y:91 P:25 SP:FB PPU:144,150
E8E9  EA        NOP                             A:01 X:EF Y:91 P:25 SP:FB PPU:144,156
E8EA  EA        NOP                             A:01 X:EF Y:91 P:25 SP:FB PPU:144,162
E8EB  20 4C F9  JSR $F94C                       A:01 X:EF Y:91 P:25 SP:FB PPU:144,168
F94C  F0 0B     BEQ $F959                       A:01 X:EF Y:91 P:25 SP:F9 PPU:144,186
F94E  30 09     BMI $F959                       A:01 X:EF Y:91 P:25 SP:F9 PPU:144,192
F950  90 07     BCC $F959                       A:01 X:EF Y:91 P:25 SP:F9 PPU:144,198
F952  70 05     BVS $F959                       A:01 X:EF Y:91 P:25 SP:F9 PPU:144,204
F954  C9 01     CMP #$01                        A:01 X:EF Y:91 P:25 SP:F9 PPU:144,210
F956  D0 01     BNE $F959                       A:01 X:EF Y:91 P:27 SP:F9 PPU:144,216
F958  60        RTS                             A:01 X:EF Y:91 P:27 SP:F9 PPU:144,222
E8EE  C8        INY                             A:01 X:EF Y:91 P:27 SP:FB PPU:144,240
E8EF  20 5C F9  JSR $F95C                       A:01 X:EF Y:92 P:A5 SP:FB PPU:144,246
F95C  A9 40     LDA #$40                        A:01 X:EF Y:92 P:A5 SP:F9 PPU:144,264
F95E  38        SEC                             A:40 X:EF Y:92 P:25 SP:F9 PPU:144,270
F95F  24 01     BIT $01 = C0                    A:40 X:EF Y:92 P:25 SP:F9 PPU:144,276
F961  60        RTS                             A:40 X:EF Y:92 P:E5 SP:F9 PPU:144,285
E8F2  EB 41    *SBC #$41                        A:40 X:EF Y:92 P:E5 SP:FB PPU:144,303
E8F4  EA        NOP                             A:FF X:EF Y:92 P:A4 SP:FB PPU:144,309
E8F5  EA        NOP                             A:FF X:EF Y:92 P:A4 SP:FB PPU:144,315
E8F6  EA        NOP                             A:FF X:EF Y:92 P:A4 SP:FB PPU:144,321
E8F7  EA        NOP                             A:FF X:EF Y:92 P:A4 SP:FB PPU:144,327
E8F8  20 62 F9  JSR $F962                       A:FF X:EF Y:92 P:A4 SP:FB PPU:144,333
F962  B0 0B     BCS $F96F                       A:FF X:EF Y:92 P:A4 SP:F9 PPU:145, 10
F964  F0 09     BEQ $F96F                       A:FF X:EF Y:92 P:A4 SP:F9 PPU:145, 16
F966  10 07     BPL $F96F                       A:FF X:EF Y:92 P:A4 SP:F9 PPU:145, 22
F968  70 05     BVS $F96F                       A:FF X:EF Y:92 P:A4 SP:F9 PPU:145, 28
F96A  C9 FF     CMP #$FF                        A:FF X:EF Y:92 P:A4 SP:F9 PPU:145, 34
F96C  D0 01     BNE $F96F                       A:FF X:EF Y:92 P:27 SP:F9 PPU:145, 40
F96E  60        RTS                             A:FF X:EF Y:92 P:27 SP:F9 PPU:145, 46
E8FB  C8        INY                             A:FF X:EF Y:92 P:27 SP:FB PPU:145, 64
E8FC  20 72 F9  JSR $F972                       A:FF X:EF Y:93 P:A5 SP:FB PPU:145, 70
F972  18        CLC                             A:FF X:EF Y:93 P:A5 SP:F9 PPU:145, 88
F973  A9 80     LDA #$80                        A:FF X:EF Y:93 P:A4 SP:F9 PPU:145, 94
F975  60        RTS                             A:80 X:EF Y:93 P:A4 SP:F9 PPU:145,100
E8FF  EB 00    *SBC #$00                        A:80 X:EF Y:93 P:A4 SP:FB PPU:145,118
E901  EA        NOP                             A:7F X:EF Y:93 P:65 SP:FB PPU:145,124
E902  EA        NOP                             A:7F X:EF Y:93 P:65 SP:FB PPU:145,130
E903  EA        NOP                             A:7F X:EF Y:93 P:65 SP:FB PPU:145,136
E904  EA        NOP                             A:7F X:EF Y:93 P:65 SP:FB PPU:145,142
E905  20 76 F9  JSR $F976                       A:7F X:EF Y:93 P:65 SP:FB PPU:145,148
F976  90 05     BCC $F97D                       A:7F X:EF Y:93 P:65 SP:F9 PPU:145,166
F978  C9 7F     CMP #$7F                        A:7F X:EF Y:93 P:65 SP:F9 PPU:145,172
F97A  D0 01     BNE $F97D                       A:7F X:EF Y:93 P:67 SP:F9 PPU:145,178
F97C  60        RTS                             A:7F X:EF Y:93 P:67 SP:F9 PPU:145,184
E908  C8        INY                             A:7F X:EF Y:93 P:67 SP:FB PPU:145,202
E909  20 80 F9  JSR $F980                       A:7F X:EF Y:94 P:E5 SP:FB PPU:145,208
F980  38        SEC                             A:7F X:EF Y:94 P:E5 SP:F9 PPU:145,226
F981  A9 81     LDA #$81                        A:7F X:EF Y:94 P:E5 SP:F9 PPU:145,232
F983  60        RTS                             A:81 X:EF Y:94 P:E5 SP:F9 PPU:145,238
E90C  EB 7F    *SBC #$7F                        A:81 X:EF Y:94 P:E5 SP:FB PPU:145,256
E90E  EA        NOP                             A:02 X:EF Y:94 P:65 SP:FB PPU:145,262
E90F  EA        NOP                             A:02 X:EF Y:94 P:65 SP:FB PPU:145,268
E910  EA        NOP                             A:02 X:EF Y:94 P:65 SP:FB PPU:145,274
E911  EA        NOP                             A:02 X:EF Y:94 P:65 SP:FB PPU:145,280
E912  20 84 F9  JSR $F984                       A:02 X:EF Y:94 P:65 SP:FB PPU:145,286
F984  50 07     BVC $F98D                       A:02 X:EF Y:94 P:65 SP:F9 PPU:145,304
F986  90 05     BCC $F98D                       A:02 X:EF Y:94 P:65 SP:F9 PPU:145,310
F988  C9 02     CMP #$02                        A:02 X:EF Y:94 P:65 SP:F9 PPU:145,316
F98A  D0 01     BNE $F98D                       A:02 X:EF Y:94 P:67 SP:F9 PPU:145,322
F98C  60        RTS                             A:02 X:EF Y:94 P:67 SP:F9 PPU:145,328
E915  60        RTS                             A:02 X:EF Y:94 P:67 SP:FB PPU:146,  5
C63B  20 16 E9  JSR $E916                       A:02 X:EF Y:94 P:67 SP:FD PPU:146, 23
E916  A9 FF     LDA #$FF                        A:02 X:EF Y:94 P:67 SP:FB PPU:146, 41
E918  85 01     STA $01 = C0                    A:FF X:EF Y:94 P:E5 SP:FB PPU:146, 47
E91A  A0 95     LDY #$95                        A:FF X:EF Y:94 P:E5 SP:FB PPU:146, 56
E91C  A2 02     LDX #$02                        A:FF X:EF Y:95 P:E5 SP:FB PPU:146, 62
E91E  A9 47     LDA #$47                        A:FF X:02 Y:95 P:65 SP:FB PPU:146, 68
E920  85 47     STA $47 = 00                    A:47 X:02 Y:95 P:65 SP:FB PPU:146, 74
E922  A9 06     LDA #$06                        A:47 X:02 Y:95 P:65 SP:FB PPU:146, 83
E924  85 48     STA $48 = 00                    A:06 X:02 Y:95 P:65 SP:FB PPU:146, 89
E926  A9 EB     LDA #$EB                        A:06 X:02 Y:95 P:65 SP:FB PPU:146, 98
E928  8D 47 06  STA $0647 = 00                  A:EB X:02 Y:95 P:E5 SP:FB PPU:146,104
E92B  20 31 FA  JSR $FA31                       A:EB X:02 Y:95 P:E5 SP:FB PPU:146,116
FA31  24 01     BIT $01 = FF                    A:EB X:02 Y:95 P:E5 SP:F9 PPU:146,134
FA33  18        CLC                             A:EB X:02 Y:95 P:E5 SP:F9 PPU:146,143
FA34  A9 40     LDA #$40                        A:EB X:02 Y:95 P:E4 SP:F9 PPU:146,149
FA36  60        RTS                             A:40 X:02 Y:95 P:64 SP:F9 PPU:146,155
E92E  C3 45    *DCP ($45,X) @ 47 = 0647 = EB    A:40 X:02 Y:95 P:64 SP:FB PPU:146,173
E930  EA        NOP                             A:40 X:02 Y:95 P:64 SP:FB PPU:146,197
E931  EA        NOP                             A:40 X:02 Y:95 P:64 SP:FB PPU:146,203
E932  EA        NOP                             A:40 X:02 Y:95 P:64 SP:FB PPU:146,209
E933  EA        NOP                             A:40 X:02 Y:95 P:64 SP:FB PPU:146,215
E934  20 37 FA  JSR $FA37                       A:40 X:02 Y:95 P:64 SP:FB PPU:146,221
FA37  50 2C     BVC $FA65                       A:40 X:02 Y:95 P:64 SP:F9 PPU:146,239
FA39  B0 2A     BCS $FA65                       A:40 X:02 Y:95 P:64 SP:F9 PPU:146,245
FA3B  30 28     BMI $FA65                       A:40 X:02 Y:95 P:64 SP:F9 PPU:146,251
FA3D  C9 40     CMP #$40                        A:40 X:02 Y:95 P:64 SP:F9 PPU:146,257
FA3F  D0 24     BNE $FA65                       A:40 X:02 Y:95 P:67 SP:F9 PPU:146,263
FA41  60        RTS                             A:40 X:02 Y:95 P:67 SP:F9 PPU:146,269
E937  AD 47 06  LDA $0647 = EA                  A:40 X:02 Y:95 P:67 SP:FB PPU:146,287
E93A  C9 EA     CMP #$EA                        A:EA X:02 Y:95 P:E5 SP:FB PPU:146,299
E93C  F0 02     BEQ $E940                       A:EA X:02 Y:95 P:67 SP:FB PPU:146,305
E940  C8        INY                             A:EA X:02 Y:95 P:67 SP:FB PPU:146,314
E941  A9 00     LDA #$00                        A:EA X:02 Y:96 P:E5 SP:FB PPU:146,320
E943  8D 47 06  STA $0647 = EA                  A:00 X:02 Y:96 P:67 SP:FB PPU:146,326
E946  20 42 FA  JSR $FA42                       A:00 X:02 Y:96 P:67 SP:FB PPU:146,338
FA42  B8        CLV                             A:00 X:02 Y:96 P:67 SP:F9 PPU:147, 15
FA43  38        SEC                             A:00 X:02 Y:96 P:27 SP:F9 PPU:147, 21
FA44  A9 FF     LDA #$FF                        A:00 X:02 Y:96 P:27 SP:F9 PPU:147, 27
FA46  60        RTS                             A:FF X:02 Y:96 P:A5 SP:F9 PPU:147, 33
E949  C3 45    *DCP ($45,X) @ 47 = 0647 = 00    A:FF X:02 Y:96 P:A5 SP:FB PPU:147, 51
E94B  EA        NOP                             A:FF X:02 Y:96 P:27 SP:FB PPU:147, 75
E94C  EA        NOP                             A:FF X:02 Y:96 P:27 SP:FB PPU:147, 81
E94D  EA        NOP                             A:FF X:02 Y:96 P:27 SP:FB PPU:147, 87
E94E  EA        NOP                             A:FF X:02 Y:96 P:27 SP:FB PPU:147, 93
E94F  20 47 FA  JSR $FA47                       A:FF X:02 Y:96 P:27 SP:FB PPU:147, 99
FA47  70 1C     BVS $FA65                       A:FF X:02 Y:96 P:27 SP:F9 PPU:147,117
FA49  D0 1A     BNE $FA65                       A:FF X:02 Y:96 P:27 SP:F9 PPU:147,123
FA4B  30 18     BMI $FA65                       A:FF X:02 Y:96 P:27 SP:F9 PPU:147,129
FA4D  90 16     BCC $FA65                       A:FF X:02 Y:96 P:27 SP:F9 PPU:147,135
FA4F  C9 FF     CMP #$FF                        A:FF X:02 Y:96 P:27 SP:F9 PPU:147,141
FA51  D0 12     BNE $FA65                       A:FF X:02 Y:96 P:27 SP:F9 PPU:147,147
FA53  60        RTS                             A:FF X:02 Y:96 P:27 SP:F9 PPU:147,153
E952  AD 47 06  LDA $0647 = FF                  A:FF X:02 Y:96 P:27 SP:FB PPU:147,171
E955  C9 FF     CMP #$FF                        A:FF X:02 Y:96 P:A5 SP:FB PPU:147,183
E957  F0 02     BEQ $E95B                       A:FF X:02 Y:96 P:27 SP:FB PPU:147,189
E95B  C8        INY                             A:FF X:02 Y:96 P:27 SP:FB PPU:147,198
E95C  A9 37     LDA #$37                        A:FF X:02 Y:97 P:A5 SP:FB PPU:147,204
E95E  8D 47 06  STA $0647 = FF                  A:37 X:02 Y:97 P:25 SP:FB PPU:147,210
E961  20 54 FA  JSR $FA54                       A:37 X:02 Y:97 P:25 SP:FB PPU:147,222
FA54  24 01     BIT $01 = FF                    A:37 X:02 Y:97 P:25 SP:F9 PPU:147,240
FA56  A9 F0     LDA #$F0                        A:37 X:02 Y:97 P:E5 SP:F9 PPU:147,249
FA58  60        RTS                             A:F0 X:02 Y:97 P:E5 SP:F9 PPU:147,255
E964  C3 45    *DCP ($45,X) @ 47 = 0647 = 37    A:F0 X:02 Y:97 P:E5 SP:FB PPU:147,273
E966  EA        NOP                             A:F0 X:02 Y:97 P:E5 SP:FB PPU:147,297
E967  EA        NOP                             A:F0 X:02 Y:97 P:E5 SP:FB PPU:147,303
E968  EA        NOP                             A:F0 X:02 Y:97 P:E5 SP:FB PPU:147,309
E969  EA        NOP                             A:F0 X:02 Y:97 P:E5 SP:FB PPU:147,315
E96A  20 59 FA  JSR $FA59                       A:F0 X:02 Y:97 P:E5 SP:FB PPU:147,321
FA59  50 0A     BVC $FA65                       A:F0 X:02 Y:97 P:E5 SP:F9 PPU:147,339
FA5B  F0 08     BEQ $FA65                       A:F0 X:02 Y:97 P:E5 SP:F9 PPU:148,  4
FA5D  10 06     BPL $FA65                       A:F0 X:02 Y:97 P:E5 SP:F9 PPU:148, 10
FA5F  90 04     BCC $FA65                       A:F0 X:02 Y:97 P:E5 SP:F9 PPU:148, 16
FA61  C9 F0     CMP #$F0                        A:F0 X:02 Y:97 P:E5 SP:F9 PPU:148, 22
FA63  F0 02     BEQ $FA67                       A:F0 X:02 Y:97 P:67 SP:F9 PPU:148, 28
FA67  60        RTS                             A:F0 X:02 Y:97 P:67 SP:F9 PPU:148, 37
E96D  AD 47 06  LDA $0647 = 36                  A:F0 X:02 Y:97 P:67 SP:FB PPU:148, 55
E970  C9 36     CMP #$36                        A:36 X:02 Y:97 P:65 SP:FB PPU:148, 67
E972  F0 02     BEQ $E976                       A:36 X:02 Y:97 P:67 SP:FB PPU:148, 73
E976  C8        INY                             A:36 X:02 Y:97 P:67 SP:FB PPU:148, 82
E977  A9 EB     LDA #$EB                        A:36 X:02 Y:98 P:E5 SP:FB PPU:148, 88
E979  85 47     STA $47 = 47                    A:EB X:02 Y:98 P:E5 SP:FB PPU:148, 94
E97B  20 31 FA  JSR $FA31                       A:EB X:02 Y:98 P:E5 SP:FB PPU:148,103
FA31  24 01     BIT $01 = FF                    A:EB X:02 Y:98 P:E5 SP:F9 PPU:148,121
FA33  18        CLC                             A:EB X:02 Y:98 P:E5 SP:F9 PPU:148,130
FA34  A9 40     LDA #$40                        A:EB X:02 Y:98 P:E4 SP:F9 PPU:148,136
FA36  60        RTS                             A:40 X:02 Y:98 P:64 SP:F9 PPU:148,142
E97E  C7 47    *DCP $47 = EB                    A:40 X:02 Y:98 P:64 SP:FB PPU:148,160
E980  EA        NOP                             A:40 X:02 Y:98 P:64 SP:FB PPU:148,175
E981  EA        NOP                             A:40 X:02 Y:98 P:64 SP:FB PPU:148,181
E982  EA        NOP                             A:40 X:02 Y:98 P:64 SP:FB PPU:148,187
E983  EA        NOP                             A:40 X:02 Y:98 P:64 SP:FB PPU:148,193
E984  20 37 FA  JSR $FA37                       A:40 X:02 Y:98 P:64 SP:FB PPU:148,199
FA37  50 2C     BVC $FA65                       A:40 X:02 Y:98 P:64 SP:F9 PPU:148,217
FA39  B0 2A     BCS $FA65                       A:40 X:02 Y:98 P:64 SP:F9 PPU:148,223
FA3B  30 28     BMI $FA65                       A:40 X:02 Y:98 P:64 SP:F9 PPU:148,229
FA3D  C9 40     CMP #$40                        A:40 X:02 Y:98 P:64 SP:F9 PPU:148,235
FA3F  D0 24     BNE $FA65                       A:40 X:02 Y:98 P:67 SP:F9 PPU:148,241
FA41  60        RTS                             A:40 X:02 Y:98 P:67 SP:F9 PPU:148,247
E987  A5 47     LDA $47 = EA                    A:40 X:02 Y:98 P:67 SP:FB PPU:148,265
E989  C9 EA     CMP #$EA                        A:EA X:02 Y:98 P:E5 SP:FB PPU:148,274
E98B  F0 02     BEQ $E98F                       A:EA X:02 Y:98 P:67 SP:FB PPU:148,280
E98F  C8        INY                             A:EA X:02 Y:98 P:67 SP:FB PPU:148,289
E990  A9 00     LDA #$00                        A:EA X:02 Y:99 P:E5 SP:FB PPU:148,295
E992  85 47     STA $47 = EA                    A:00 X:02 Y:99 P:67 SP:FB PPU:148,301
E994  20 42 FA  JSR $FA42                       A:00 X:02 Y:99 P:67 SP:FB PPU:148,310
FA42  B8        CLV                             A:00 X:02 Y:99 P:67 SP:F9 PPU:148,328
FA43  38        SEC                             A:00 X:02 Y:99 P:27 SP:F9 PPU:148,334
FA44  A9 FF     LDA #$FF                        A:00 X:02 Y:99 P:27 SP:F9 PPU:148,340
FA46  60        RTS                             A:FF X:02 Y:99 P:A5 SP:F9 PPU:149,  5
E997  C7 47    *DCP $47 = 00                    A:FF X:02 Y:99 P:A5 SP:FB PPU:149, 23
E999  EA        NOP                             A:FF X:02 Y:99 P:27 SP:FB PPU:149, 38
E99A  EA        NOP                             A:FF X:02 Y:99 P:27 SP:FB PPU:149, 44
E99B  EA        NOP                             A:FF X:02 Y:99 P:27 SP:FB PPU:149, 50
E99C  EA        NOP                             A:FF X:02 Y:99 P:27 SP:FB PPU:149, 56
E99D  20 47 FA  JSR $FA47                       A:FF X:02 Y:99 P:27 SP:FB PPU:149, 62
FA47  70 1C     BVS $FA65                       A:FF X:02 Y:99 P:27 SP:F9 PPU:149, 80
FA49  D0 1A     BNE $FA65                       A:FF X:02 Y:99 P:27 SP:F9 PPU:149, 86
FA4B  30 18     BMI $FA65                       A:FF X:02 Y:99 P:27 SP:F9 PPU:149, 92
FA4D  90 16     BCC $FA65                       A:FF X:02 Y:99 P:27 SP:F9 PPU:149, 98
FA4F  C9 FF     CMP #$FF                        A:FF X:02 Y:99 P:27 SP:F9 PPU:149,104
FA51  D0 12     BNE $FA65                       A:FF X:02 Y:99 P:27 SP:F9 PPU:149,110
FA53  60        RTS                             A:FF X:02 Y:99 P:27 SP:F9 PPU:149,116
E9A0  A5 47     LDA $47 = FF                    A:FF X:02 Y:99 P:27 SP:FB PPU:149,134
E9A2  C9 FF     CMP #$FF                        A:FF X:02 Y:99 P:A5 SP:FB PPU:149,143
E9A4  F0 02     BEQ $E9A8                       A:FF X:02 Y:99 P:27 SP:FB PPU:149,149
E9A8  C8        INY                             A:FF X:02 Y:99 P:27 SP:FB PPU:149,158
E9A9  A9 37     LDA #$37                        A:FF X:02 Y:9A P:A5 SP:FB PPU:149,164
E9AB  85 47     STA $47 = FF                    A:37 X:02 Y:9A P:25 SP:FB PPU:149,170
E9AD  20 54 FA  JSR $FA54                       A:37 X:02 Y:9A P:25 SP:FB PPU:149,179
FA54  24 01     BIT $01 = FF                    A:37 X:02 Y:9A P:25 SP:F9 PPU:149,197
FA56  A9 F0     LDA #$F0                        A:37 X:02 Y:9A P:E5 SP:F9 PPU:149,206
FA58  60        RTS                             A:F0 X:02 Y:9A P:E5 SP:F9 PPU:149,212
E9B0  C7 47    *DCP $47 = 37                    A:F0 X:02 Y:9A P:E5 SP:FB PPU:149,230
E9B2  EA        NOP                             A:F0 X:02 Y:9A P:E5 SP:FB PPU:149,245
E9B3  EA        NOP                             A:F0 X:02 Y:9A P:E5 SP:FB PPU:149,251
E9B4  EA        NOP                             A:F0 X:02 Y:9A P:E5 SP:FB PPU:149,257
E9B5  EA        NOP                             A:F0 X:02 Y:9A P:E5 SP:FB PPU:149,263
E9B6  20 59 FA  JSR $FA59                       A:F0 X:02 Y:9A P:E5 SP:FB PPU:149,269
FA59  50 0A     BVC $FA65                       A:F0 X:02 Y:9A P:E5 SP:F9 PPU:149,287
FA5B  F0 08     BEQ $FA65                       A:F0 X:02 Y:9A P:E5 SP:F9 PPU:149,293
FA5D  10 06     BPL $FA65                       A:F0 X:02 Y:9A P:E5 SP:F9 PPU:149,299
FA5F  90 04     BCC $FA65                       A:F0 X:02 Y:9A P:E5 SP:F9 PPU:149,305
FA61  C9 F0     CMP #$F0                        A:F0 X:02 Y:9A P:E5 SP:F9 PPU:149,311
FA63  F0 02     BEQ $FA67                       A:F0 X:02 Y:9A P:67 SP:F9 PPU:149,317
FA67  60        RTS                             A:F0 X:02 Y:9A P:67 SP:F9 PPU:149,326
E9B9  A5 47     LDA $47 = 36                    A:F0 X:02 Y:9A P:67 SP:FB PPU:150,  3
E9BB  C9 36     CMP #$36                        A:36 X:02 Y:9A P:65 SP:FB PPU:150, 12
E9BD  F0 02     BEQ $E9C1                       A:36 X:02 Y:9A P:67 SP:FB PPU:150, 18
E9C1  C8        INY                             A:36 X:02 Y:9A P:67 SP:FB PPU:150, 27
E9C2  A9 EB     LDA #$EB                        A:36 X:02 Y:9B P:E5 SP:FB PPU:150, 33
E9C4  8D 47 06  STA $0647 = 36                  A:EB X:02 Y:9B P:E5 SP:FB PPU:150, 39
E9C7  20 31 FA  JSR $FA31                       A:EB X:02 Y:9B P:E5 SP:FB PPU:150, 51
FA31  24 01     BIT $01 = FF                    A:EB X:02 Y:9B P:E5 SP:F9 PPU:150, 69
FA33  18        CLC                             A:EB X:02 Y:9B P:E5 SP:F9 PPU:150, 78
FA34  A9 40     LDA #$40                        A:EB X:02 Y:9B P:E4 SP:F9 PPU:150, 84
FA36  60        RTS                             A:40 X:02 Y:9B P:64 SP:F9 PPU:150, 90
E9CA  CF 47 06 *DCP $0647 = EB                  A:40 X:02 Y:9B P:64 SP:FB PPU:150,108
E9CD  EA        NOP                             A:40 X:02 Y:9B P:64 SP:FB PPU:150,126
E9CE  EA        NOP                             A:40 X:02 Y:9B P:64 SP:FB PPU:150,132
E9CF  EA        NOP                             A:40 X:02 Y:9B P:64 SP:FB PPU:150,138
E9D0  EA        NOP                             A:40 X:02 Y:9B P:64 SP:FB PPU:150,144
E9D1  20 37 FA  JSR $FA37                       A:40 X:02 Y:9B P:64 SP:FB PPU:150,150
FA37  50 2C     BVC $FA65                       A:40 X:02 Y:9B P:64 SP:F9 PPU:150,168
FA39  B0 2A     BCS $FA65                       A:40 X:02 Y:9B P:64 SP:F9 PPU:150,174
FA3B  30 28     BMI $FA65                       A:40 X:02 Y:9B P:64 SP:F9 PPU:150,180
FA3D  C9 40     CMP #$40                        A:40 X:02 Y:9B P:64 SP:F9 PPU:150,186
FA3F  D0 24     BNE $FA65                       A:40 X:02 Y:9B P:67 SP:F9 PPU:150,192
FA41  60        RTS                             A:40 X:02 Y:9B P:67 SP:F9 PPU:150,198
E9D4  AD 47 06  LDA $0647 = EA                  A:40 X:02 Y:9B P:67 SP:FB PPU:150,216
E9D7  C9 EA     CMP #$EA                        A:EA X:02 Y:9B P:E5 SP:FB PPU:150,228
E9D9  F0 02     BEQ $E9DD                       A:EA X:02 Y:9B P:67 SP:FB PPU:150,234
E9DD  C8        INY                             A:EA X:02 Y:9B P:67 SP:FB PPU:150,243
E9DE  A9 00     LDA #$00                        A:EA X:02 Y:9C P:E5 SP:FB PPU:150,249
E9E0  8D 47 06  STA $0647 = EA                  A:00 X:02 Y:9C P:67 SP:FB PPU:150,255
E9E3  20 42 FA  JSR $FA42                       A:00 X:02 Y:9C P:67 SP:FB PPU:150,267
FA42  B8        CLV                             A:00 X:02 Y:9C P:67 SP:F9 PPU:150,285
FA43  38        SEC                             A:00 X:02 Y:9C P:27 SP:F9 PPU:150,291
FA44  A9 FF     LDA #$FF                        A:00 X:02 Y:9C P:27 SP:F9 PPU:150,297
FA46  60        RTS                             A:FF X:02 Y:9C P:A5 SP:F9 PPU:150,303
E9E6  CF 47 06 *DCP $0647 = 00                  A:FF X:02 Y:9C P:A5 SP:FB PPU:150,321
E9E9  EA        NOP                             A:FF X:02 Y:9C P:27 SP:FB PPU:150,339
E9EA  EA        NOP                             A:FF X:02 Y:9C P:27 SP:FB PPU:151,  4
E9EB  EA        NOP                             A:FF X:02 Y:9C P:27 SP:FB PPU:151, 10
E9EC  EA        NOP                             A:FF X:02 Y:9C P:27 SP:FB PPU:151, 16
E9ED  20 47 FA  JSR $FA47                       A:FF X:02 Y:9C P:27 SP:FB PPU:151, 22
FA47  70 1C     BVS $FA65                       A:FF X:02 Y:9C P:27 SP:F9 PPU:151, 40
FA49  D0 1A     BNE $FA65                       A:FF X:02 Y:9C P:27 SP:F9 PPU:151, 46
FA4B  30 18     BMI $FA65                       A:FF X:02 Y:9C P:27 SP:F9 PPU:151, 52
FA4D  90 16     BCC $FA65                       A:FF X:02 Y:9C P:27 SP:F9 PPU:151, 58
FA4F  C9 FF     CMP #$FF                        A:FF X:02 Y:9C P:27 SP:F9 PPU:151, 64
FA51  D0 12     BNE $FA65                       A:FF X:02 Y:9C P:27 SP:F9 PPU:151, 70
FA53  60        RTS                             A:FF X:02 Y:9C P:27 SP:F9 PPU:151, 76
E9F0  AD 47 06  LDA $0647 = FF                  A:FF X:02 Y:9C P:27 SP:FB PPU:151, 94
E9F3  C9 FF     CMP #$FF                        A:FF X:02 Y:9C P:A5 SP:FB PPU:151,106
E9F5  F0 02     BEQ $E9F9                       A:FF X:02 Y:9C P:27 SP:FB PPU:151,112
E9F9  C8        INY                             A:FF X:02 Y:9C P:27 SP:FB PPU:151,121
E9FA  A9 37     LDA #$37                        A:FF X:02 Y:9D P:A5 SP:FB PPU:151,127
E9FC  8D 47 06  STA $0647 = FF                  A:37 X:02 Y:9D P:25 SP:FB PPU:151,133
E9FF  20 54 FA  JSR $FA54                       A:37 X:02 Y:9D P:25 SP:FB PPU:151,145
FA54  24 01     BIT $01 = FF                    A:37 X:02 Y:9D P:25 SP:F9 PPU:151,163
FA56  A9 F0     LDA #$F0                        A:37 X:02 Y:9D P:E5 SP:F9 PPU:151,172
FA58  60        RTS                             A:F0 X:02 Y:9D P:E5 SP:F9 PPU:151,178
EA02  CF 47 06 *DCP $0647 = 37                  A:F0 X:02 Y:9D P:E5 SP:FB PPU:151,196
EA05  EA        NOP                             A:F0 X:02 Y:9D P:E5 SP:FB PPU:151,214
EA06  EA        NOP                             A:F0 X:02 Y:9D P:E5 SP:FB PPU:151,220
EA07  EA        NOP                             A:F0 X:02 Y:9D P:E5 SP:FB PPU:151,226
EA08  EA        NOP                             A:F0 X:02 Y:9D P:E5 SP:FB PPU:151,232
EA09  20 59 FA  JSR $FA59                       A:F0 X:02 Y:9D P:E5 SP:FB PPU:151,238
FA59  50 0A     BVC $FA65                       A:F0 X:02 Y:9D P:E5 SP:F9 PPU:151,256
FA5B  F0 08     BEQ $FA65                       A:F0 X:02 Y:9D P:E5 SP:F9 PPU:151,262
FA5D  10 06     BPL $FA65                       A:F0 X:02 Y:9D P:E5 SP:F9 PPU:151,268
FA5F  90 04     BCC $FA65                       A:F0 X:02 Y:9D P:E5 SP:F9 PPU:151,274
FA61  C9 F0     CMP #$F0                        A:F0 X:02 Y:9D P:E5 SP:F9 PPU:151,280
FA63  F0 02     BEQ $FA67                       A:F0 X:02 Y:9D P:67 SP:F9 PPU:151,286
FA67  60        RTS                             A:F0 X:02 Y:9D P:67 SP:F9 PPU:151,295
EA0C  AD 47 06  LDA $0647 = 36                  A:F0 X:02 Y:9D P:67 SP:FB PPU:151,313
EA0F  C9 36     CMP #$36                        A:36 X:02 Y:9D P:65 SP:FB PPU:151,325
EA11  F0 02     BEQ $EA15                       A:36 X:02 Y:9D P:67 SP:FB PPU:151,331
EA15  A9 EB     LDA #$EB                        A:36 X:02 Y:9D P:67 SP:FB PPU:151,340
EA17  8D 47 06  STA $0647 = 36                  A:EB X:02 Y:9D P:E5 SP:FB PPU:152,  5
EA1A  A9 48     LDA #$48                        A:EB X:02 Y:9D P:E5 SP:FB PPU:152, 17
EA1C  85 45     STA $45 = 32                    A:48 X:02 Y:9D P:65 SP:FB PPU:152, 23
EA1E  A9 05     LDA #$05                        A:48 X:02 Y:9D P:65 SP:FB PPU:152, 32
EA20  85 46     STA $46 = 04                    A:05 X:02 Y:9D P:65 SP:FB PPU:152, 38
EA22  A0 FF     LDY #$FF                        A:05 X:02 Y:9D P:65 SP:FB PPU:152, 47
EA24  20 31 FA  JSR $FA31                       A:05 X:02 Y:FF P:E5 SP:FB PPU:152, 53
FA31  24 01     BIT $01 = FF                    A:05 X:02 Y:FF P:E5 SP:F9 PPU:152, 71
FA33  18        CLC                             A:05 X:02 Y:FF P:E5 SP:F9 PPU:152, 80
FA34  A9 40     LDA #$40                        A:05 X:02 Y:FF P:E4 SP:F9 PPU:152, 86
FA36  60        RTS                             A:40 X:02 Y:FF P:64 SP:F9 PPU:152, 92
EA27  D3 45    *DCP ($45),Y = 0548 @ 0647 = EB  A:40 X:02 Y:FF P:64 SP:FB PPU:152,110
EA29  EA        NOP                             A:40 X:02 Y:FF P:64 SP:FB PPU:152,134
EA2A  EA        NOP                             A:40 X:02 Y:FF P:64 SP:FB PPU:152,140
EA2B  08        PHP                             A:40 X:02 Y:FF P:64 SP:FB PPU:152,146
EA2C  48        PHA                             A:40 X:02 Y:FF P:64 SP:FA PPU:152,155
EA2D  A0 9E     LDY #$9E                        A:40 X:02 Y:FF P:64 SP:F9 PPU:152,164
EA2F  68        PLA                             A:40 X:02 Y:9E P:E4 SP:F9 PPU:152,170
EA30  28        PLP                             A:40 X:02 Y:9E P:64 SP:FA PPU:152,182
EA31  20 37 FA  JSR $FA37                       A:40 X:02 Y:9E P:64 SP:FB PPU:152,194
FA37  50 2C     BVC $FA65                       A:40 X:02 Y:9E P:64 SP:F9 PPU:152,212
FA39  B0 2A     BCS $FA65                       A:40 X:02 Y:9E P:64 SP:F9 PPU:152,218
FA3B  30 28     BMI $FA65                       A:40 X:02 Y:9E P:64 SP:F9 PPU:152,224
FA3D  C9 40     CMP #$40                        A:40 X:02 Y:9E P:64 SP:F9 PPU:152,230
FA3F  D0 24     BNE $FA65                       A:40 X:02 Y:9E P:67 SP:F9 PPU:152,236
FA41  60        RTS                             A:40 X:02 Y:9E P:67 SP:F9 PPU:152,242
EA34  AD 47 06  LDA $0647 = EA                  A:40 X:02 Y:9E P:67 SP:FB PPU:152,260
EA37  C9 EA     CMP #$EA                        A:EA X:02 Y:9E P:E5 SP:FB PPU:152,272
EA39  F0 02     BEQ $EA3D                       A:EA X:02 Y:9E P:67 SP:FB PPU:152,278
EA3D  A0 FF     LDY #$FF                        A:EA X:02 Y:9E P:67 SP:FB PPU:152,287
EA3F  A9 00     LDA #$00                        A:EA X:02 Y:FF P:E5 SP:FB PPU:152,293
EA41  8D 47 06  STA $0647 = EA                  A:00 X:02 Y:FF P:67 SP:FB PPU:152,299
EA44  20 42 FA  JSR $FA42                       A:00 X:02 Y:FF P:67 SP:FB PPU:152,311
FA42  B8        CLV                             A:00 X:02 Y:FF P:67 SP:F9 PPU:152,329
FA43  38        SEC                             A:00 X:02 Y:FF P:27 SP:F9 PPU:152,335
FA44  A9 FF     LDA #$FF                        A:00 X:02 Y:FF P:27 SP:F9 PPU:153,  0
FA46  60        RTS                             A:FF X:02 Y:FF P:A5 SP:F9 PPU:153,  6
EA47  D3 45    *DCP ($45),Y = 0548 @ 0647 = 00  A:FF X:02 Y:FF P:A5 SP:FB PPU:153, 24
EA49  EA        NOP                             A:FF X:02 Y:FF P:27 SP:FB PPU:153, 48
EA4A  EA        NOP                             A:FF X:02 Y:FF P:27 SP:FB PPU:153, 54
EA4B  08        PHP                             A:FF X:02 Y:FF P:27 SP:FB PPU:153, 60
EA4C  48        PHA                             A:FF X:02 Y:FF P:27 SP:FA PPU:153, 69
EA4D  A0 9F     LDY #$9F                        A:FF X:02 Y:FF P:27 SP:F9 PPU:153, 78
EA4F  68        PLA                             A:FF X:02 Y:9F P:A5 SP:F9 PPU:153, 84
EA50  28        PLP                             A:FF X:02 Y:9F P:A5 SP:FA PPU:153, 96
EA51  20 47 FA  JSR $FA47                       A:FF X:02 Y:9F P:27 SP:FB PPU:153,108
FA47  70 1C     BVS $FA65                       A:FF X:02 Y:9F P:27 SP:F9 PPU:153,126
FA49  D0 1A     BNE $FA65                       A:FF X:02 Y:9F P:27 SP:F9 PPU:153,132
FA4B  30 18     BMI $FA65                       A:FF X:02 Y:9F P:27 SP:F9 PPU:153,138
FA4D  90 16     BCC $FA65                       A:FF X:02 Y:9F P:27 SP:F9 PPU:153,144
FA4F  C9 FF     CMP #$FF                        A:FF X:02 Y:9F P:27 SP:F9 PPU:153,150
FA51  D0 12     BNE $FA65                       A:FF X:02 Y:9F P:27 SP:F9 PPU:153,156
FA53  60        RTS                             A:FF X:02 Y:9F P:27 SP:F9 PPU:153,162
EA54  AD 47 06  LDA $0647 = FF                  A:FF X:02 Y:9F P:27 SP:FB PPU:153,180
EA57  C9 FF     CMP #$FF                        A:FF X:02 Y:9F P:A5 SP:FB PPU:153,192
EA59  F0 02     BEQ $EA5D                       A:FF X:02 Y:9F P:27 SP:FB PPU:153,198
EA5D  A0 FF     LDY #$FF                        A:FF X:02 Y:9F P:27 SP:FB PPU:153,207
EA5F  A9 37     LDA #$37                        A:FF X:02 Y:FF P:A5 SP:FB PPU:153,213
EA61  8D 47 06  STA $0647 = FF                  A:37 X:02 Y:FF P:25 SP:FB PPU:153,219
EA64  20 54 FA  JSR $FA54                       A:37 X:02 Y:FF P:25 SP:FB PPU:153,231
FA54  24 01     BIT $01 = FF                    A:37 X:02 Y:FF P:25 SP:F9 PPU:153,249
FA56  A9 F0     LDA #$F0                        A:37 X:02 Y:FF P:E5 SP:F9 PPU:153,258
FA58  60        RTS                             A:F0 X:02 Y:FF P:E5 SP:F9 PPU:153,264
EA67  D3 45    *DCP ($45),Y = 0548 @ 0647 = 37  A:F0 X:02 Y:FF P:E5 SP:FB PPU:153,282
EA69  EA        NOP                             A:F0 X:02 Y:FF P:E5 SP:FB PPU:153,306
EA6A  EA        NOP                             A:F0 X:02 Y:FF P:E5 SP:FB PPU:153,312
EA6B  08        PHP                             A:F0 X:02 Y:FF P:E5 SP:FB PPU:153,318
EA6C  48        PHA                             A:F0 X:02 Y:FF P:E5 SP:FA PPU:153,327
EA6D  A0 A0     LDY #$A0                        A:F0 X:02 Y:FF P:E5 SP:F9 PPU:153,336
EA6F  68        PLA                             A:F0 X:02 Y:A0 P:E5 SP:F9 PPU:154,  1
EA70  28        PLP                             A:F0 X:02 Y:A0 P:E5 SP:FA PPU:154, 13
EA71  20 59 FA  JSR $FA59                       A:F0 X:02 Y:A0 P:E5 SP:FB PPU:154, 25
FA59  50 0A     BVC $FA65                       A:F0 X:02 Y:A0 P:E5 SP:F9 PPU:154, 43
FA5B  F0 08     BEQ $FA65                       A:F0 X:02 Y:A0 P:E5 SP:F9 PPU:154, 49
FA5D  10 06     BPL $FA65                       A:F0 X:02 Y:A0 P:E5 SP:F9 PPU:154, 55
FA5F  90 04     BCC $FA65                       A:F0 X:02 Y:A0 P:E5 SP:F9 PPU:154, 61
FA61  C9 F0     CMP #$F0                        A:F0 X:02 Y:A0 P:E5 SP:F9 PPU:154, 67
FA63  F0 02     BEQ $FA67                       A:F0 X:02 Y:A0 P:67 SP:F9 PPU:154, 73
FA67  60        RTS                             A:F0 X:02 Y:A0 P:67 SP:F9 PPU:154, 82
EA74  AD 47 06  LDA $0647 = 36                  A:F0 X:02 Y:A0 P:67 SP:FB PPU:154,100
EA77  C9 36     CMP #$36                        A:36 X:02 Y:A0 P:65 SP:FB PPU:154,112
EA79  F0 02     BEQ $EA7D                       A:36 X:02 Y:A0 P:67 SP:FB PPU:154,118
EA7D  A0 A1     LDY #$A1                        A:36 X:02 Y:A0 P:67 SP:FB PPU:154,127
EA7F  A2 FF     LDX #$FF                        A:36 X:02 Y:A1 P:E5 SP:FB PPU:154,133
EA81  A9 EB     LDA #$EB                        A:36 X:FF Y:A1 P:E5 SP:FB PPU:154,139
EA83  85 47     STA $47 = 36                    A:EB X:FF Y:A1 P:E5 SP:FB PPU:154,145
EA85  20 31 FA  JSR $FA31                       A:EB X:FF Y:A1 P:E5 SP:FB PPU:154,154
FA31  24 01     BIT $01 = FF                    A:EB X:FF Y:A1 P:E5 SP:F9 PPU:154,172
FA33  18        CLC                             A:EB X:FF Y:A1 P:E5 SP:F9 PPU:154,181
FA34  A9 40     LDA #$40                        A:EB X:FF Y:A1 P:E4 SP:F9 PPU:154,187
FA36  60        RTS                             A:40 X:FF Y:A1 P:64 SP:F9 PPU:154,193
EA88  D7 48    *DCP $48,X @ 47 = EB             A:40 X:FF Y:A1 P:64 SP:FB PPU:154,211
EA8A  EA        NOP                             A:40 X:FF Y:A1 P:64 SP:FB PPU:154,229
EA8B  EA        NOP                             A:40 X:FF Y:A1 P:64 SP:FB PPU:154,235
EA8C  EA        NOP                             A:40 X:FF Y:A1 P:64 SP:FB PPU:154,241
EA8D  EA        NOP                             A:40 X:FF Y:A1 P:64 SP:FB PPU:154,247
EA8E  20 37 FA  JSR $FA37                       A:40 X:FF Y:A1 P:64 SP:FB PPU:154,253
FA37  50 2C     BVC $FA65                       A:40 X:FF Y:A1 P:64 SP:F9 PPU:154,271
FA39  B0 2A     BCS $FA65                       A:40 X:FF Y:A1 P:64 SP:F9 PPU:154,277
FA3B  30 28     BMI $FA65                       A:40 X:FF Y:A1 P:64 SP:F9 PPU:154,283
FA3D  C9 40     CMP #$40                        A:40 X:FF Y:A1 P:64 SP:F9 PPU:154,289
FA3F  D0 24     BNE $FA65                       A:40 X:FF Y:A1 P:67 SP:F9 PPU:154,295
FA41  60        RTS                             A:40 X:FF Y:A1 P:67 SP:F9 PPU:154,301
EA91  A5 47     LDA $47 = EA                    A:40 X:FF Y:A1 P:67 SP:FB PPU:154,319
EA93  C9 EA     CMP #$EA                        A:EA X:FF Y:A1 P:E5 SP:FB PPU:154,328
EA95  F0 02     BEQ $EA99                       A:EA X:FF Y:A1 P:67 SP:FB PPU:154,334
EA99  C8        INY                             A:EA X:FF Y:A1 P:67 SP:FB PPU:155,  2
EA9A  A9 00     LDA #$00                        A:EA X:FF Y:A2 P:E5 SP:FB PPU:155,  8
EA9C  85 47     STA $47 = EA                    A:00 X:FF Y:A2 P:67 SP:FB PPU:155, 14
EA9E  20 42 FA  JSR $FA42                       A:00 X:FF Y:A2 P:67 SP:FB PPU:155, 23
FA42  B8        CLV                             A:00 X:FF Y:A2 P:67 SP:F9 PPU:155, 41
FA43  38        SEC                             A:00 X:FF Y:A2 P:27 SP:F9 PPU:155, 47
FA44  A9 FF     LDA #$FF                        A:00 X:FF Y:A2 P:27 SP:F9 PPU:155, 53
FA46  60        RTS                             A:FF X:FF Y:A2 P:A5 SP:F9 PPU:155, 59
EAA1  D7 48    *DCP $48,X @ 47 = 00             A:FF X:FF Y:A2 P:A5 SP:FB PPU:155, 77
EAA3  EA        NOP                             A:FF X:FF Y:A2 P:27 SP:FB PPU:155, 95
EAA4  EA        NOP                             A:FF X:FF Y:A2 P:27 SP:FB PPU:155,101
EAA5  EA        NOP                             A:FF X:FF Y:A2 P:27 SP:FB PPU:155,107
EAA6  EA        NOP                             A:FF X:FF Y:A2 P:27 SP:FB PPU:155,113
EAA7  20 47 FA  JSR $FA47                       A:FF X:FF Y:A2 P:27 SP:FB PPU:155,119
FA47  70 1C     BVS $FA65                       A:FF X:FF Y:A2 P:27 SP:F9 PPU:155,137
FA49  D0 1A     BNE $FA65                       A:FF X:FF Y:A2 P:27 SP:F9 PPU:155,143
FA4B  30 18     BMI $FA65                       A:FF X:FF Y:A2 P:27 SP:F9 PPU:155,149
FA4D  90 16     BCC $FA65                       A:FF X:FF Y:A2 P:27 SP:F9 PPU:155,155
FA4F  C9 FF     CMP #$FF                        A:FF X:FF Y:A2 P:27 SP:F9 PPU:155,161
FA51  D0 12     BNE $FA65                       A:FF X:FF Y:A2 P:27 SP:F9 PPU:155,167
FA53  60        RTS                             A:FF X:FF Y:A2 P:27 SP:F9 PPU:155,173
EAAA  A5 47     LDA $47 = FF                    A:FF X:FF Y:A2 P:27 SP:FB PPU:155,191
EAAC  C9 FF     CMP #$FF                        A:FF X:FF Y:A2 P:A5 SP:FB PPU:155,200
EAAE  F0 02     BEQ $EAB2                       A:FF X:FF Y:A2 P:27 SP:FB PPU:155,206
EAB2  C8        INY                             A:FF X:FF Y:A2 P:27 SP:FB PPU:155,215
EAB3  A9 37     LDA #$37                        A:FF X:FF Y:A3 P:A5 SP:FB PPU:155,221
EAB5  85 47     STA $47 = FF                    A:37 X:FF Y:A3 P:25 SP:FB PPU:155,227
EAB7  20 54 FA  JSR $FA54                       A:37 X:FF Y:A3 P:25 SP:FB PPU:155,236
FA54  24 01     BIT $01 = FF                    A:37 X:FF Y:A3 P:25 SP:F9 PPU:155,254
FA56  A9 F0     LDA #$F0                        A:37 X:FF Y:A3 P:E5 SP:F9 PPU:155,263
FA58  60        RTS                             A:F0 X:FF Y:A3 P:E5 SP:F9 PPU:155,269
EABA  D7 48    *DCP $48,X @ 47 = 37             A:F0 X:FF Y:A3 P:E5 SP:FB PPU:155,287
EABC  EA        NOP                             A:F0 X:FF Y:A3 P:E5 SP:FB PPU:155,305
EABD  EA        NOP                             A:F0 X:FF Y:A3 P:E5 SP:FB PPU:155,311
EABE  EA        NOP                             A:F0 X:FF Y:A3 P:E5 SP:FB PPU:155,317
EABF  EA        NOP                             A:F0 X:FF Y:A3 P:E5 SP:FB PPU:155,323
EAC0  20 59 FA  JSR $FA59                       A:F0 X:FF Y:A3 P:E5 SP:FB PPU:155,329
FA59  50 0A     BVC $FA65                       A:F0 X:FF Y:A3 P:E5 SP:F9 PPU:156,  6
FA5B  F0 08     BEQ $FA65                       A:F0 X:FF Y:A3 P:E5 SP:F9 PPU:156, 12
FA5D  10 06     BPL $FA65                       A:F0 X:FF Y:A3 P:E5 SP:F9 PPU:156, 18
FA5F  90 04     BCC $FA65                       A:F0 X:FF Y:A3 P:E5 SP:F9 PPU:156, 24
FA61  C9 F0     CMP #$F0                        A:F0 X:FF Y:A3 P:E5 SP:F9 PPU:156, 30
FA63  F0 02     BEQ $FA67                       A:F0 X:FF Y:A3 P:67 SP:F9 PPU:156, 36
FA67  60        RTS                             A:F0 X:FF Y:A3 P:67 SP:F9 PPU:156, 45
EAC3  A5 47     LDA $47 = 36                    A:F0 X:FF Y:A3 P:67 SP:FB PPU:156, 63
EAC5  C9 36     CMP #$36                        A:36 X:FF Y:A3 P:65 SP:FB PPU:156, 72
EAC7  F0 02     BEQ $EACB                       A:36 X:FF Y:A3 P:67 SP:FB PPU:156, 78
EACB  A9 EB     LDA #$EB                        A:36 X:FF Y:A3 P:67 SP:FB PPU:156, 87
EACD  8D 47 06  STA $0647 = 36                  A:EB X:FF Y:A3 P:E5 SP:FB PPU:156, 93
EAD0  A0 FF     LDY #$FF                        A:EB X:FF Y:A3 P:E5 SP:FB PPU:156,105
EAD2  20 31 FA  JSR $FA31                       A:EB X:FF Y:FF P:E5 SP:FB PPU:156,111
FA31  24 01     BIT $01 = FF                    A:EB X:FF Y:FF P:E5 SP:F9 PPU:156,129
FA33  18        CLC                             A:EB X:FF Y:FF P:E5 SP:F9 PPU:156,138
FA34  A9 40     LDA #$40                        A:EB X:FF Y:FF P:E4 SP:F9 PPU:156,144
FA36  60        RTS                             A:40 X:FF Y:FF P:64 SP:F9 PPU:156,150
EAD5  DB 48 05 *DCP $0548,Y @ 0647 = EB         A:40 X:FF Y:FF P:64 SP:FB PPU:156,168
EAD8  EA        NOP                             A:40 X:FF Y:FF P:64 SP:FB PPU:156,189
EAD9  EA        NOP                             A:40 X:FF Y:FF P:64 SP:FB PPU:156,195
EADA  08        PHP                             A:40 X:FF Y:FF P:64 SP:FB PPU:156,201
EADB  48        PHA                             A:40 X:FF Y:FF P:64 SP:FA PPU:156,210
EADC  A0 A4     LDY #$A4                        A:40 X:FF Y:FF P:64 SP:F9 PPU:156,219
EADE  68        PLA                             A:40 X:FF Y:A4 P:E4 SP:F9 PPU:156,225
EADF  28        PLP                             A:40 X:FF Y:A4 P:64 SP:FA PPU:156,237
EAE0  20 37 FA  JSR $FA37                       A:40 X:FF Y:A4 P:64 SP:FB PPU:156,249
FA37  50 2C     BVC $FA65                       A:40 X:FF Y:A4 P:64 SP:F9 PPU:156,267
FA39  B0 2A     BCS $FA65                       A:40 X:FF Y:A4 P:64 SP:F9 PPU:156,273
FA3B  30 28     BMI $FA65                       A:40 X:FF Y:A4 P:64 SP:F9 PPU:156,279
FA3D  C9 40     CMP #$40                        A:40 X:FF Y:A4 P:64 SP:F9 PPU:156,285
FA3F  D0 24     BNE $FA65                       A:40 X:FF Y:A4 P:67 SP:F9 PPU:156,291
FA41  60        RTS                             A:40 X:FF Y:A4 P:67 SP:F9 PPU:156,297
EAE3  AD 47 06  LDA $0647 = EA                  A:40 X:FF Y:A4 P:67 SP:FB PPU:156,315
EAE6  C9 EA     CMP #$EA                        A:EA X:FF Y:A4 P:E5 SP:FB PPU:156,327
EAE8  F0 02     BEQ $EAEC                       A:EA X:FF Y:A4 P:67 SP:FB PPU:156,333
EAEC  A0 FF     LDY #$FF                        A:EA X:FF Y:A4 P:67 SP:FB PPU:157,  1
EAEE  A9 00     LDA #$00                        A:EA X:FF Y:FF P:E5 SP:FB PPU:157,  7
EAF0  8D 47 06  STA $0647 = EA                  A:00 X:FF Y:FF P:67 SP:FB PPU:157, 13
EAF3  20 42 FA  JSR $FA42                       A:00 X:FF Y:FF P:67 SP:FB PPU:157, 25
FA42  B8        CLV                             A:00 X:FF Y:FF P:67 SP:F9 PPU:157, 43
FA43  38        SEC                             A:00 X:FF Y:FF P:27 SP:F9 PPU:157, 49
FA44  A9 FF     LDA #$FF                        A:00 X:FF Y:FF P:27 SP:F9 PPU:157, 55
FA46  60        RTS                             A:FF X:FF Y:FF P:A5 SP:F9 PPU:157, 61
EAF6  DB 48 05 *DCP $0548,Y @ 0647 = 00         A:FF X:FF Y:FF P:A5 SP:FB PPU:157, 79
EAF9  EA        NOP                             A:FF X:FF Y:FF P:27 SP:FB PPU:157,100
EAFA  EA        NOP                             A:FF X:FF Y:FF P:27 SP:FB PPU:157,106
EAFB  08        PHP                             A:FF X:FF Y:FF P:27 SP:FB PPU:157,112
EAFC  48        PHA                             A:FF X:FF Y:FF P:27 SP:FA PPU:157,121
EAFD  A0 A5     LDY #$A5                        A:FF X:FF Y:FF P:27 SP:F9 PPU:157,130
EAFF  68        PLA                             A:FF X:FF Y:A5 P:A5 SP:F9 PPU:157,136
EB00  28        PLP                             A:FF X:FF Y:A5 P:A5 SP:FA PPU:157,148
EB01  20 47 FA  JSR $FA47                       A:FF X:FF Y:A5 P:27 SP:FB PPU:157,160
FA47  70 1C     BVS $FA65                       A:FF X:FF Y:A5 P:27 SP:F9 PPU:157,178
FA49  D0 1A     BNE $FA65                       A:FF X:FF Y:A5 P:27 SP:F9 PPU:157,184
FA4B  30 18     BMI $FA65                       A:FF X:FF Y:A5 P:27 SP:F9 PPU:157,190
FA4D  90 16     BCC $FA65                       A:FF X:FF Y:A5 P:27 SP:F9 PPU:157,196
FA4F  C9 FF     CMP #$FF                        A:FF X:FF Y:A5 P:27 SP:F9 PPU:157,202
FA51  D0 12     BNE $FA65                       A:FF X:FF Y:A5 P:27 SP:F9 PPU:157,208
FA53  60        RTS                             A:FF X:FF Y:A5 P:27 SP:F9 PPU:157,214
EB04  AD 47 06  LDA $0647 = FF                  A:FF X:FF Y:A5 P:27 SP:FB PPU:157,232
EB07  C9 FF     CMP #$FF                        A:FF X:FF Y:A5 P:A5 SP:FB PPU:157,244
EB09  F0 02     BEQ $EB0D                       A:FF X:FF Y:A5 P:27 SP:FB PPU:157,250
EB0D  A0 FF     LDY #$FF                        A:FF X:FF Y:A5 P:27 SP:FB PPU:157,259
EB0F  A9 37     LDA #$37                        A:FF X:FF Y:FF P:A5 SP:FB PPU:157,265
EB11  8D 47 06  STA $0647 = FF                  A:37 X:FF Y:FF P:25 SP:FB PPU:157,271
EB14  20 54 FA  JSR $FA54                       A:37 X:FF Y:FF P:25 SP:FB PPU:157,283
FA54  24 01     BIT $01 = FF                    A:37 X:FF Y:FF P:25 SP:F9 PPU:157,301
FA56  A9 F0     LDA #$F0                        A:37 X:FF Y:FF P:E5 SP:F9 PPU:157,310
FA58  60        RTS                             A:F0 X:FF Y:FF P:E5 SP:F9 PPU:157,316
EB17  DB 48 05 *DCP $0548,Y @ 0647 = 37         A:F0 X:FF Y:FF P:E5 SP:FB PPU:157,334
EB1A  EA        NOP                             A:F0 X:FF Y:FF P:E5 SP:FB PPU:158, 14
EB1B  EA        NOP                             A:F0 X:FF Y:FF P:E5 SP:FB PPU:158, 20
EB1C  08        PHP                             A:F0 X:FF Y:FF P:E5 SP:FB PPU:158, 26
EB1D  48        PHA                             A:F0 X:FF Y:FF P:E5 SP:FA PPU:158, 35
EB1E  A0 A6     LDY #$A6                        A:F0 X:FF Y:FF P:E5 SP:F9 PPU:158, 44
EB20  68        PLA                             A:F0 X:FF Y:A6 P:E5 SP:F9 PPU:158, 50
EB21  28        PLP                             A:F0 X:FF Y:A6 P:E5 SP:FA PPU:158, 62
EB22  20 59 FA  JSR $FA59                       A:F0 X:FF Y:A6 P:E5 SP:FB PPU:158, 74
FA59  50 0A     BVC $FA65                       A:F0 X:FF Y:A6 P:E5 SP:F9 PPU:158, 92
FA5B  F0 08     BEQ $FA65                       A:F0 X:FF Y:A6 P:E5 SP:F9 PPU:158, 98
FA5D  10 06     BPL $FA65                       A:F0 X:FF Y:A6 P:E5 SP:F9 PPU:158,104
FA5F  90 04     BCC $FA65                       A:F0 X:FF Y:A6 P:E5 SP:F9 PPU:158,110
FA61  C9 F0     CMP #$F0                        A:F0 X:FF Y:A6 P:E5 SP:F9 PPU:158,116
FA63  F0 02     BEQ $FA67                       A:F0 X:FF Y:A6 P:67 SP:F9 PPU:158,122
FA67  60        RTS                             A:F0 X:FF Y:A6 P:67 SP:F9 PPU:158,131
EB25  AD 47 06  LDA $0647 = 36                  A:F0 X:FF Y:A6 P:67 SP:FB PPU:158,149
EB28  C9 36     CMP #$36                        A:36 X:FF Y:A6 P:65 SP:FB PPU:158,161
EB2A  F0 02     BEQ $EB2E                       A:36 X:FF Y:A6 P:67 SP:FB PPU:158,167
EB2E  A0 A7     LDY #$A7                        A:36 X:FF Y:A6 P:67 SP:FB PPU:158,176
EB30  A2 FF     LDX #$FF                        A:36 X:FF Y:A7 P:E5 SP:FB PPU:158,182
EB32  A9 EB     LDA #$EB                        A:36 X:FF Y:A7 P:E5 SP:FB PPU:158,188
EB34  8D 47 06  STA $0647 = 36                  A:EB X:FF Y:A7 P:E5 SP:FB PPU:158,194
EB37  20 31 FA  JSR $FA31                       A:EB X:FF Y:A7 P:E5 SP:FB PPU:158,206
FA31  24 01     BIT $01 = FF                    A:EB X:FF Y:A7 P:E5 SP:F9 PPU:158,224
FA33  18        CLC                             A:EB X:FF Y:A7 P:E5 SP:F9 PPU:158,233
FA34  A9 40     LDA #$40                        A:EB X:FF Y:A7 P:E4 SP:F9 PPU:158,239
FA36  60        RTS                             A:40 X:FF Y:A7 P:64 SP:F9 PPU:158,245
EB3A  DF 48 05 *DCP $0548,X @ 0647 = EB         A:40 X:FF Y:A7 P:64 SP:FB PPU:158,263
EB3D  EA        NOP                             A:40 X:FF Y:A7 P:64 SP:FB PPU:158,284
EB3E  EA        NOP                             A:40 X:FF Y:A7 P:64 SP:FB PPU:158,290
EB3F  EA        NOP                             A:40 X:FF Y:A7 P:64 SP:FB PPU:158,296
EB40  EA        NOP                             A:40 X:FF Y:A7 P:64 SP:FB PPU:158,302
EB41  20 37 FA  JSR $FA37                       A:40 X:FF Y:A7 P:64 SP:FB PPU:158,308
FA37  50 2C     BVC $FA65                       A:40 X:FF Y:A7 P:64 SP:F9 PPU:158,326
FA39  B0 2A     BCS $FA65                       A:40 X:FF Y:A7 P:64 SP:F9 PPU:158,332
FA3B  30 28     BMI $FA65                       A:40 X:FF Y:A7 P:64 SP:F9 PPU:158,338
FA3D  C9 40     CMP #$40                        A:40 X:FF Y:A7 P:64 SP:F9 PPU:159,  3
FA3F  D0 24     BNE $FA65                       A:40 X:FF Y:A7 P:67 SP:F9 PPU:159,  9
FA41  60        RTS                             A:40 X:FF Y:A7 P:67 SP:F9 PPU:159, 15
EB44  AD 47 06  LDA $0647 = EA                  A:40 X:FF Y:A7 P:67 SP:FB PPU:159, 33
EB47  C9 EA     CMP #$EA                        A:EA X:FF Y:A7 P:E5 SP:FB PPU:159, 45
EB49  F0 02     BEQ $EB4D                       A:EA X:FF Y:A7 P:67 SP:FB PPU:159, 51
EB4D  C8        INY                             A:EA X:FF Y:A7 P:67 SP:FB PPU:159, 60
EB4E  A9 00     LDA #$00                        A:EA X:FF Y:A8 P:E5 SP:FB PPU:159, 66
EB50  8D 47 06  STA $0647 = EA                  A:00 X:FF Y:A8 P:67 SP:FB PPU:159, 72
EB53  20 42 FA  JSR $FA42                       A:00 X:FF Y:A8 P:67 SP:FB PPU:159, 84
FA42  B8        CLV                             A:00 X:FF Y:A8 P:67 SP:F9 PPU:159,102
FA43  38        SEC                             A:00 X:FF Y:A8 P:27 SP:F9 PPU:159,108
FA44  A9 FF     LDA #$FF                        A:00 X:FF Y:A8 P:27 SP:F9 PPU:159,114
FA46  60        RTS                             A:FF X:FF Y:A8 P:A5 SP:F9 PPU:159,120
EB56  DF 48 05 *DCP $0548,X @ 0647 = 00         A:FF X:FF Y:A8 P:A5 SP:FB PPU:159,138
EB59  EA        NOP                             A:FF X:FF Y:A8 P:27 SP:FB PPU:159,159
EB5A  EA        NOP                             A:FF X:FF Y:A8 P:27 SP:FB PPU:159,165
EB5B  EA        NOP                             A:FF X:FF Y:A8 P:27 SP:FB PPU:159,171
EB5C  EA        NOP                             A:FF X:FF Y:A8 P:27 SP:FB PPU:159,177
EB5D  20 47 FA  JSR $FA47                       A:FF X:FF Y:A8 P:27 SP:FB PPU:159,183
FA47  70 1C     BVS $FA65                       A:FF X:FF Y:A8 P:27 SP:F9 PPU:159,201
FA49  D0 1A     BNE $FA65                       A:FF X:FF Y:A8 P:27 SP:F9 PPU:159,207
FA4B  30 18     BMI $FA65                       A:FF X:FF Y:A8 P:27 SP:F9 PPU:159,213
FA4D  90 16     BCC $FA65                       A:FF X:FF Y:A8 P:27 SP:F9 PPU:159,219
FA4F  C9 FF     CMP #$FF                        A:FF X:FF Y:A8 P:27 SP:F9 PPU:159,225
FA51  D0 12     BNE $FA65                       A:FF X:FF Y:A8 P:27 SP:F9 PPU:159,231
FA53  60        RTS                             A:FF X:FF Y:A8 P:27 SP:F9 PPU:159,237
EB60  AD 47 06  LDA $0647 = FF                  A:FF X:FF Y:A8 P:27 SP:FB PPU:159,255
EB63  C9 FF     CMP #$FF                        A:FF X:FF Y:A8 P:A5 SP:FB PPU:159,267
EB65  F0 02     BEQ $EB69                       A:FF X:FF Y:A8 P:27 SP:FB PPU:159,273
EB69  C8        INY                             A:FF X:FF Y:A8 P:27 SP:FB PPU:159,282
EB6A  A9 37     LDA #$37                        A:FF X:FF Y:A9 P:A5 SP:FB PPU:159,288
EB6C  8D 47 06  STA $0647 = FF                  A:37 X:FF Y:A9 P:25 SP:FB PPU:159,294
EB6F  20 54 FA  JSR $FA54                       A:37 X:FF Y:A9 P:25 SP:FB PPU:159,306
FA54  24 01     BIT $01 = FF                    A:37 X:FF Y:A9 P:25 SP:F9 PPU:159,324
FA56  A9 F0     LDA #$F0                        A:37 X:FF Y:A9 P:E5 SP:F9 PPU:159,333
FA58  60        RTS                             A:F0 X:FF Y:A9 P:E5 SP:F9 PPU:159,339
EB72  DF 48 05 *DCP $0548,X @ 0647 = 37         A:F0 X:FF Y:A9 P:E5 SP:FB PPU:160, 16
EB75  EA        NOP                             A:F0 X:FF Y:A9 P:E5 SP:FB PPU:160, 37
EB76  EA        NOP                             A:F0 X:FF Y:A9 P:E5 SP:FB PPU:160, 43
EB77  EA        NOP                             A:F0 X:FF Y:A9 P:E5 SP:FB PPU:160, 49
EB78  EA        NOP                             A:F0 X:FF Y:A9 P:E5 SP:FB PPU:160, 55
EB79  20 59 FA  JSR $FA59                       A:F0 X:FF Y:A9 P:E5 SP:FB PPU:160, 61
FA59  50 0A     BVC $FA65                       A:F0 X:FF Y:A9 P:E5 SP:F9 PPU:160, 79
FA5B  F0 08     BEQ $FA65                       A:F0 X:FF Y:A9 P:E5 SP:F9 PPU:160, 85
FA5D  10 06     BPL $FA65                       A:F0 X:FF Y:A9 P:E5 SP:F9 PPU:160, 91
FA5F  90 04     BCC $FA65                       A:F0 X:FF Y:A9 P:E5 SP:F9 PPU:160, 97
FA61  C9 F0     CMP #$F0                        A:F0 X:FF Y:A9 P:E5 SP:F9 PPU:160,103
FA63  F0 02     BEQ $FA67                       A:F0 X:FF Y:A9 P:67 SP:F9 PPU:160,109
FA67  60        RTS                             A:F0 X:FF Y:A9 P:67 SP:F9 PPU:160,118
EB7C  AD 47 06  LDA $0647 = 36                  A:F0 X:FF Y:A9 P:67 SP:FB PPU:160,136
EB7F  C9 36     CMP #$36                        A:36 X:FF Y:A9 P:65 SP:FB PPU:160,148
EB81  F0 02     BEQ $EB85                       A:36 X:FF Y:A9 P:67 SP:FB PPU:160,154
EB85  60        RTS                             A:36 X:FF Y:A9 P:67 SP:FB PPU:160,163
C63E  20 86 EB  JSR $EB86                       A:36 X:FF Y:A9 P:67 SP:FD PPU:160,181
EB86  A9 FF     LDA #$FF                        A:36 X:FF Y:A9 P:67 SP:FB PPU:160,199
EB88  85 01     STA $01 = FF                    A:FF X:FF Y:A9 P:E5 SP:FB PPU:160,205
EB8A  A0 AA     LDY #$AA                        A:FF X:FF Y:A9 P:E5 SP:FB PPU:160,214
EB8C  A2 02     LDX #$02                        A:FF X:FF Y:AA P:E5 SP:FB PPU:160,220
EB8E  A9 47     LDA #$47                        A:FF X:02 Y:AA P:65 SP:FB PPU:160,226
EB90  85 47     STA $47 = 36                    A:47 X:02 Y:AA P:65 SP:FB PPU:160,232
EB92  A9 06     LDA #$06                        A:47 X:02 Y:AA P:65 SP:FB PPU:160,241
EB94  85 48     STA $48 = 06                    A:06 X:02 Y:AA P:65 SP:FB PPU:160,247
EB96  A9 EB     LDA #$EB                        A:06 X:02 Y:AA P:65 SP:FB PPU:160,256
EB98  8D 47 06  STA $0647 = 36                  A:EB X:02 Y:AA P:E5 SP:FB PPU:160,262
EB9B  20 B1 FA  JSR $FAB1                       A:EB X:02 Y:AA P:E5 SP:FB PPU:160,274
FAB1  24 01     BIT $01 = FF                    A:EB X:02 Y:AA P:E5 SP:F9 PPU:160,292
FAB3  18        CLC                             A:EB X:02 Y:AA P:E5 SP:F9 PPU:160,301
FAB4  A9 40     LDA #$40                        A:EB X:02 Y:AA P:E4 SP:F9 PPU:160,307
FAB6  60        RTS                             A:40 X:02 Y:AA P:64 SP:F9 PPU:160,313
EB9E  E3 45    *ISB ($45,X) @ 47 = 0647 = EB    A:40 X:02 Y:AA P:64 SP:FB PPU:160,331
EBA0  EA        NOP                             A:53 X:02 Y:AA P:24 SP:FB PPU:161, 14
EBA1  EA        NOP                             A:53 X:02 Y:AA P:24 SP:FB PPU:161, 20
EBA2  EA        NOP                             A:53 X:02 Y:AA P:24 SP:FB PPU:161, 26
EBA3  EA        NOP                             A:53 X:02 Y:AA P:24 SP:FB PPU:161, 32
EBA4  20 B7 FA  JSR $FAB7                       A:53 X:02 Y:AA P:24 SP:FB PPU:161, 38
FAB7  70 2D     BVS $FAE6                       A:53 X:02 Y:AA P:24 SP:F9 PPU:161, 56
FAB9  B0 2B     BCS $FAE6                       A:53 X:02 Y:AA P:24 SP:F9 PPU:161, 62
FABB  30 29     BMI $FAE6                       A:53 X:02 Y:AA P:24 SP:F9 PPU:161, 68
FABD  C9 53     CMP #$53                        A:53 X:02 Y:AA P:24 SP:F9 PPU:161, 74
FABF  D0 25     BNE $FAE6                       A:53 X:02 Y:AA P:27 SP:F9 PPU:161, 80
FAC1  60        RTS                             A:53 X:02 Y:AA P:27 SP:F9 PPU:161, 86
EBA7  AD 47 06  LDA $0647 = EC                  A:53 X:02 Y:AA P:27 SP:FB PPU:161,104
EBAA  C9 EC     CMP #$EC                        A:EC X:02 Y:AA P:A5 SP:FB PPU:161,116
EBAC  F0 02     BEQ $EBB0                       A:EC X:02 Y:AA P:27 SP:FB PPU:161,122
EBB0  C8        INY                             A:EC X:02 Y:AA P:27 SP:FB PPU:161,131
EBB1  A9 FF     LDA #$FF                        A:EC X:02 Y:AB P:A5 SP:FB PPU:161,137
EBB3  8D 47 06  STA $0647 = EC                  A:FF X:02 Y:AB P:A5 SP:FB PPU:161,143
EBB6  20 C2 FA  JSR $FAC2                       A:FF X:02 Y:AB P:A5 SP:FB PPU:161,155
FAC2  B8        CLV                             A:FF X:02 Y:AB P:A5 SP:F9 PPU:161,173
FAC3  38        SEC                             A:FF X:02 Y:AB P:A5 SP:F9 PPU:161,179
FAC4  A9 FF     LDA #$FF                        A:FF X:02 Y:AB P:A5 SP:F9 PPU:161,185
FAC6  60        RTS                             A:FF X:02 Y:AB P:A5 SP:F9 PPU:161,191
EBB9  E3 45    *ISB ($45,X) @ 47 = 0647 = FF    A:FF X:02 Y:AB P:A5 SP:FB PPU:161,209
EBBB  EA        NOP                             A:FF X:02 Y:AB P:A5 SP:FB PPU:161,233
EBBC  EA        NOP                             A:FF X:02 Y:AB P:A5 SP:FB PPU:161,239
EBBD  EA        NOP                             A:FF X:02 Y:AB P:A5 SP:FB PPU:161,245
EBBE  EA        NOP                             A:FF X:02 Y:AB P:A5 SP:FB PPU:161,251
EBBF  20 C7 FA  JSR $FAC7                       A:FF X:02 Y:AB P:A5 SP:FB PPU:161,257
FAC7  70 1D     BVS $FAE6                       A:FF X:02 Y:AB P:A5 SP:F9 PPU:161,275
FAC9  F0 1B     BEQ $FAE6                       A:FF X:02 Y:AB P:A5 SP:F9 PPU:161,281
FACB  10 19     BPL $FAE6                       A:FF X:02 Y:AB P:A5 SP:F9 PPU:161,287
FACD  90 17     BCC $FAE6                       A:FF X:02 Y:AB P:A5 SP:F9 PPU:161,293
FACF  C9 FF     CMP #$FF                        A:FF X:02 Y:AB P:A5 SP:F9 PPU:161,299
FAD1  D0 13     BNE $FAE6                       A:FF X:02 Y:AB P:27 SP:F9 PPU:161,305
FAD3  60        RTS                             A:FF X:02 Y:AB P:27 SP:F9 PPU:161,311
EBC2  AD 47 06  LDA $0647 = 00                  A:FF X:02 Y:AB P:27 SP:FB PPU:161,329
EBC5  C9 00     CMP #$00                        A:00 X:02 Y:AB P:27 SP:FB PPU:162,  0
EBC7  F0 02     BEQ $EBCB                       A:00 X:02 Y:AB P:27 SP:FB PPU:162,  6
EBCB  C8        INY                             A:00 X:02 Y:AB P:27 SP:FB PPU:162, 15
EBCC  A9 37     LDA #$37                        A:00 X:02 Y:AC P:A5 SP:FB PPU:162, 21
EBCE  8D 47 06  STA $0647 = 00                  A:37 X:02 Y:AC P:25 SP:FB PPU:162, 27
EBD1  20 D4 FA  JSR $FAD4                       A:37 X:02 Y:AC P:25 SP:FB PPU:162, 39
FAD4  24 01     BIT $01 = FF                    A:37 X:02 Y:AC P:25 SP:F9 PPU:162, 57
FAD6  38        SEC                             A:37 X:02 Y:AC P:E5 SP:F9 PPU:162, 66
FAD7  A9 F0     LDA #$F0                        A:37 X:02 Y:AC P:E5 SP:F9 PPU:162, 72
FAD9  60        RTS                             A:F0 X:02 Y:AC P:E5 SP:F9 PPU:162, 78
EBD4  E3 45    *ISB ($45,X) @ 47 = 0647 = 37    A:F0 X:02 Y:AC P:E5 SP:FB PPU:162, 96
EBD6  EA        NOP                             A:B8 X:02 Y:AC P:A5 SP:FB PPU:162,120
EBD7  EA        NOP                             A:B8 X:02 Y:AC P:A5 SP:FB PPU:162,126
EBD8  EA        NOP                             A:B8 X:02 Y:AC P:A5 SP:FB PPU:162,132
EBD9  EA        NOP                             A:B8 X:02 Y:AC P:A5 SP:FB PPU:162,138
EBDA  20 DA FA  JSR $FADA                       A:B8 X:02 Y:AC P:A5 SP:FB PPU:162,144
FADA  70 0A     BVS $FAE6                       A:B8 X:02 Y:AC P:A5 SP:F9 PPU:162,162
FADC  F0 08     BEQ $FAE6                       A:B8 X:02 Y:AC P:A5 SP:F9 PPU:162,168
FADE  10 06     BPL $FAE6                       A:B8 X:02 Y:AC P:A5 SP:F9 PPU:162,174
FAE0  90 04     BCC $FAE6                       A:B8 X:02 Y:AC P:A5 SP:F9 PPU:162,180
FAE2  C9 B8     CMP #$B8                        A:B8 X:02 Y:AC P:A5 SP:F9 PPU:162,186
FAE4  F0 02     BEQ $FAE8                       A:B8 X:02 Y:AC P:27 SP:F9 PPU:162,192
FAE8  60        RTS                             A:B8 X:02 Y:AC P:27 SP:F9 PPU:162,201
EBDD  AD 47 06  LDA $0647 = 38                  A:B8 X:02 Y:AC P:27 SP:FB PPU:162,219
EBE0  C9 38     CMP #$38                        A:38 X:02 Y:AC P:25 SP:FB PPU:162,231
EBE2  F0 02     BEQ $EBE6                       A:38 X:02 Y:AC P:27 SP:FB PPU:162,237
EBE6  C8        INY                             A:38 X:02 Y:AC P:27 SP:FB PPU:162,246
EBE7  A9 EB     LDA #$EB                        A:38 X:02 Y:AD P:A5 SP:FB PPU:162,252
EBE9  85 47     STA $47 = 47                    A:EB X:02 Y:AD P:A5 SP:FB PPU:162,258
EBEB  20 B1 FA  JSR $FAB1                       A:EB X:02 Y:AD P:A5 SP:FB PPU:162,267
FAB1  24 01     BIT $01 = FF                    A:EB X:02 Y:AD P:A5 SP:F9 PPU:162,285
FAB3  18        CLC                             A:EB X:02 Y:AD P:E5 SP:F9 PPU:162,294
FAB4  A9 40     LDA #$40                        A:EB X:02 Y:AD P:E4 SP:F9 PPU:162,300
FAB6  60        RTS                             A:40 X:02 Y:AD P:64 SP:F9 PPU:162,306
EBEE  E7 47    *ISB $47 = EB                    A:40 X:02 Y:AD P:64 SP:FB PPU:162,324
EBF0  EA        NOP                             A:53 X:02 Y:AD P:24 SP:FB PPU:162,339
EBF1  EA        NOP                             A:53 X:02 Y:AD P:24 SP:FB PPU:163,  4
EBF2  EA        NOP                             A:53 X:02 Y:AD P:24 SP:FB PPU:163, 10
EBF3  EA        NOP                             A:53 X:02 Y:AD P:24 SP:FB PPU:163, 16
EBF4  20 B7 FA  JSR $FAB7                       A:53 X:02 Y:AD P:24 SP:FB PPU:163, 22
FAB7  70 2D     BVS $FAE6                       A:53 X:02 Y:AD P:24 SP:F9 PPU:163, 40
FAB9  B0 2B     BCS $FAE6                       A:53 X:02 Y:AD P:24 SP:F9 PPU:163, 46
FABB  30 29     BMI $FAE6                       A:53 X:02 Y:AD P:24 SP:F9 PPU:163, 52
FABD  C9 53     CMP #$53                        A:53 X:02 Y:AD P:24 SP:F9 PPU:163, 58
FABF  D0 25     BNE $FAE6                       A:53 X:02 Y:AD P:27 SP:F9 PPU:163, 64
FAC1  60        RTS                             A:53 X:02 Y:AD P:27 SP:F9 PPU:163, 70
EBF7  A5 47     LDA $47 = EC                    A:53 X:02 Y:AD P:27 SP:FB PPU:163, 88
EBF9  C9 EC     CMP #$EC                        A:EC X:02 Y:AD P:A5 SP:FB PPU:163, 97
EBFB  F0 02     BEQ $EBFF                       A:EC X:02 Y:AD P:27 SP:FB PPU:163,103
EBFF  C8        INY                             A:EC X:02 Y:AD P:27 SP:FB PPU:163,112
EC00  A9 FF     LDA #$FF                        A:EC X:02 Y:AE P:A5 SP:FB PPU:163,118
EC02  85 47     STA $47 = EC                    A:FF X:02 Y:AE P:A5 SP:FB PPU:163,124
EC04  20 C2 FA  JSR $FAC2                       A:FF X:02 Y:AE P:A5 SP:FB PPU:163,133
FAC2  B8        CLV                             A:FF X:02 Y:AE P:A5 SP:F9 PPU:163,151
FAC3  38        SEC                             A:FF X:02 Y:AE P:A5 SP:F9 PPU:163,157
FAC4  A9 FF     LDA #$FF                        A:FF X:02 Y:AE P:A5 SP:F9 PPU:163,163
FAC6  60        RTS                             A:FF X:02 Y:AE P:A5 SP:F9 PPU:163,169
EC07  E7 47    *ISB $47 = FF                    A:FF X:02 Y:AE P:A5 SP:FB PPU:163,187
EC09  EA        NOP                             A:FF X:02 Y:AE P:A5 SP:FB PPU:163,202
EC0A  EA        NOP                             A:FF X:02 Y:AE P:A5 SP:FB PPU:163,208
EC0B  EA        NOP                             A:FF X:02 Y:AE P:A5 SP:FB PPU:163,214
EC0C  EA        NOP                             A:FF X:02 Y:AE P:A5 SP:FB PPU:163,220
EC0D  20 C7 FA  JSR $FAC7                       A:FF X:02 Y:AE P:A5 SP:FB PPU:163,226
FAC7  70 1D     BVS $FAE6                       A:FF X:02 Y:AE P:A5 SP:F9 PPU:163,244
FAC9  F0 1B     BEQ $FAE6                       A:FF X:02 Y:AE P:A5 SP:F9 PPU:163,250
FACB  10 19     BPL $FAE6                       A:FF X:02 Y:AE P:A5 SP:F9 PPU:163,256
FACD  90 17     BCC $FAE6                       A:FF X:02 Y:AE P:A5 SP:F9 PPU:163,262
FACF  C9 FF     CMP #$FF                        A:FF X:02 Y:AE P:A5 SP:F9 PPU:163,268
FAD1  D0 13     BNE $FAE6                       A:FF X:02 Y:AE P:27 SP:F9 PPU:163,274
FAD3  60        RTS                             A:FF X:02 Y:AE P:27 SP:F9 PPU:163,280
EC10  A5 47     LDA $47 = 00                    A:FF X:02 Y:AE P:27 SP:FB PPU:163,298
EC12  C9 00     CMP #$00                        A:00 X:02 Y:AE P:27 SP:FB PPU:163,307
EC14  F0 02     BEQ $EC18                       A:00 X:02 Y:AE P:27 SP:FB PPU:163,313
EC18  C8        INY                             A:00 X:02 Y:AE P:27 SP:FB PPU:163,322
EC19  A9 37     LDA #$37                        A:00 X:02 Y:AF P:A5 SP:FB PPU:163,328
EC1B  85 47     STA $47 = 00                    A:37 X:02 Y:AF P:25 SP:FB PPU:163,334
EC1D  20 D4 FA  JSR $FAD4                       A:37 X:02 Y:AF P:25 SP:FB PPU:164,  2
FAD4  24 01     BIT $01 = FF                    A:37 X:02 Y:AF P:25 SP:F9 PPU:164, 20
FAD6  38        SEC                             A:37 X:02 Y:AF P:E5 SP:F9 PPU:164, 29
FAD7  A9 F0     LDA #$F0                        A:37 X:02 Y:AF P:E5 SP:F9 PPU:164, 35
FAD9  60        RTS                             A:F0 X:02 Y:AF P:E5 SP:F9 PPU:164, 41
EC20  E7 47    *ISB $47 = 37                    A:F0 X:02 Y:AF P:E5 SP:FB PPU:164, 59
EC22  EA        NOP                             A:B8 X:02 Y:AF P:A5 SP:FB PPU:164, 74
EC23  EA        NOP                             A:B8 X:02 Y:AF P:A5 SP:FB PPU:164, 80
EC24  EA        NOP                             A:B8 X:02 Y:AF P:A5 SP:FB PPU:164, 86
EC25  EA        NOP                             A:B8 X:02 Y:AF P:A5 SP:FB PPU:164, 92
EC26  20 DA FA  JSR $FADA                       A:B8 X:02 Y:AF P:A5 SP:FB PPU:164, 98
FADA  70 0A     BVS $FAE6                       A:B8 X:02 Y:AF P:A5 SP:F9 PPU:164,116
FADC  F0 08     BEQ $FAE6                       A:B8 X:02 Y:AF P:A5 SP:F9 PPU:164,122
FADE  10 06     BPL $FAE6                       A:B8 X:02 Y:AF P:A5 SP:F9 PPU:164,128
FAE0  90 04     BCC $FAE6                       A:B8 X:02 Y:AF P:A5 SP:F9 PPU:164,134
FAE2  C9 B8     CMP #$B8                        A:B8 X:02 Y:AF P:A5 SP:F9 PPU:164,140
FAE4  F0 02     BEQ $FAE8                       A:B8 X:02 Y:AF P:27 SP:F9 PPU:164,146
FAE8  60        RTS                             A:B8 X:02 Y:AF P:27 SP:F9 PPU:164,155
EC29  A5 47     LDA $47 = 38                    A:B8 X:02 Y:AF P:27 SP:FB PPU:164,173
EC2B  C9 38     CMP #$38                        A:38 X:02 Y:AF P:25 SP:FB PPU:164,182
EC2D  F0 02     BEQ $EC31                       A:38 X:02 Y:AF P:27 SP:FB PPU:164,188
EC31  C8        INY                             A:38 X:02 Y:AF P:27 SP:FB PPU:164,197
EC32  A9 EB     LDA #$EB                        A:38 X:02 Y:B0 P:A5 SP:FB PPU:164,203
EC34  8D 47 06  STA $0647 = 38                  A:EB X:02 Y:B0 P:A5 SP:FB PPU:164,209
EC37  20 B1 FA  JSR $FAB1                       A:EB X:02 Y:B0 P:A5 SP:FB PPU:164,221
FAB1  24 01     BIT $01 = FF                    A:EB X:02 Y:B0 P:A5 SP:F9 PPU:164,239
FAB3  18        CLC                             A:EB X:02 Y:B0 P:E5 SP:F9 PPU:164,248
FAB4  A9 40     LDA #$40                        A:EB X:02 Y:B0 P:E4 SP:F9 PPU:164,254
FAB6  60        RTS                             A:40 X:02 Y:B0 P:64 SP:F9 PPU:164,260
EC3A  EF 47 06 *ISB $0647 = EB                  A:40 X:02 Y:B0 P:64 SP:FB PPU:164,278
EC3D  EA        NOP                             A:53 X:02 Y:B0 P:24 SP:FB PPU:164,296
EC3E  EA        NOP                             A:53 X:02 Y:B0 P:24 SP:FB PPU:164,302
EC3F  EA        NOP                             A:53 X:02 Y:B0 P:24 SP:FB PPU:164,308
EC40  EA        NOP                             A:53 X:02 Y:B0 P:24 SP:FB PPU:164,314
EC41  20 B7 FA  JSR $FAB7                       A:53 X:02 Y:B0 P:24 SP:FB PPU:164,320
FAB7  70 2D     BVS $FAE6                       A:53 X:02 Y:B0 P:24 SP:F9 PPU:164,338
FAB9  B0 2B     BCS $FAE6                       A:53 X:02 Y:B0 P:24 SP:F9 PPU:165,  3
FABB  30 29     BMI $FAE6                       A:53 X:02 Y:B0 P:24 SP:F9 PPU:165,  9
FABD  C9 53     CMP #$53                        A:53 X:02 Y:B0 P:24 SP:F9 PPU:165, 15
FABF  D0 25     BNE $FAE6                       A:53 X:02 Y:B0 P:27 SP:F9 PPU:165, 21
FAC1  60        RTS                             A:53 X:02 Y:B0 P:27 SP:F9 PPU:165, 27
EC44  AD 47 06  LDA $0647 = EC                  A:53 X:02 Y:B0 P:27 SP:FB PPU:165, 45
EC47  C9 EC     CMP #$EC                        A:EC X:02 Y:B0 P:A5 SP:FB PPU:165, 57
EC49  F0 02     BEQ $EC4D                       A:EC X:02 Y:B0 P:27 SP:FB PPU:165, 63
EC4D  C8        INY                             A:EC X:02 Y:B0 P:27 SP:FB PPU:165, 72
EC4E  A9 FF     LDA #$FF                        A:EC X:02 Y:B1 P:A5 SP:FB PPU:165, 78
EC50  8D 47 06  STA $0647 = EC                  A:FF X:02 Y:B1 P:A5 SP:FB PPU:165, 84
EC53  20 C2 FA  JSR $FAC2                       A:FF X:02 Y:B1 P:A5 SP:FB PPU:165, 96
FAC2  B8        CLV                             A:FF X:02 Y:B1 P:A5 SP:F9 PPU:165,114
FAC3  38        SEC                             A:FF X:02 Y:B1 P:A5 SP:F9 PPU:165,120
FAC4  A9 FF     LDA #$FF                        A:FF X:02 Y:B1 P:A5 SP:F9 PPU:165,126
FAC6  60        RTS                             A:FF X:02 Y:B1 P:A5 SP:F9 PPU:165,132
EC56  EF 47 06 *ISB $0647 = FF                  A:FF X:02 Y:B1 P:A5 SP:FB PPU:165,150
EC59  EA        NOP                             A:FF X:02 Y:B1 P:A5 SP:FB PPU:165,168
EC5A  EA        NOP                             A:FF X:02 Y:B1 P:A5 SP:FB PPU:165,174
EC5B  EA        NOP                             A:FF X:02 Y:B1 P:A5 SP:FB PPU:165,180
EC5C  EA        NOP                             A:FF X:02 Y:B1 P:A5 SP:FB PPU:165,186
EC5D  20 C7 FA  JSR $FAC7                       A:FF X:02 Y:B1 P:A5 SP:FB PPU:165,192
FAC7  70 1D     BVS $FAE6                       A:FF X:02 Y:B1 P:A5 SP:F9 PPU:165,210
FAC9  F0 1B     BEQ $FAE6                       A:FF X:02 Y:B1 P:A5 SP:F9 PPU:165,216
FACB  10 19     BPL $FAE6                       A:FF X:02 Y:B1 P:A5 SP:F9 PPU:165,222
FACD  90 17     BCC $FAE6                       A:FF X:02 Y:B1 P:A5 SP:F9 PPU:165,228
FACF  C9 FF     CMP #$FF                        A:FF X:02 Y:B1 P:A5 SP:F9 PPU:165,234
FAD1  D0 13     BNE $FAE6                       A:FF X:02 Y:B1 P:27 SP:F9 PPU:165,240
FAD3  60        RTS                             A:FF X:02 Y:B1 P:27 SP:F9 PPU:165,246
EC60  AD 47 06  LDA $0647 = 00                  A:FF X:02 Y:B1 P:27 SP:FB PPU:165,264
EC63  C9 00     CMP #$00                        A:00 X:02 Y:B1 P:27 SP:FB PPU:165,276
EC65  F0 02     BEQ $EC69                       A:00 X:02 Y:B1 P:27 SP:FB PPU:165,282
EC69  C8        INY                             A:00 X:02 Y:B1 P:27 SP:FB PPU:165,291
EC6A  A9 37     LDA #$37                        A:00 X:02 Y:B2 P:A5 SP:FB PPU:165,297
EC6C  8D 47 06  STA $0647 = 00                  A:37 X:02 Y:B2 P:25 SP:FB PPU:165,303
EC6F  20 D4 FA  JSR $FAD4                       A:37 X:02 Y:B2 P:25 SP:FB PPU:165,315
FAD4  24 01     BIT $01 = FF                    A:37 X:02 Y:B2 P:25 SP:F9 PPU:165,333
FAD6  38        SEC                             A:37 X:02 Y:B2 P:E5 SP:F9 PPU:166,  1
FAD7  A9 F0     LDA #$F0                        A:37 X:02 Y:B2 P:E5 SP:F9 PPU:166,  7
FAD9  60        RTS                             A:F0 X:02 Y:B2 P:E5 SP:F9 PPU:166, 13
EC72  EF 47 06 *ISB $0647 = 37                  A:F0 X:02 Y:B2 P:E5 SP:FB PPU:166, 31
EC75  EA        NOP                             A:B8 X:02 Y:B2 P:A5 SP:FB PPU:166, 49
EC76  EA        NOP                             A:B8 X:02 Y:B2 P:A5 SP:FB PPU:166, 55
EC77  EA        NOP                             A:B8 X:02 Y:B2 P:A5 SP:FB PPU:166, 61
EC78  EA        NOP                             A:B8 X:02 Y:B2 P:A5 SP:FB PPU:166, 67
EC79  20 DA FA  JSR $FADA                       A:B8 X:02 Y:B2 P:A5 SP:FB PPU:166, 73
FADA  70 0A     BVS $FAE6                       A:B8 X:02 Y:B2 P:A5 SP:F9 PPU:166, 91
FADC  F0 08     BEQ $FAE6                       A:B8 X:02 Y:B2 P:A5 SP:F9 PPU:166, 97
FADE  10 06     BPL $FAE6                       A:B8 X:02 Y:B2 P:A5 SP:F9 PPU:166,103
FAE0  90 04     BCC $FAE6                       A:B8 X:02 Y:B2 P:A5 SP:F9 PPU:166,109
FAE2  C9 B8     CMP #$B8                        A:B8 X:02 Y:B2 P:A5 SP:F9 PPU:166,115
FAE4  F0 02     BEQ $FAE8                       A:B8 X:02 Y:B2 P:27 SP:F9 PPU:166,121
FAE8  60        RTS                             A:B8 X:02 Y:B2 P:27 SP:F9 PPU:166,130
EC7C  AD 47 06  LDA $0647 = 38                  A:B8 X:02 Y:B2 P:27 SP:FB PPU:166,148
EC7F  C9 38     CMP #$38                        A:38 X:02 Y:B2 P:25 SP:FB PPU:166,160
EC81  F0 02     BEQ $EC85                       A:38 X:02 Y:B2 P:27 SP:FB PPU:166,166
EC85  A9 EB     LDA #$EB                        A:38 X:02 Y:B2 P:27 SP:FB PPU:166,175
EC87  8D 47 06  STA $0647 = 38                  A:EB X:02 Y:B2 P:A5 SP:FB PPU:166,181
EC8A  A9 48     LDA #$48                        A:EB X:02 Y:B2 P:A5 SP:FB PPU:166,193
EC8C  85 45     STA $45 = 48                    A:48 X:02 Y:B2 P:25 SP:FB PPU:166,199
EC8E  A9 05     LDA #$05                        A:48 X:02 Y:B2 P:25 SP:FB PPU:166,208
EC90  85 46     STA $46 = 05                    A:05 X:02 Y:B2 P:25 SP:FB PPU:166,214
EC92  A0 FF     LDY #$FF                        A:05 X:02 Y:B2 P:25 SP:FB PPU:166,223
EC94  20 B1 FA  JSR $FAB1                       A:05 X:02 Y:FF P:A5 SP:FB PPU:166,229
FAB1  24 01     BIT $01 = FF                    A:05 X:02 Y:FF P:A5 SP:F9 PPU:166,247
FAB3  18        CLC                             A:05 X:02 Y:FF P:E5 SP:F9 PPU:166,256
FAB4  A9 40     LDA #$40                        A:05 X:02 Y:FF P:E4 SP:F9 PPU:166,262
FAB6  60        RTS                             A:40 X:02 Y:FF P:64 SP:F9 PPU:166,268
EC97  F3 45    *ISB ($45),Y = 0548 @ 0647 = EB  A:40 X:02 Y:FF P:64 SP:FB PPU:166,286
EC99  EA        NOP                             A:53 X:02 Y:FF P:24 SP:FB PPU:166,310
EC9A  EA        NOP                             A:53 X:02 Y:FF P:24 SP:FB PPU:166,316
EC9B  08        PHP                             A:53 X:02 Y:FF P:24 SP:FB PPU:166,322
EC9C  48        PHA                             A:53 X:02 Y:FF P:24 SP:FA PPU:166,331
EC9D  A0 B3     LDY #$B3                        A:53 X:02 Y:FF P:24 SP:F9 PPU:166,340
EC9F  68        PLA                             A:53 X:02 Y:B3 P:A4 SP:F9 PPU:167,  5
ECA0  28        PLP                             A:53 X:02 Y:B3 P:24 SP:FA PPU:167, 17
ECA1  20 B7 FA  JSR $FAB7                       A:53 X:02 Y:B3 P:24 SP:FB PPU:167, 29
FAB7  70 2D     BVS $FAE6                       A:53 X:02 Y:B3 P:24 SP:F9 PPU:167, 47
FAB9  B0 2B     BCS $FAE6                       A:53 X:02 Y:B3 P:24 SP:F9 PPU:167, 53
FABB  30 29     BMI $FAE6                       A:53 X:02 Y:B3 P:24 SP:F9 PPU:167, 59
FABD  C9 53     CMP #$53                        A:53 X:02 Y:B3 P:24 SP:F9 PPU:167, 65
FABF  D0 25     BNE $FAE6                       A:53 X:02 Y:B3 P:27 SP:F9 PPU:167, 71
FAC1  60        RTS                             A:53 X:02 Y:B3 P:27 SP:F9 PPU:167, 77
ECA4  AD 47 06  LDA $0647 = EC                  A:53 X:02 Y:B3 P:27 SP:FB PPU:167, 95
ECA7  C9 EC     CMP #$EC                        A:EC X:02 Y:B3 P:A5 SP:FB PPU:167,107
ECA9  F0 02     BEQ $ECAD                       A:EC X:02 Y:B3 P:27 SP:FB PPU:167,113
ECAD  A0 FF     LDY #$FF                        A:EC X:02 Y:B3 P:27 SP:FB PPU:167,122
ECAF  A9 FF     LDA #$FF                        A:EC X:02 Y:FF P:A5 SP:FB PPU:167,128
ECB1  8D 47 06  STA $0647 = EC                  A:FF X:02 Y:FF P:A5 SP:FB PPU:167,134
ECB4  20 C2 FA  JSR $FAC2                       A:FF X:02 Y:FF P:A5 SP:FB PPU:167,146
FAC2  B8        CLV                             A:FF X:02 Y:FF P:A5 SP:F9 PPU:167,164
FAC3  38        SEC                             A:FF X:02 Y:FF P:A5 SP:F9 PPU:167,170
FAC4  A9 FF     LDA #$FF                        A:FF X:02 Y:FF P:A5 SP:F9 PPU:167,176
FAC6  60        RTS                             A:FF X:02 Y:FF P:A5 SP:F9 PPU:167,182
ECB7  F3 45    *ISB ($45),Y = 0548 @ 0647 = FF  A:FF X:02 Y:FF P:A5 SP:FB PPU:167,200
ECB9  EA        NOP                             A:FF X:02 Y:FF P:A5 SP:FB PPU:167,224
ECBA  EA        NOP                             A:FF X:02 Y:FF P:A5 SP:FB PPU:167,230
ECBB  08        PHP                             A:FF X:02 Y:FF P:A5 SP:FB PPU:167,236
ECBC  48        PHA                             A:FF X:02 Y:FF P:A5 SP:FA PPU:167,245
ECBD  A0 B4     LDY #$B4                        A:FF X:02 Y:FF P:A5 SP:F9 PPU:167,254
ECBF  68        PLA                             A:FF X:02 Y:B4 P:A5 SP:F9 PPU:167,260
ECC0  28        PLP                             A:FF X:02 Y:B4 P:A5 SP:FA PPU:167,272
ECC1  20 C7 FA  JSR $FAC7                       A:FF X:02 Y:B4 P:A5 SP:FB PPU:167,284
FAC7  70 1D     BVS $FAE6                       A:FF X:02 Y:B4 P:A5 SP:F9 PPU:167,302
FAC9  F0 1B     BEQ $FAE6                       A:FF X:02 Y:B4 P:A5 SP:F9 PPU:167,308
FACB  10 19     BPL $FAE6                       A:FF X:02 Y:B4 P:A5 SP:F9 PPU:167,314
FACD  90 17     BCC $FAE6                       A:FF X:02 Y:B4 P:A5 SP:F9 PPU:167,320
FACF  C9 FF     CMP #$FF                        A:FF X:02 Y:B4 P:A5 SP:F9 PPU:167,326
FAD1  D0 13     BNE $FAE6                       A:FF X:02 Y:B4 P:27 SP:F9 PPU:167,332
FAD3  60        RTS                             A:FF X:02 Y:B4 P:27 SP:F9 PPU:167,338
ECC4  AD 47 06  LDA $0647 = 00                  A:FF X:02 Y:B4 P:27 SP:FB PPU:168, 15
ECC7  C9 00     CMP #$00                        A:00 X:02 Y:B4 P:27 SP:FB PPU:168, 27
ECC9  F0 02     BEQ $ECCD                       A:00 X:02 Y:B4 P:27 SP:FB PPU:168, 33
ECCD  A0 FF     LDY #$FF                        A:00 X:02 Y:B4 P:27 SP:FB PPU:168, 42
ECCF  A9 37     LDA #$37                        A:00 X:02 Y:FF P:A5 SP:FB PPU:168, 48
ECD1  8D 47 06  STA $0647 = 00                  A:37 X:02 Y:FF P:25 SP:FB PPU:168, 54
ECD4  20 D4 FA  JSR $FAD4                       A:37 X:02 Y:FF P:25 SP:FB PPU:168, 66
FAD4  24 01     BIT $01 = FF                    A:37 X:02 Y:FF P:25 SP:F9 PPU:168, 84
FAD6  38        SEC                             A:37 X:02 Y:FF P:E5 SP:F9 PPU:168, 93
FAD7  A9 F0     LDA #$F0                        A:37 X:02 Y:FF P:E5 SP:F9 PPU:168, 99
FAD9  60        RTS                             A:F0 X:02 Y:FF P:E5 SP:F9 PPU:168,105
ECD7  F3 45    *ISB ($45),Y = 0548 @ 0647 = 37  A:F0 X:02 Y:FF P:E5 SP:FB PPU:168,123
ECD9  EA        NOP                             A:B8 X:02 Y:FF P:A5 SP:FB PPU:168,147
ECDA  EA        NOP                             A:B8 X:02 Y:FF P:A5 SP:FB PPU:168,153
ECDB  08        PHP                             A:B8 X:02 Y:FF P:A5 SP:FB PPU:168,159
ECDC  48        PHA                             A:B8 X:02 Y:FF P:A5 SP:FA PPU:168,168
ECDD  A0 B5     LDY #$B5                        A:B8 X:02 Y:FF P:A5 SP:F9 PPU:168,177
ECDF  68        PLA                             A:B8 X:02 Y:B5 P:A5 SP:F9 PPU:168,183
ECE0  28        PLP                             A:B8 X:02 Y:B5 P:A5 SP:FA PPU:168,195
ECE1  20 DA FA  JSR $FADA                       A:B8 X:02 Y:B5 P:A5 SP:FB PPU:168,207
FADA  70 0A     BVS $FAE6                       A:B8 X:02 Y:B5 P:A5 SP:F9 PPU:168,225
FADC  F0 08     BEQ $FAE6                       A:B8 X:02 Y:B5 P:A5 SP:F9 PPU:168,231
FADE  10 06     BPL $FAE6                       A:B8 X:02 Y:B5 P:A5 SP:F9 PPU:168,237
FAE0  90 04     BCC $FAE6                       A:B8 X:02 Y:B5 P:A5 SP:F9 PPU:168,243
FAE2  C9 B8     CMP #$B8                        A:B8 X:02 Y:B5 P:A5 SP:F9 PPU:168,249
FAE4  F0 02     BEQ $FAE8                       A:B8 X:02 Y:B5 P:27 SP:F9 PPU:168,255
FAE8  60        RTS                             A:B8 X:02 Y:B5 P:27 SP:F9 PPU:168,264
ECE4  AD 47 06  LDA $0647 = 38                  A:B8 X:02 Y:B5 P:27 SP:FB PPU:168,282
ECE7  C9 38     CMP #$38                        A:38 X:02 Y:B5 P:25 SP:FB PPU:168,294
ECE9  F0 02     BEQ $ECED                       A:38 X:02 Y:B5 P:27 SP:FB PPU:168,300
ECED  A0 B6     LDY #$B6                        A:38 X:02 Y:B5 P:27 SP:FB PPU:168,309
ECEF  A2 FF     LDX #$FF                        A:38 X:02 Y:B6 P:A5 SP:FB PPU:168,315
ECF1  A9 EB     LDA #$EB                        A:38 X:FF Y:B6 P:A5 SP:FB PPU:168,321
ECF3  85 47     STA $47 = 38                    A:EB X:FF Y:B6 P:A5 SP:FB PPU:168,327
ECF5  20 B1 FA  JSR $FAB1                       A:EB X:FF Y:B6 P:A5 SP:FB PPU:168,336
FAB1  24 01     BIT $01 = FF                    A:EB X:FF Y:B6 P:A5 SP:F9 PPU:169, 13
FAB3  18        CLC                             A:EB X:FF Y:B6 P:E5 SP:F9 PPU:169, 22
FAB4  A9 40     LDA #$40                        A:EB X:FF Y:B6 P:E4 SP:F9 PPU:169, 28
FAB6  60        RTS                             A:40 X:FF Y:B6 P:64 SP:F9 PPU:169, 34
ECF8  F7 48    *ISB $48,X @ 47 = EB             A:40 X:FF Y:B6 P:64 SP:FB PPU:169, 52
ECFA  EA        NOP                             A:53 X:FF Y:B6 P:24 SP:FB PPU:169, 70
ECFB  EA        NOP                             A:53 X:FF Y:B6 P:24 SP:FB PPU:169, 76
ECFC  EA        NOP                             A:53 X:FF Y:B6 P:24 SP:FB PPU:169, 82
ECFD  EA        NOP                             A:53 X:FF Y:B6 P:24 SP:FB PPU:169, 88
ECFE  20 B7 FA  JSR $FAB7                       A:53 X:FF Y:B6 P:24 SP:FB PPU:169, 94
FAB7  70 2D     BVS $FAE6                       A:53 X:FF Y:B6 P:24 SP:F9 PPU:169,112
FAB9  B0 2B     BCS $FAE6                       A:53 X:FF Y:B6 P:24 SP:F9 PPU:169,118
FABB  30 29     BMI $FAE6                       A:53 X:FF Y:B6 P:24 SP:F9 PPU:169,124
FABD  C9 53     CMP #$53                        A:53 X:FF Y:B6 P:24 SP:F9 PPU:169,130
FABF  D0 25     BNE $FAE6                       A:53 X:FF Y:B6 P:27 SP:F9 PPU:169,136
FAC1  60        RTS                             A:53 X:FF Y:B6 P:27 SP:F9 PPU:169,142
ED01  A5 47     LDA $47 = EC                    A:53 X:FF Y:B6 P:27 SP:FB PPU:169,160
ED03  C9 EC     CMP #$EC                        A:EC X:FF Y:B6 P:A5 SP:FB PPU:169,169
ED05  F0 02     BEQ $ED09                       A:EC X:FF Y:B6 P:27 SP:FB PPU:169,175
ED09  C8        INY                             A:EC X:FF Y:B6 P:27 SP:FB PPU:169,184
ED0A  A9 FF     LDA #$FF                        A:EC X:FF Y:B7 P:A5 SP:FB PPU:169,190
ED0C  85 47     STA $47 = EC                    A:FF X:FF Y:B7 P:A5 SP:FB PPU:169,196
ED0E  20 C2 FA  JSR $FAC2                       A:FF X:FF Y:B7 P:A5 SP:FB PPU:169,205
FAC2  B8        CLV                             A:FF X:FF Y:B7 P:A5 SP:F9 PPU:169,223
FAC3  38        SEC                             A:FF X:FF Y:B7 P:A5 SP:F9 PPU:169,229
FAC4  A9 FF     LDA #$FF                        A:FF X:FF Y:B7 P:A5 SP:F9 PPU:169,235
FAC6  60        RTS                             A:FF X:FF Y:B7 P:A5 SP:F9 PPU:169,241
ED11  F7 48    *ISB $48,X @ 47 = FF             A:FF X:FF Y:B7 P:A5 SP:FB PPU:169,259
ED13  EA        NOP                             A:FF X:FF Y:B7 P:A5 SP:FB PPU:169,277
ED14  EA        NOP                             A:FF X:FF Y:B7 P:A5 SP:FB PPU:169,283
ED15  EA        NOP                             A:FF X:FF Y:B7 P:A5 SP:FB PPU:169,289
ED16  EA        NOP                             A:FF X:FF Y:B7 P:A5 SP:FB PPU:169,295
ED17  20 C7 FA  JSR $FAC7                       A:FF X:FF Y:B7 P:A5 SP:FB PPU:169,301
FAC7  70 1D     BVS $FAE6                       A:FF X:FF Y:B7 P:A5 SP:F9 PPU:169,319
FAC9  F0 1B     BEQ $FAE6                       A:FF X:FF Y:B7 P:A5 SP:F9 PPU:169,325
FACB  10 19     BPL $FAE6                       A:FF X:FF Y:B7 P:A5 SP:F9 PPU:169,331
FACD  90 17     BCC $FAE6                       A:FF X:FF Y:B7 P:A5 SP:F9 PPU:169,337
FACF  C9 FF     CMP #$FF                        A:FF X:FF Y:B7 P:A5 SP:F9 PPU:170,  2
FAD1  D0 13     BNE $FAE6                       A:FF X:FF Y:B7 P:27 SP:F9 PPU:170,  8
FAD3  60        RTS                             A:FF X:FF Y:B7 P:27 SP:F9 PPU:170, 14
ED1A  A5 47     LDA $47 = 00                    A:FF X:FF Y:B7 P:27 SP:FB PPU:170, 32
ED1C  C9 00     CMP #$00                        A:00 X:FF Y:B7 P:27 SP:FB PPU:170, 41
ED1E  F0 02     BEQ $ED22                       A:00 X:FF Y:B7 P:27 SP:FB PPU:170, 47
ED22  C8        INY                             A:00 X:FF Y:B7 P:27 SP:FB PPU:170, 56
ED23  A9 37     LDA #$37                        A:00 X:FF Y:B8 P:A5 SP:FB PPU:170, 62
ED25  85 47     STA $47 = 00                    A:37 X:FF Y:B8 P:25 SP:FB PPU:170, 68
ED27  20 D4 FA  JSR $FAD4                       A:37 X:FF Y:B8 P:25 SP:FB PPU:170, 77
FAD4  24 01     BIT $01 = FF                    A:37 X:FF Y:B8 P:25 SP:F9 PPU:170, 95
FAD6  38        SEC                             A:37 X:FF Y:B8 P:E5 SP:F9 PPU:170,104
FAD7  A9 F0     LDA #$F0                        A:37 X:FF Y:B8 P:E5 SP:F9 PPU:170,110
FAD9  60        RTS                             A:F0 X:FF Y:B8 P:E5 SP:F9 PPU:170,116
ED2A  F7 48    *ISB $48,X @ 47 = 37             A:F0 X:FF Y:B8 P:E5 SP:FB PPU:170,134
ED2C  EA        NOP                             A:B8 X:FF Y:B8 P:A5 SP:FB PPU:170,152
ED2D  EA        NOP                             A:B8 X:FF Y:B8 P:A5 SP:FB PPU:170,158
ED2E  EA        NOP                             A:B8 X:FF Y:B8 P:A5 SP:FB PPU:170,164
ED2F  EA        NOP                             A:B8 X:FF Y:B8 P:A5 SP:FB PPU:170,170
ED30  20 DA FA  JSR $FADA                       A:B8 X:FF Y:B8 P:A5 SP:FB PPU:170,176
FADA  70 0A     BVS $FAE6                       A:B8 X:FF Y:B8 P:A5 SP:F9 PPU:170,194
FADC  F0 08     BEQ $FAE6                       A:B8 X:FF Y:B8 P:A5 SP:F9 PPU:170,200
FADE  10 06     BPL $FAE6                       A:B8 X:FF Y:B8 P:A5 SP:F9 PPU:170,206
FAE0  90 04     BCC $FAE6                       A:B8 X:FF Y:B8 P:A5 SP:F9 PPU:170,212
FAE2  C9 B8     CMP #$B8                        A:B8 X:FF Y:B8 P:A5 SP:F9 PPU:170,218
FAE4  F0 02     BEQ $FAE8                       A:B8 X:FF Y:B8 P:27 SP:F9 PPU:170,224
FAE8  60        RTS                             A:B8 X:FF Y:B8 P:27 SP:F9 PPU:170,233
ED33  A5 47     LDA $47 = 38                    A:B8 X:FF Y:B8 P:27 SP:FB PPU:170,251
ED35  C9 38     CMP #$38                        A:38 X:FF Y:B8 P:25 SP:FB PPU:170,260
ED37  F0 02     BEQ $ED3B                       A:38 X:FF Y:B8 P:27 SP:FB PPU:170,266
ED3B  A9 EB     LDA #$EB                        A:38 X:FF Y:B8 P:27 SP:FB PPU:170,275
ED3D  8D 47 06  STA $0647 = 38                  A:EB X:FF Y:B8 P:A5 SP:FB PPU:170,281
ED40  A0 FF     LDY #$FF                        A:EB X:FF Y:B8 P:A5 SP:FB PPU:170,293
ED42  20 B1 FA  JSR $FAB1                       A:EB X:FF Y:FF P:A5 SP:FB PPU:170,299
FAB1  24 01     BIT $01 = FF                    A:EB X:FF Y:FF P:A5 SP:F9 PPU:170,317
FAB3  18        CLC                             A:EB X:FF Y:FF P:E5 SP:F9 PPU:170,326
FAB4  A9 40     LDA #$40                        A:EB X:FF Y:FF P:E4 SP:F9 PPU:170,332
FAB6  60        RTS                             A:40 X:FF Y:FF P:64 SP:F9 PPU:170,338
ED45  FB 48 05 *ISB $0548,Y @ 0647 = EB         A:40 X:FF Y:FF P:64 SP:FB PPU:171, 15
ED48  EA        NOP                             A:53 X:FF Y:FF P:24 SP:FB PPU:171, 36
ED49  EA        NOP                             A:53 X:FF Y:FF P:24 SP:FB PPU:171, 42
ED4A  08        PHP                             A:53 X:FF Y:FF P:24 SP:FB PPU:171, 48
ED4B  48        PHA                             A:53 X:FF Y:FF P:24 SP:FA PPU:171, 57
ED4C  A0 B9     LDY #$B9                        A:53 X:FF Y:FF P:24 SP:F9 PPU:171, 66
ED4E  68        PLA                             A:53 X:FF Y:B9 P:A4 SP:F9 PPU:171, 72
ED4F  28        PLP                             A:53 X:FF Y:B9 P:24 SP:FA PPU:171, 84
ED50  20 B7 FA  JSR $FAB7                       A:53 X:FF Y:B9 P:24 SP:FB PPU:171, 96
FAB7  70 2D     BVS $FAE6                       A:53 X:FF Y:B9 P:24 SP:F9 PPU:171,114
FAB9  B0 2B     BCS $FAE6                       A:53 X:FF Y:B9 P:24 SP:F9 PPU:171,120
FABB  30 29     BMI $FAE6                       A:53 X:FF Y:B9 P:24 SP:F9 PPU:171,126
FABD  C9 53     CMP #$53                        A:53 X:FF Y:B9 P:24 SP:F9 PPU:171,132
FABF  D0 25     BNE $FAE6                       A:53 X:FF Y:B9 P:27 SP:F9 PPU:171,138
FAC1  60        RTS                             A:53 X:FF Y:B9 P:27 SP:F9 PPU:171,144
ED53  AD 47 06  LDA $0647 = EC                  A:53 X:FF Y:B9 P:27 SP:FB PPU:171,162
ED56  C9 EC     CMP #$EC                        A:EC X:FF Y:B9 P:A5 SP:FB PPU:171,174
ED58  F0 02     BEQ $ED5C                       A:EC X:FF Y:B9 P:27 SP:FB PPU:171,180
ED5C  A0 FF     LDY #$FF                        A:EC X:FF Y:B9 P:27 SP:FB PPU:171,189
ED5E  A9 FF     LDA #$FF                        A:EC X:FF Y:FF P:A5 SP:FB PPU:171,195
ED60  8D 47 06  STA $0647 = EC                  A:FF X:FF Y:FF P:A5 SP:FB PPU:171,201
ED63  20 C2 FA  JSR $FAC2                       A:FF X:FF Y:FF P:A5 SP:FB PPU:171,213
FAC2  B8        CLV                             A:FF X:FF Y:FF P:A5 SP:F9 PPU:171,231
FAC3  38        SEC                             A:FF X:FF Y:FF P:A5 SP:F9 PPU:171,237
FAC4  A9 FF     LDA #$FF                        A:FF X:FF Y:FF P:A5 SP:F9 PPU:171,243
FAC6  60        RTS                             A:FF X:FF Y:FF P:A5 SP:F9 PPU:171,249
ED66  FB 48 05 *ISB $0548,Y @ 0647 = FF         A:FF X:FF Y:FF P:A5 SP:FB PPU:171,267
ED69  EA        NOP                             A:FF X:FF Y:FF P:A5 SP:FB PPU:171,288
ED6A  EA        NOP                             A:FF X:FF Y:FF P:A5 SP:FB PPU:171,294
ED6B  08        PHP                             A:FF X:FF Y:FF P:A5 SP:FB PPU:171,300
ED6C  48        PHA                             A:FF X:FF Y:FF P:A5 SP:FA PPU:171,309
ED6D  A0 BA     LDY #$BA                        A:FF X:FF Y:FF P:A5 SP:F9 PPU:171,318
ED6F  68        PLA                             A:FF X:FF Y:BA P:A5 SP:F9 PPU:171,324
ED70  28        PLP                             A:FF X:FF Y:BA P:A5 SP:FA PPU:171,336
ED71  20 C7 FA  JSR $FAC7                       A:FF X:FF Y:BA P:A5 SP:FB PPU:172,  7
FAC7  70 1D     BVS $FAE6                       A:FF X:FF Y:BA P:A5 SP:F9 PPU:172, 25
FAC9  F0 1B     BEQ $FAE6                       A:FF X:FF Y:BA P:A5 SP:F9 PPU:172, 31
FACB  10 19     BPL $FAE6                       A:FF X:FF Y:BA P:A5 SP:F9 PPU:172, 37
FACD  90 17     BCC $FAE6                       A:FF X:FF Y:BA P:A5 SP:F9 PPU:172, 43
FACF  C9 FF     CMP #$FF                        A:FF X:FF Y:BA P:A5 SP:F9 PPU:172, 49
FAD1  D0 13     BNE $FAE6                       A:FF X:FF Y:BA P:27 SP:F9 PPU:172, 55
FAD3  60        RTS                             A:FF X:FF Y:BA P:27 SP:F9 PPU:172, 61
ED74  AD 47 06  LDA $0647 = 00                  A:FF X:FF Y:BA P:27 SP:FB PPU:172, 79
ED77  C9 00     CMP #$00                        A:00 X:FF Y:BA P:27 SP:FB PPU:172, 91
ED79  F0 02     BEQ $ED7D                       A:00 X:FF Y:BA P:27 SP:FB PPU:172, 97
ED7D  A0 FF     LDY #$FF                        A:00 X:FF Y:BA P:27 SP:FB PPU:172,106
ED7F  A9 37     LDA #$37                        A:00 X:FF Y:FF P:A5 SP:FB PPU:172,112
ED81  8D 47 06  STA $0647 = 00                  A:37 X:FF Y:FF P:25 SP:FB PPU:172,118
ED84  20 D4 FA  JSR $FAD4                       A:37 X:FF Y:FF P:25 SP:FB PPU:172,130
FAD4  24 01     BIT $01 = FF                    A:37 X:FF Y:FF P:25 SP:F9 PPU:172,148
FAD6  38        SEC                             A:37 X:FF Y:FF P:E5 SP:F9 PPU:172,157
FAD7  A9 F0     LDA #$F0                        A:37 X:FF Y:FF P:E5 SP:F9 PPU:172,163
FAD9  60        RTS                             A:F0 X:FF Y:FF P:E5 SP:F9 PPU:172,169
ED87  FB 48 05 *ISB $0548,Y @ 0647 = 37         A:F0 X:FF Y:FF P:E5 SP:FB PPU:172,187
ED8A  EA        NOP                             A:B8 X:FF Y:FF P:A5 SP:FB PPU:172,208
ED8B  EA        NOP                             A:B8 X:FF Y:FF P:A5 SP:FB PPU:172,214
ED8C  08        PHP                             A:B8 X:FF Y:FF P:A5 SP:FB PPU:172,220
ED8D  48        PHA                             A:B8 X:FF Y:FF P:A5 SP:FA PPU:172,229
ED8E  A0 BB     LDY #$BB                        A:B8 X:FF Y:FF P:A5 SP:F9 PPU:172,238
ED90  68        PLA                             A:B8 X:FF Y:BB P:A5 SP:F9 PPU:172,244
ED91  28        PLP                             A:B8 X:FF Y:BB P:A5 SP:FA PPU:172,256
ED92  20 DA FA  JSR $FADA                       A:B8 X:FF Y:BB P:A5 SP:FB PPU:172,268
FADA  70 0A     BVS $FAE6                       A:B8 X:FF Y:BB P:A5 SP:F9 PPU:172,286
FADC  F0 08     BEQ $FAE6                       A:B8 X:FF Y:BB P:A5 SP:F9 PPU:172,292
FADE  10 06     BPL $FAE6                       A:B8 X:FF Y:BB P:A5 SP:F9 PPU:172,298
FAE0  90 04     BCC $FAE6                       A:B8 X:FF Y:BB P:A5 SP:F9 PPU:172,304
FAE2  C9 B8     CMP #$B8                        A:B8 X:FF Y:BB P:A5 SP:F9 PPU:172,310
FAE4  F0 02     BEQ $FAE8                       A:B8 X:FF Y:BB P:27 SP:F9 PPU:172,316
FAE8  60        RTS                             A:B8 X:FF Y:BB P:27 SP:F9 PPU:172,325
ED95  AD 47 06  LDA $0647 = 38                  A:B8 X:FF Y:BB P:27 SP:FB PPU:173,  2
ED98  C9 38     CMP #$38                        A:38 X:FF Y:BB P:25 SP:FB PPU:173, 14
ED9A  F0 02     BEQ $ED9E                       A:38 X:FF Y:BB P:27 SP:FB PPU:173, 20
ED9E  A0 BC     LDY #$BC                        A:38 X:FF Y:BB P:27 SP:FB PPU:173, 29
EDA0  A2 FF     LDX #$FF                        A:38 X:FF Y:BC P:A5 SP:FB PPU:173, 35
EDA2  A9 EB     LDA #$EB                        A:38 X:FF Y:BC P:A5 SP:FB PPU:173, 41
EDA4  8D 47 06  STA $0647 = 38                  A:EB X:FF Y:BC P:A5 SP:FB PPU:173, 47
EDA7  20 B1 FA  JSR $FAB1                       A:EB X:FF Y:BC P:A5 SP:FB PPU:173, 59
FAB1  24 01     BIT $01 = FF                    A:EB X:FF Y:BC P:A5 SP:F9 PPU:173, 77
FAB3  18        CLC                             A:EB X:FF Y:BC P:E5 SP:F9 PPU:173, 86
FAB4  A9 40     LDA #$40                        A:EB X:FF Y:BC P:E4 SP:F9 PPU:173, 92
FAB6  60        RTS                             A:40 X:FF Y:BC P:64 SP:F9 PPU:173, 98
EDAA  FF 48 05 *ISB $0548,X @ 0647 = EB         A:40 X:FF Y:BC P:64 SP:FB PPU:173,116
EDAD  EA        NOP                             A:53 X:FF Y:BC P:24 SP:FB PPU:173,137
EDAE  EA        NOP                             A:53 X:FF Y:BC P:24 SP:FB PPU:173,143
EDAF  EA        NOP                             A:53 X:FF Y:BC P:24 SP:FB PPU:173,149
EDB0  EA        NOP                             A:53 X:FF Y:BC P:24 SP:FB PPU:173,155
EDB1  20 B7 FA  JSR $FAB7                       A:53 X:FF Y:BC P:24 SP:FB PPU:173,161
FAB7  70 2D     BVS $FAE6                       A:53 X:FF Y:BC P:24 SP:F9 PPU:173,179
FAB9  B0 2B     BCS $FAE6                       A:53 X:FF Y:BC P:24 SP:F9 PPU:173,185
FABB  30 29     BMI $FAE6                       A:53 X:FF Y:BC P:24 SP:F9 PPU:173,191
FABD  C9 53     CMP #$53                        A:53 X:FF Y:BC P:24 SP:F9 PPU:173,197
FABF  D0 25     BNE $FAE6                       A:53 X:FF Y:BC P:27 SP:F9 PPU:173,203
FAC1  60        RTS                             A:53 X:FF Y:BC P:27 SP:F9 PPU:173,209
EDB4  AD 47 06  LDA $0647 = EC                  A:53 X:FF Y:BC P:27 SP:FB PPU:173,227
EDB7  C9 EC     CMP #$EC                        A:EC X:FF Y:BC P:A5 SP:FB PPU:173,239
EDB9  F0 02     BEQ $EDBD                       A:EC X:FF Y:BC P:27 SP:FB PPU:173,245
EDBD  C8        INY                             A:EC X:FF Y:BC P:27 SP:FB PPU:173,254
EDBE  A9 FF     LDA #$FF                        A:EC X:FF Y:BD P:A5 SP:FB PPU:173,260
EDC0  8D 47 06  STA $0647 = EC                  A:FF X:FF Y:BD P:A5 SP:FB PPU:173,266
EDC3  20 C2 FA  JSR $FAC2                       A:FF X:FF Y:BD P:A5 SP:FB PPU:173,278
FAC2  B8        CLV                             A:FF X:FF Y:BD P:A5 SP:F9 PPU:173,296
FAC3  38        SEC                             A:FF X:FF Y:BD P:A5 SP:F9 PPU:173,302
FAC4  A9 FF     LDA #$FF                        A:FF X:FF Y:BD P:A5 SP:F9 PPU:173,308
FAC6  60        RTS                             A:FF X:FF Y:BD P:A5 SP:F9 PPU:173,314
EDC6  FF 48 05 *ISB $0548,X @ 0647 = FF         A:FF X:FF Y:BD P:A5 SP:FB PPU:173,332
EDC9  EA        NOP                             A:FF X:FF Y:BD P:A5 SP:FB PPU:174, 12
EDCA  EA        NOP                             A:FF X:FF Y:BD P:A5 SP:FB PPU:174, 18
EDCB  EA        NOP                             A:FF X:FF Y:BD P:A5 SP:FB PPU:174, 24
EDCC  EA        NOP                             A:FF X:FF Y:BD P:A5 SP:FB PPU:174, 30
EDCD  20 C7 FA  JSR $FAC7                       A:FF X:FF Y:BD P:A5 SP:FB PPU:174, 36
FAC7  70 1D     BVS $FAE6                       A:FF X:FF Y:BD P:A5 SP:F9 PPU:174, 54
FAC9  F0 1B     BEQ $FAE6                       A:FF X:FF Y:BD P:A5 SP:F9 PPU:174, 60
FACB  10 19     BPL $FAE6                       A:FF X:FF Y:BD P:A5 SP:F9 PPU:174, 66
FACD  90 17     BCC $FAE6                       A:FF X:FF Y:BD P:A5 SP:F9 PPU:174, 72
FACF  C9 FF     CMP #$FF                        A:FF X:FF Y:BD P:A5 SP:F9 PPU:174, 78
FAD1  D0 13     BNE $FAE6                       A:FF X:FF Y:BD P:27 SP:F9 PPU:174, 84
FAD3  60        RTS                             A:FF X:FF Y:BD P:27 SP:F9 PPU:174, 90
EDD0  AD 47 06  LDA $0647 = 00                  A:FF X:FF Y:BD P:27 SP:FB PPU:174,108
EDD3  C9 00     CMP #$00                        A:00 X:FF Y:BD P:27 SP:FB PPU:174,120
EDD5  F0 02     BEQ $EDD9                       A:00 X:FF Y:BD P:27 SP:FB PPU:174,126
EDD9  C8        INY                             A:00 X:FF Y:BD P:27 SP:FB PPU:174,135
EDDA  A9 37     LDA #$37                        A:00 X:FF Y:BE P:A5 SP:FB PPU:174,141
EDDC  8D 47 06  STA $0647 = 00                  A:37 X:FF Y:BE P:25 SP:FB PPU:174,147
EDDF  20 D4 FA  JSR $FAD4                       A:37 X:FF Y:BE P:25 SP:FB PPU:174,159
FAD4  24 01     BIT $01 = FF                    A:37 X:FF Y:BE P:25 SP:F9 PPU:174,177
FAD6  38        SEC                             A:37 X:FF Y:BE P:E5 SP:F9 PPU:174,186
FAD7  A9 F0     LDA #$F0                        A:37 X:FF Y:BE P:E5 SP:F9 PPU:174,192
FAD9  60        RTS                             A:F0 X:FF Y:BE P:E5 SP:F9 PPU:174,198
EDE2  FF 48 05 *ISB $0548,X @ 0647 = 37         A:F0 X:FF Y:BE P:E5 SP:FB PPU:174,216
EDE5  EA        NOP                             A:B8 X:FF Y:BE P:A5 SP:FB PPU:174,237
EDE6  EA        NOP                             A:B8 X:FF Y:BE P:A5 SP:FB PPU:174,243
EDE7  EA        NOP                             A:B8 X:FF Y:BE P:A5 SP:FB PPU:174,249
EDE8  EA        NOP                             A:B8 X:FF Y:BE P:A5 SP:FB PPU:174,255
EDE9  20 DA FA  JSR $FADA                       A:B8 X:FF Y:BE P:A5 SP:FB PPU:174,261
FADA  70 0A     BVS $FAE6                       A:B8 X:FF Y:BE P:A5 SP:F9 PPU:174,279
FADC  F0 08     BEQ $FAE6                       A:B8 X:FF Y:BE P:A5 SP:F9 PPU:174,285
FADE  10 06     BPL $FAE6                       A:B8 X:FF Y:BE P:A5 SP:F9 PPU:174,291
FAE0  90 04     BCC $FAE6                       A:B8 X:FF Y:BE P:A5 SP:F9 PPU:174,297
FAE2  C9 B8     CMP #$B8                        A:B8 X:FF Y:BE P:A5 SP:F9 PPU:174,303
FAE4  F0 02     BEQ $FAE8                       A:B8 X:FF Y:BE P:27 SP:F9 PPU:174,309
FAE8  60        RTS                             A:B8 X:FF Y:BE P:27 SP:F9 PPU:174,318
EDEC  AD 47 06  LDA $0647 = 38                  A:B8 X:FF Y:BE P:27 SP:FB PPU:174,336
EDEF  C9 38     CMP #$38                        A:38 X:FF Y:BE P:25 SP:FB PPU:175,  7
EDF1  F0 02     BEQ $EDF5                       A:38 X:FF Y:BE P:27 SP:FB PPU:175, 13
EDF5  60        RTS                             A:38 X:FF Y:BE P:27 SP:FB PPU:175, 22
C641  20 F6 ED  JSR $EDF6                       A:38 X:FF Y:BE P:27 SP:FD PPU:175, 40
EDF6  A9 FF     LDA #$FF                        A:38 X:FF Y:BE P:27 SP:FB PPU:175, 58
EDF8  85 01     STA $01 = FF                    A:FF X:FF Y:BE P:A5 SP:FB PPU:175, 64
EDFA  A0 BF     LDY #$BF                        A:FF X:FF Y:BE P:A5 SP:FB PPU:175, 73
EDFC  A2 02     LDX #$02                        A:FF X:FF Y:BF P:A5 SP:FB PPU:175, 79
EDFE  A9 47     LDA #$47                        A:FF X:02 Y:BF P:25 SP:FB PPU:175, 85
EE00  85 47     STA $47 = 38                    A:47 X:02 Y:BF P:25 SP:FB PPU:175, 91
EE02  A9 06     LDA #$06                        A:47 X:02 Y:BF P:25 SP:FB PPU:175,100
EE04  85 48     STA $48 = 06                    A:06 X:02 Y:BF P:25 SP:FB PPU:175,106
EE06  A9 A5     LDA #$A5                        A:06 X:02 Y:BF P:25 SP:FB PPU:175,115
EE08  8D 47 06  STA $0647 = 38                  A:A5 X:02 Y:BF P:A5 SP:FB PPU:175,121
EE0B  20 7B FA  JSR $FA7B                       A:A5 X:02 Y:BF P:A5 SP:FB PPU:175,133
FA7B  24 01     BIT $01 = FF                    A:A5 X:02 Y:BF P:A5 SP:F9 PPU:175,151
FA7D  18        CLC                             A:A5 X:02 Y:BF P:E5 SP:F9 PPU:175,160
FA7E  A9 B3     LDA #$B3                        A:A5 X:02 Y:BF P:E4 SP:F9 PPU:175,166
FA80  60        RTS                             A:B3 X:02 Y:BF P:E4 SP:F9 PPU:175,172
EE0E  03 45    *SLO ($45,X) @ 47 = 0647 = A5    A:B3 X:02 Y:BF P:E4 SP:FB PPU:175,190
EE10  EA        NOP                             A:FB X:02 Y:BF P:E5 SP:FB PPU:175,214
EE11  EA        NOP                             A:FB X:02 Y:BF P:E5 SP:FB PPU:175,220
EE12  EA        NOP                             A:FB X:02 Y:BF P:E5 SP:FB PPU:175,226
EE13  EA        NOP                             A:FB X:02 Y:BF P:E5 SP:FB PPU:175,232
EE14  20 81 FA  JSR $FA81                       A:FB X:02 Y:BF P:E5 SP:FB PPU:175,238
FA81  50 63     BVC $FAE6                       A:FB X:02 Y:BF P:E5 SP:F9 PPU:175,256
FA83  90 61     BCC $FAE6                       A:FB X:02 Y:BF P:E5 SP:F9 PPU:175,262
FA85  10 5F     BPL $FAE6                       A:FB X:02 Y:BF P:E5 SP:F9 PPU:175,268
FA87  C9 FB     CMP #$FB                        A:FB X:02 Y:BF P:E5 SP:F9 PPU:175,274
FA89  D0 5B     BNE $FAE6                       A:FB X:02 Y:BF P:67 SP:F9 PPU:175,280
FA8B  60        RTS                             A:FB X:02 Y:BF P:67 SP:F9 PPU:175,286
EE17  AD 47 06  LDA $0647 = 4A                  A:FB X:02 Y:BF P:67 SP:FB PPU:175,304
EE1A  C9 4A     CMP #$4A                        A:4A X:02 Y:BF P:65 SP:FB PPU:175,316
EE1C  F0 02     BEQ $EE20                       A:4A X:02 Y:BF P:67 SP:FB PPU:175,322
EE20  C8        INY                             A:4A X:02 Y:BF P:67 SP:FB PPU:175,331
EE21  A9 29     LDA #$29                        A:4A X:02 Y:C0 P:E5 SP:FB PPU:175,337
EE23  8D 47 06  STA $0647 = 4A                  A:29 X:02 Y:C0 P:65 SP:FB PPU:176,  2
EE26  20 8C FA  JSR $FA8C                       A:29 X:02 Y:C0 P:65 SP:FB PPU:176, 14
FA8C  B8        CLV                             A:29 X:02 Y:C0 P:65 SP:F9 PPU:176, 32
FA8D  18        CLC                             A:29 X:02 Y:C0 P:25 SP:F9 PPU:176, 38
FA8E  A9 C3     LDA #$C3                        A:29 X:02 Y:C0 P:24 SP:F9 PPU:176, 44
FA90  60        RTS                             A:C3 X:02 Y:C0 P:A4 SP:F9 PPU:176, 50
EE29  03 45    *SLO ($45,X) @ 47 = 0647 = 29    A:C3 X:02 Y:C0 P:A4 SP:FB PPU:176, 68
EE2B  EA        NOP                             A:D3 X:02 Y:C0 P:A4 SP:FB PPU:176, 92
EE2C  EA        NOP                             A:D3 X:02 Y:C0 P:A4 SP:FB PPU:176, 98
EE2D  EA        NOP                             A:D3 X:02 Y:C0 P:A4 SP:FB PPU:176,104
EE2E  EA        NOP                             A:D3 X:02 Y:C0 P:A4 SP:FB PPU:176,110
EE2F  20 91 FA  JSR $FA91                       A:D3 X:02 Y:C0 P:A4 SP:FB PPU:176,116
FA91  70 53     BVS $FAE6                       A:D3 X:02 Y:C0 P:A4 SP:F9 PPU:176,134
FA93  F0 51     BEQ $FAE6                       A:D3 X:02 Y:C0 P:A4 SP:F9 PPU:176,140
FA95  10 4F     BPL $FAE6                       A:D3 X:02 Y:C0 P:A4 SP:F9 PPU:176,146
FA97  B0 4D     BCS $FAE6                       A:D3 X:02 Y:C0 P:A4 SP:F9 PPU:176,152
FA99  C9 D3     CMP #$D3                        A:D3 X:02 Y:C0 P:A4 SP:F9 PPU:176,158
FA9B  D0 49     BNE $FAE6                       A:D3 X:02 Y:C0 P:27 SP:F9 PPU:176,164
FA9D  60        RTS                             A:D3 X:02 Y:C0 P:27 SP:F9 PPU:176,170
EE32  AD 47 06  LDA $0647 = 52                  A:D3 X:02 Y:C0 P:27 SP:FB PPU:176,188
EE35  C9 52     CMP #$52                        A:52 X:02 Y:C0 P:25 SP:FB PPU:176,200
EE37  F0 02     BEQ $EE3B                       A:52 X:02 Y:C0 P:27 SP:FB PPU:176,206
EE3B  C8        INY                             A:52 X:02 Y:C0 P:27 SP:FB PPU:176,215
EE3C  A9 37     LDA #$37                        A:52 X:02 Y:C1 P:A5 SP:FB PPU:176,221
EE3E  8D 47 06  STA $0647 = 52                  A:37 X:02 Y:C1 P:25 SP:FB PPU:176,227
EE41  20 9E FA  JSR $FA9E                       A:37 X:02 Y:C1 P:25 SP:FB PPU:176,239
FA9E  24 01     BIT $01 = FF                    A:37 X:02 Y:C1 P:25 SP:F9 PPU:176,257
FAA0  38        SEC                             A:37 X:02 Y:C1 P:E5 SP:F9 PPU:176,266
FAA1  A9 10     LDA #$10                        A:37 X:02 Y:C1 P:E5 SP:F9 PPU:176,272
FAA3  60        RTS                             A:10 X:02 Y:C1 P:65 SP:F9 PPU:176,278
EE44  03 45    *SLO ($45,X) @ 47 = 0647 = 37    A:10 X:02 Y:C1 P:65 SP:FB PPU:176,296
EE46  EA        NOP                             A:7E X:02 Y:C1 P:64 SP:FB PPU:176,320
EE47  EA        NOP                             A:7E X:02 Y:C1 P:64 SP:FB PPU:176,326
EE48  EA        NOP                             A:7E X:02 Y:C1 P:64 SP:FB PPU:176,332
EE49  EA        NOP                             A:7E X:02 Y:C1 P:64 SP:FB PPU:176,338
EE4A  20 A4 FA  JSR $FAA4                       A:7E X:02 Y:C1 P:64 SP:FB PPU:177,  3
FAA4  50 40     BVC $FAE6                       A:7E X:02 Y:C1 P:64 SP:F9 PPU:177, 21
FAA6  F0 3E     BEQ $FAE6                       A:7E X:02 Y:C1 P:64 SP:F9 PPU:177, 27
FAA8  30 3C     BMI $FAE6                       A:7E X:02 Y:C1 P:64 SP:F9 PPU:177, 33
FAAA  B0 3A     BCS $FAE6                       A:7E X:02 Y:C1 P:64 SP:F9 PPU:177, 39
FAAC  C9 7E     CMP #$7E                        A:7E X:02 Y:C1 P:64 SP:F9 PPU:177, 45
FAAE  D0 36     BNE $FAE6                       A:7E X:02 Y:C1 P:67 SP:F9 PPU:177, 51
FAB0  60        RTS                             A:7E X:02 Y:C1 P:67 SP:F9 PPU:177, 57
EE4D  AD 47 06  LDA $0647 = 6E                  A:7E X:02 Y:C1 P:67 SP:FB PPU:177, 75
EE50  C9 6E     CMP #$6E                        A:6E X:02 Y:C1 P:65 SP:FB PPU:177, 87
EE52  F0 02     BEQ $EE56                       A:6E X:02 Y:C1 P:67 SP:FB PPU:177, 93
EE56  C8        INY                             A:6E X:02 Y:C1 P:67 SP:FB PPU:177,102
EE57  A9 A5     LDA #$A5                        A:6E X:02 Y:C2 P:E5 SP:FB PPU:177,108
EE59  85 47     STA $47 = 47                    A:A5 X:02 Y:C2 P:E5 SP:FB PPU:177,114
EE5B  20 7B FA  JSR $FA7B                       A:A5 X:02 Y:C2 P:E5 SP:FB PPU:177,123
FA7B  24 01     BIT $01 = FF                    A:A5 X:02 Y:C2 P:E5 SP:F9 PPU:177,141
FA7D  18        CLC                             A:A5 X:02 Y:C2 P:E5 SP:F9 PPU:177,150
FA7E  A9 B3     LDA #$B3                        A:A5 X:02 Y:C2 P:E4 SP:F9 PPU:177,156
FA80  60        RTS                             A:B3 X:02 Y:C2 P:E4 SP:F9 PPU:177,162
EE5E  07 47    *SLO $47 = A5                    A:B3 X:02 Y:C2 P:E4 SP:FB PPU:177,180
EE60  EA        NOP                             A:FB X:02 Y:C2 P:E5 SP:FB PPU:177,195
EE61  EA        NOP                             A:FB X:02 Y:C2 P:E5 SP:FB PPU:177,201
EE62  EA        NOP                             A:FB X:02 Y:C2 P:E5 SP:FB PPU:177,207
EE63  EA        NOP                             A:FB X:02 Y:C2 P:E5 SP:FB PPU:177,213
EE64  20 81 FA  JSR $FA81                       A:FB X:02 Y:C2 P:E5 SP:FB PPU:177,219
FA81  50 63     BVC $FAE6                       A:FB X:02 Y:C2 P:E5 SP:F9 PPU:177,237
FA83  90 61     BCC $FAE6                       A:FB X:02 Y:C2 P:E5 SP:F9 PPU:177,243
FA85  10 5F     BPL $FAE6                       A:FB X:02 Y:C2 P:E5 SP:F9 PPU:177,249
FA87  C9 FB     CMP #$FB                        A:FB X:02 Y:C2 P:E5 SP:F9 PPU:177,255
FA89  D0 5B     BNE $FAE6                       A:FB X:02 Y:C2 P:67 SP:F9 PPU:177,261
FA8B  60        RTS                             A:FB X:02 Y:C2 P:67 SP:F9 PPU:177,267
EE67  A5 47     LDA $47 = 4A                    A:FB X:02 Y:C2 P:67 SP:FB PPU:177,285
EE69  C9 4A     CMP #$4A                        A:4A X:02 Y:C2 P:65 SP:FB PPU:177,294
EE6B  F0 02     BEQ $EE6F                       A:4A X:02 Y:C2 P:67 SP:FB PPU:177,300
EE6F  C8        INY                             A:4A X:02 Y:C2 P:67 SP:FB PPU:177,309
EE70  A9 29     LDA #$29                        A:4A X:02 Y:C3 P:E5 SP:FB PPU:177,315
EE72  85 47     STA $47 = 4A                    A:29 X:02 Y:C3 P:65 SP:FB PPU:177,321
EE74  20 8C FA  JSR $FA8C                       A:29 X:02 Y:C3 P:65 SP:FB PPU:177,330
FA8C  B8        CLV                             A:29 X:02 Y:C3 P:65 SP:F9 PPU:178,  7
FA8D  18        CLC                             A:29 X:02 Y:C3 P:25 SP:F9 PPU:178, 13
FA8E  A9 C3     LDA #$C3                        A:29 X:02 Y:C3 P:24 SP:F9 PPU:178, 19
FA90  60        RTS                             A:C3 X:02 Y:C3 P:A4 SP:F9 PPU:178, 25
EE77  07 47    *SLO $47 = 29                    A:C3 X:02 Y:C3 P:A4 SP:FB PPU:178, 43
EE79  EA        NOP                             A:D3 X:02 Y:C3 P:A4 SP:FB PPU:178, 58
EE7A  EA        NOP                             A:D3 X:02 Y:C3 P:A4 SP:FB PPU:178, 64
EE7B  EA        NOP                             A:D3 X:02 Y:C3 P:A4 SP:FB PPU:178, 70
EE7C  EA        NOP                             A:D3 X:02 Y:C3 P:A4 SP:FB PPU:178, 76
EE7D  20 91 FA  JSR $FA91                       A:D3 X:02 Y:C3 P:A4 SP:FB PPU:178, 82
FA91  70 53     BVS $FAE6                       A:D3 X:02 Y:C3 P:A4 SP:F9 PPU:178,100
FA93  F0 51     BEQ $FAE6                       A:D3 X:02 Y:C3 P:A4 SP:F9 PPU:178,106
FA95  10 4F     BPL $FAE6                       A:D3 X:02 Y:C3 P:A4 SP:F9 PPU:178,112
FA97  B0 4D     BCS $FAE6                       A:D3 X:02 Y:C3 P:A4 SP:F9 PPU:178,118
FA99  C9 D3     CMP #$D3                        A:D3 X:02 Y:C3 P:A4 SP:F9 PPU:178,124
FA9B  D0 49     BNE $FAE6                       A:D3 X:02 Y:C3 P:27 SP:F9 PPU:178,130
FA9D  60        RTS                             A:D3 X:02 Y:C3 P:27 SP:F9 PPU:178,136
EE80  A5 47     LDA $47 = 52                    A:D3 X:02 Y:C3 P:27 SP:FB PPU:178,154
EE82  C9 52     CMP #$52                        A:52 X:02 Y:C3 P:25 SP:FB PPU:178,163
EE84  F0 02     BEQ $EE88                       A:52 X:02 Y:C3 P:27 SP:FB PPU:178,169
EE88  C8        INY                             A:52 X:02 Y:C3 P:27 SP:FB PPU:178,178
EE89  A9 37     LDA #$37                        A:52 X:02 Y:C4 P:A5 SP:FB PPU:178,184
EE8B  85 47     STA $47 = 52                    A:37 X:02 Y:C4 P:25 SP:FB PPU:178,190
EE8D  20 9E FA  JSR $FA9E                       A:37 X:02 Y:C4 P:25 SP:FB PPU:178,199
FA9E  24 01     BIT $01 = FF                    A:37 X:02 Y:C4 P:25 SP:F9 PPU:178,217
FAA0  38        SEC                             A:37 X:02 Y:C4 P:E5 SP:F9 PPU:178,226
FAA1  A9 10     LDA #$10                        A:37 X:02 Y:C4 P:E5 SP:F9 PPU:178,232
FAA3  60        RTS                             A:10 X:02 Y:C4 P:65 SP:F9 PPU:178,238
EE90  07 47    *SLO $47 = 37                    A:10 X:02 Y:C4 P:65 SP:FB PPU:178,256
EE92  EA        NOP                             A:7E X:02 Y:C4 P:64 SP:FB PPU:178,271
EE93  EA        NOP                             A:7E X:02 Y:C4 P:64 SP:FB PPU:178,277
EE94  EA        NOP                             A:7E X:02 Y:C4 P:64 SP:FB PPU:178,283
EE95  EA        NOP                             A:7E X:02 Y:C4 P:64 SP:FB PPU:178,289
EE96  20 A4 FA  JSR $FAA4                       A:7E X:02 Y:C4 P:64 SP:FB PPU:178,295
FAA4  50 40     BVC $FAE6                       A:7E X:02 Y:C4 P:64 SP:F9 PPU:178,313
FAA6  F0 3E     BEQ $FAE6                       A:7E X:02 Y:C4 P:64 SP:F9 PPU:178,319
FAA8  30 3C     BMI $FAE6                       A:7E X:02 Y:C4 P:64 SP:F9 PPU:178,325
FAAA  B0 3A     BCS $FAE6                       A:7E X:02 Y:C4 P:64 SP:F9 PPU:178,331
FAAC  C9 7E     CMP #$7E                        A:7E X:02 Y:C4 P:64 SP:F9 PPU:178,337
FAAE  D0 36     BNE $FAE6                       A:7E X:02 Y:C4 P:67 SP:F9 PPU:179,  2
FAB0  60        RTS                             A:7E X:02 Y:C4 P:67 SP:F9 PPU:179,  8
EE99  A5 47     LDA $47 = 6E                    A:7E X:02 Y:C4 P:67 SP:FB PPU:179, 26
EE9B  C9 6E     CMP #$6E                        A:6E X:02 Y:C4 P:65 SP:FB PPU:179, 35
EE9D  F0 02     BEQ $EEA1                       A:6E X:02 Y:C4 P:67 SP:FB PPU:179, 41
EEA1  C8        INY                             A:6E X:02 Y:C4 P:67 SP:FB PPU:179, 50
EEA2  A9 A5     LDA #$A5                        A:6E X:02 Y:C5 P:E5 SP:FB PPU:179, 56
EEA4  8D 47 06  STA $0647 = 6E                  A:A5 X:02 Y:C5 P:E5 SP:FB PPU:179, 62
EEA7  20 7B FA  JSR $FA7B                       A:A5 X:02 Y:C5 P:E5 SP:FB PPU:179, 74
FA7B  24 01     BIT $01 = FF                    A:A5 X:02 Y:C5 P:E5 SP:F9 PPU:179, 92
FA7D  18        CLC                             A:A5 X:02 Y:C5 P:E5 SP:F9 PPU:179,101
FA7E  A9 B3     LDA #$B3                        A:A5 X:02 Y:C5 P:E4 SP:F9 PPU:179,107
FA80  60        RTS                             A:B3 X:02 Y:C5 P:E4 SP:F9 PPU:179,113
EEAA  0F 47 06 *SLO $0647 = A5                  A:B3 X:02 Y:C5 P:E4 SP:FB PPU:179,131
EEAD  EA        NOP                             A:FB X:02 Y:C5 P:E5 SP:FB PPU:179,149
EEAE  EA        NOP                             A:FB X:02 Y:C5 P:E5 SP:FB PPU:179,155
EEAF  EA        NOP                             A:FB X:02 Y:C5 P:E5 SP:FB PPU:179,161
EEB0  EA        NOP                             A:FB X:02 Y:C5 P:E5 SP:FB PPU:179,167
EEB1  20 81 FA  JSR $FA81                       A:FB X:02 Y:C5 P:E5 SP:FB PPU:179,173
FA81  50 63     BVC $FAE6                       A:FB X:02 Y:C5 P:E5 SP:F9 PPU:179,191
FA83  90 61     BCC $FAE6                       A:FB X:02 Y:C5 P:E5 SP:F9 PPU:179,197
FA85  10 5F     BPL $FAE6                       A:FB X:02 Y:C5 P:E5 SP:F9 PPU:179,203
FA87  C9 FB     CMP #$FB                        A:FB X:02 Y:C5 P:E5 SP:F9 PPU:179,209
FA89  D0 5B     BNE $FAE6                       A:FB X:02 Y:C5 P:67 SP:F9 PPU:179,215
FA8B  60        RTS                             A:FB X:02 Y:C5 P:67 SP:F9 PPU:179,221
EEB4  AD 47 06  LDA $0647 = 4A                  A:FB X:02 Y:C5 P:67 SP:FB PPU:179,239
EEB7  C9 4A     CMP #$4A                        A:4A X:02 Y:C5 P:65 SP:FB PPU:179,251
EEB9  F0 02     BEQ $EEBD                       A:4A X:02 Y:C5 P:67 SP:FB PPU:179,257
EEBD  C8        INY                             A:4A X:02 Y:C5 P:67 SP:FB PPU:179,266
EEBE  A9 29     LDA #$29                        A:4A X:02 Y:C6 P:E5 SP:FB PPU:179,272
EEC0  8D 47 06  STA $0647 = 4A                  A:29 X:02 Y:C6 P:65 SP:FB PPU:179,278
EEC3  20 8C FA  JSR $FA8C                       A:29 X:02 Y:C6 P:65 SP:FB PPU:179,290
FA8C  B8        CLV                             A:29 X:02 Y:C6 P:65 SP:F9 PPU:179,308
FA8D  18        CLC                             A:29 X:02 Y:C6 P:25 SP:F9 PPU:179,314
FA8E  A9 C3     LDA #$C3                        A:29 X:02 Y:C6 P:24 SP:F9 PPU:179,320
FA90  60        RTS                             A:C3 X:02 Y:C6 P:A4 SP:F9 PPU:179,326
EEC6  0F 47 06 *SLO $0647 = 29                  A:C3 X:02 Y:C6 P:A4 SP:FB PPU:180,  3
EEC9  EA        NOP                             A:D3 X:02 Y:C6 P:A4 SP:FB PPU:180, 21
EECA  EA        NOP                             A:D3 X:02 Y:C6 P:A4 SP:FB PPU:180, 27
EECB  EA        NOP                             A:D3 X:02 Y:C6 P:A4 SP:FB PPU:180, 33
EECC  EA        NOP                             A:D3 X:02 Y:C6 P:A4 SP:FB PPU:180, 39
EECD  20 91 FA  JSR $FA91                       A:D3 X:02 Y:C6 P:A4 SP:FB PPU:180, 45
FA91  70 53     BVS $FAE6                       A:D3 X:02 Y:C6 P:A4 SP:F9 PPU:180, 63
FA93  F0 51     BEQ $FAE6                       A:D3 X:02 Y:C6 P:A4 SP:F9 PPU:180, 69
FA95  10 4F     BPL $FAE6                       A:D3 X:02 Y:C6 P:A4 SP:F9 PPU:180, 75
FA97  B0 4D     BCS $FAE6                       A:D3 X:02 Y:C6 P:A4 SP:F9 PPU:180, 81
FA99  C9 D3     CMP #$D3                        A:D3 X:02 Y:C6 P:A4 SP:F9 PPU:180, 87
FA9B  D0 49     BNE $FAE6                       A:D3 X:02 Y:C6 P:27 SP:F9 PPU:180, 93
FA9D  60        RTS                             A:D3 X:02 Y:C6 P:27 SP:F9 PPU:180, 99
EED0  AD 47 06  LDA $0647 = 52                  A:D3 X:02 Y:C6 P:27 SP:FB PPU:180,117
EED3  C9 52     CMP #$52                        A:52 X:02 Y:C6 P:25 SP:FB PPU:180,129
EED5  F0 02     BEQ $EED9                       A:52 X:02 Y:C6 P:27 SP:FB PPU:180,135
EED9  C8        INY                             A:52 X:02 Y:C6 P:27 SP:FB PPU:180,144
EEDA  A9 37     LDA #$37                        A:52 X:02 Y:C7 P:A5 SP:FB PPU:180,150
EEDC  8D 47 06  STA $0647 = 52                  A:37 X:02 Y:C7 P:25 SP:FB PPU:180,156
EEDF  20 9E FA  JSR $FA9E                       A:37 X:02 Y:C7 P:25 SP:FB PPU:180,168
FA9E  24 01     BIT $01 = FF                    A:37 X:02 Y:C7 P:25 SP:F9 PPU:180,186
FAA0  38        SEC                             A:37 X:02 Y:C7 P:E5 SP:F9 PPU:180,195
FAA1  A9 10     LDA #$10                        A:37 X:02 Y:C7 P:E5 SP:F9 PPU:180,201
FAA3  60        RTS                             A:10 X:02 Y:C7 P:65 SP:F9 PPU:180,207
EEE2  0F 47 06 *SLO $0647 = 37                  A:10 X:02 Y:C7 P:65 SP:FB PPU:180,225
EEE5  EA        NOP                             A:7E X:02 Y:C7 P:64 SP:FB PPU:180,243
EEE6  EA        NOP                             A:7E X:02 Y:C7 P:64 SP:FB PPU:180,249
EEE7  EA        NOP                             A:7E X:02 Y:C7 P:64 SP:FB PPU:180,255
EEE8  EA        NOP                             A:7E X:02 Y:C7 P:64 SP:FB PPU:180,261
EEE9  20 A4 FA  JSR $FAA4                       A:7E X:02 Y:C7 P:64 SP:FB PPU:180,267
FAA4  50 40     BVC $FAE6                       A:7E X:02 Y:C7 P:64 SP:F9 PPU:180,285
FAA6  F0 3E     BEQ $FAE6                       A:7E X:02 Y:C7 P:64 SP:F9 PPU:180,291
FAA8  30 3C     BMI $FAE6                       A:7E X:02 Y:C7 P:64 SP:F9 PPU:180,297
FAAA  B0 3A     BCS $FAE6                       A:7E X:02 Y:C7 P:64 SP:F9 PPU:180,303
FAAC  C9 7E     CMP #$7E                        A:7E X:02 Y:C7 P:64 SP:F9 PPU:180,309
FAAE  D0 36     BNE $FAE6                       A:7E X:02 Y:C7 P:67 SP:F9 PPU:180,315
FAB0  60        RTS                             A:7E X:02 Y:C7 P:67 SP:F9 PPU:180,321
EEEC  AD 47 06  LDA $0647 = 6E                  A:7E X:02 Y:C7 P:67 SP:FB PPU:180,339
EEEF  C9 6E     CMP #$6E                        A:6E X:02 Y:C7 P:65 SP:FB PPU:181, 10
EEF1  F0 02     BEQ $EEF5                       A:6E X:02 Y:C7 P:67 SP:FB PPU:181, 16
EEF5  A9 A5     LDA #$A5                        A:6E X:02 Y:C7 P:67 SP:FB PPU:181, 25
EEF7  8D 47 06  STA $0647 = 6E                  A:A5 X:02 Y:C7 P:E5 SP:FB PPU:181, 31
EEFA  A9 48     LDA #$48                        A:A5 X:02 Y:C7 P:E5 SP:FB PPU:181, 43
EEFC  85 45     STA $45 = 48                    A:48 X:02 Y:C7 P:65 SP:FB PPU:181, 49
EEFE  A9 05     LDA #$05                        A:48 X:02 Y:C7 P:65 SP:FB PPU:181, 58
EF00  85 46     STA $46 = 05                    A:05 X:02 Y:C7 P:65 SP:FB PPU:181, 64
EF02  A0 FF     LDY #$FF                        A:05 X:02 Y:C7 P:65 SP:FB PPU:181, 73
EF04  20 7B FA  JSR $FA7B                       A:05 X:02 Y:FF P:E5 SP:FB PPU:181, 79
FA7B  24 01     BIT $01 = FF                    A:05 X:02 Y:FF P:E5 SP:F9 PPU:181, 97
FA7D  18        CLC                             A:05 X:02 Y:FF P:E5 SP:F9 PPU:181,106
FA7E  A9 B3     LDA #$B3                        A:05 X:02 Y:FF P:E4 SP:F9 PPU:181,112
FA80  60        RTS                             A:B3 X:02 Y:FF P:E4 SP:F9 PPU:181,118
EF07  13 45    *SLO ($45),Y = 0548 @ 0647 = A5  A:B3 X:02 Y:FF P:E4 SP:FB PPU:181,136
EF09  EA        NOP                             A:FB X:02 Y:FF P:E5 SP:FB PPU:181,160
EF0A  EA        NOP                             A:FB X:02 Y:FF P:E5 SP:FB PPU:181,166
EF0B  08        PHP                             A:FB X:02 Y:FF P:E5 SP:FB PPU:181,172
EF0C  48        PHA                             A:FB X:02 Y:FF P:E5 SP:FA PPU:181,181
EF0D  A0 C8     LDY #$C8                        A:FB X:02 Y:FF P:E5 SP:F9 PPU:181,190
EF0F  68        PLA                             A:FB X:02 Y:C8 P:E5 SP:F9 PPU:181,196
EF10  28        PLP                             A:FB X:02 Y:C8 P:E5 SP:FA PPU:181,208
EF11  20 81 FA  JSR $FA81                       A:FB X:02 Y:C8 P:E5 SP:FB PPU:181,220
FA81  50 63     BVC $FAE6                       A:FB X:02 Y:C8 P:E5 SP:F9 PPU:181,238
FA83  90 61     BCC $FAE6                       A:FB X:02 Y:C8 P:E5 SP:F9 PPU:181,244
FA85  10 5F     BPL $FAE6                       A:FB X:02 Y:C8 P:E5 SP:F9 PPU:181,250
FA87  C9 FB     CMP #$FB                        A:FB X:02 Y:C8 P:E5 SP:F9 PPU:181,256
FA89  D0 5B     BNE $FAE6                       A:FB X:02 Y:C8 P:67 SP:F9 PPU:181,262
FA8B  60        RTS                             A:FB X:02 Y:C8 P:67 SP:F9 PPU:181,268
EF14  AD 47 06  LDA $0647 = 4A                  A:FB X:02 Y:C8 P:67 SP:FB PPU:181,286
EF17  C9 4A     CMP #$4A                        A:4A X:02 Y:C8 P:65 SP:FB PPU:181,298
EF19  F0 02     BEQ $EF1D                       A:4A X:02 Y:C8 P:67 SP:FB PPU:181,304
EF1D  A0 FF     LDY #$FF                        A:4A X:02 Y:C8 P:67 SP:FB PPU:181,313
EF1F  A9 29     LDA #$29                        A:4A X:02 Y:FF P:E5 SP:FB PPU:181,319
EF21  8D 47 06  STA $0647 = 4A                  A:29 X:02 Y:FF P:65 SP:FB PPU:181,325
EF24  20 8C FA  JSR $FA8C                       A:29 X:02 Y:FF P:65 SP:FB PPU:181,337
FA8C  B8        CLV                             A:29 X:02 Y:FF P:65 SP:F9 PPU:182, 14
FA8D  18        CLC                             A:29 X:02 Y:FF P:25 SP:F9 PPU:182, 20
FA8E  A9 C3     LDA #$C3                        A:29 X:02 Y:FF P:24 SP:F9 PPU:182, 26
FA90  60        RTS                             A:C3 X:02 Y:FF P:A4 SP:F9 PPU:182, 32
EF27  13 45    *SLO ($45),Y = 0548 @ 0647 = 29  A:C3 X:02 Y:FF P:A4 SP:FB PPU:182, 50
EF29  EA        NOP                             A:D3 X:02 Y:FF P:A4 SP:FB PPU:182, 74
EF2A  EA        NOP                             A:D3 X:02 Y:FF P:A4 SP:FB PPU:182, 80
EF2B  08        PHP                             A:D3 X:02 Y:FF P:A4 SP:FB PPU:182, 86
EF2C  48        PHA                             A:D3 X:02 Y:FF P:A4 SP:FA PPU:182, 95
EF2D  A0 C9     LDY #$C9                        A:D3 X:02 Y:FF P:A4 SP:F9 PPU:182,104
EF2F  68        PLA                             A:D3 X:02 Y:C9 P:A4 SP:F9 PPU:182,110
EF30  28        PLP                             A:D3 X:02 Y:C9 P:A4 SP:FA PPU:182,122
EF31  20 91 FA  JSR $FA91                       A:D3 X:02 Y:C9 P:A4 SP:FB PPU:182,134
FA91  70 53     BVS $FAE6                       A:D3 X:02 Y:C9 P:A4 SP:F9 PPU:182,152
FA93  F0 51     BEQ $FAE6                       A:D3 X:02 Y:C9 P:A4 SP:F9 PPU:182,158
FA95  10 4F     BPL $FAE6                       A:D3 X:02 Y:C9 P:A4 SP:F9 PPU:182,164
FA97  B0 4D     BCS $FAE6                       A:D3 X:02 Y:C9 P:A4 SP:F9 PPU:182,170
FA99  C9 D3     CMP #$D3                        A:D3 X:02 Y:C9 P:A4 SP:F9 PPU:182,176
FA9B  D0 49     BNE $FAE6                       A:D3 X:02 Y:C9 P:27 SP:F9 PPU:182,182
FA9D  60        RTS                             A:D3 X:02 Y:C9 P:27 SP:F9 PPU:182,188
EF34  AD 47 06  LDA $0647 = 52                  A:D3 X:02 Y:C9 P:27 SP:FB PPU:182,206
EF37  C9 52     CMP #$52                        A:52 X:02 Y:C9 P:25 SP:FB PPU:182,218
EF39  F0 02     BEQ $EF3D                       A:52 X:02 Y:C9 P:27 SP:FB PPU:182,224
EF3D  A0 FF     LDY #$FF                        A:52 X:02 Y:C9 P:27 SP:FB PPU:182,233
EF3F  A9 37     LDA #$37                        A:52 X:02 Y:FF P:A5 SP:FB PPU:182,239
EF41  8D 47 06  STA $0647 = 52                  A:37 X:02 Y:FF P:25 SP:FB PPU:182,245
EF44  20 9E FA  JSR $FA9E                       A:37 X:02 Y:FF P:25 SP:FB PPU:182,257
FA9E  24 01     BIT $01 = FF                    A:37 X:02 Y:FF P:25 SP:F9 PPU:182,275
FAA0  38        SEC                             A:37 X:02 Y:FF P:E5 SP:F9 PPU:182,284
FAA1  A9 10     LDA #$10                        A:37 X:02 Y:FF P:E5 SP:F9 PPU:182,290
FAA3  60        RTS                             A:10 X:02 Y:FF P:65 SP:F9 PPU:182,296
EF47  13 45    *SLO ($45),Y = 0548 @ 0647 = 37  A:10 X:02 Y:FF P:65 SP:FB PPU:182,314
EF49  EA        NOP                             A:7E X:02 Y:FF P:64 SP:FB PPU:182,338
EF4A  EA        NOP                             A:7E X:02 Y:FF P:64 SP:FB PPU:183,  3
EF4B  08        PHP                             A:7E X:02 Y:FF P:64 SP:FB PPU:183,  9
EF4C  48        PHA                             A:7E X:02 Y:FF P:64 SP:FA PPU:183, 18
EF4D  A0 CA     LDY #$CA                        A:7E X:02 Y:FF P:64 SP:F9 PPU:183, 27
EF4F  68        PLA                             A:7E X:02 Y:CA P:E4 SP:F9 PPU:183, 33
EF50  28        PLP                             A:7E X:02 Y:CA P:64 SP:FA PPU:183, 45
EF51  20 A4 FA  JSR $FAA4                       A:7E X:02 Y:CA P:64 SP:FB PPU:183, 57
FAA4  50 40     BVC $FAE6                       A:7E X:02 Y:CA P:64 SP:F9 PPU:183, 75
FAA6  F0 3E     BEQ $FAE6                       A:7E X:02 Y:CA P:64 SP:F9 PPU:183, 81
FAA8  30 3C     BMI $FAE6                       A:7E X:02 Y:CA P:64 SP:F9 PPU:183, 87
FAAA  B0 3A     BCS $FAE6                       A:7E X:02 Y:CA P:64 SP:F9 PPU:183, 93
FAAC  C9 7E     CMP #$7E                        A:7E X:02 Y:CA P:64 SP:F9 PPU:183, 99
FAAE  D0 36     BNE $FAE6                       A:7E X:02 Y:CA P:67 SP:F9 PPU:183,105
FAB0  60        RTS                             A:7E X:02 Y:CA P:67 SP:F9 PPU:183,111
EF54  AD 47 06  LDA $0647 = 6E                  A:7E X:02 Y:CA P:67 SP:FB PPU:183,129
EF57  C9 6E     CMP #$6E                        A:6E X:02 Y:CA P:65 SP:FB PPU:183,141
EF59  F0 02     BEQ $EF5D                       A:6E X:02 Y:CA P:67 SP:FB PPU:183,147
EF5D  A0 CB     LDY #$CB                        A:6E X:02 Y:CA P:67 SP:FB PPU:183,156
EF5F  A2 FF     LDX #$FF                        A:6E X:02 Y:CB P:E5 SP:FB PPU:183,162
EF61  A9 A5     LDA #$A5                        A:6E X:FF Y:CB P:E5 SP:FB PPU:183,168
EF63  85 47     STA $47 = 6E                    A:A5 X:FF Y:CB P:E5 SP:FB PPU:183,174
EF65  20 7B FA  JSR $FA7B                       A:A5 X:FF Y:CB P:E5 SP:FB PPU:183,183
FA7B  24 01     BIT $01 = FF                    A:A5 X:FF Y:CB P:E5 SP:F9 PPU:183,201
FA7D  18        CLC                             A:A5 X:FF Y:CB P:E5 SP:F9 PPU:183,210
FA7E  A9 B3     LDA #$B3                        A:A5 X:FF Y:CB P:E4 SP:F9 PPU:183,216
FA80  60        RTS                             A:B3 X:FF Y:CB P:E4 SP:F9 PPU:183,222
EF68  17 48    *SLO $48,X @ 47 = A5             A:B3 X:FF Y:CB P:E4 SP:FB PPU:183,240
EF6A  EA        NOP                             A:FB X:FF Y:CB P:E5 SP:FB PPU:183,258
EF6B  EA        NOP                             A:FB X:FF Y:CB P:E5 SP:FB PPU:183,264
EF6C  EA        NOP                             A:FB X:FF Y:CB P:E5 SP:FB PPU:183,270
EF6D  EA        NOP                             A:FB X:FF Y:CB P:E5 SP:FB PPU:183,276
EF6E  20 81 FA  JSR $FA81                       A:FB X:FF Y:CB P:E5 SP:FB PPU:183,282
FA81  50 63     BVC $FAE6                       A:FB X:FF Y:CB P:E5 SP:F9 PPU:183,300
FA83  90 61     BCC $FAE6                       A:FB X:FF Y:CB P:E5 SP:F9 PPU:183,306
FA85  10 5F     BPL $FAE6                       A:FB X:FF Y:CB P:E5 SP:F9 PPU:183,312
FA87  C9 FB     CMP #$FB                        A:FB X:FF Y:CB P:E5 SP:F9 PPU:183,318
FA89  D0 5B     BNE $FAE6                       A:FB X:FF Y:CB P:67 SP:F9 PPU:183,324
FA8B  60        RTS                             A:FB X:FF Y:CB P:67 SP:F9 PPU:183,330
EF71  A5 47     LDA $47 = 4A                    A:FB X:FF Y:CB P:67 SP:FB PPU:184,  7
EF73  C9 4A     CMP #$4A                        A:4A X:FF Y:CB P:65 SP:FB PPU:184, 16
EF75  F0 02     BEQ $EF79                       A:4A X:FF Y:CB P:67 SP:FB PPU:184, 22
EF79  C8        INY                             A:4A X:FF Y:CB P:67 SP:FB PPU:184, 31
EF7A  A9 29     LDA #$29                        A:4A X:FF Y:CC P:E5 SP:FB PPU:184, 37
EF7C  85 47     STA $47 = 4A                    A:29 X:FF Y:CC P:65 SP:FB PPU:184, 43
EF7E  20 8C FA  JSR $FA8C                       A:29 X:FF Y:CC P:65 SP:FB PPU:184, 52
FA8C  B8        CLV                             A:29 X:FF Y:CC P:65 SP:F9 PPU:184, 70
FA8D  18        CLC                             A:29 X:FF Y:CC P:25 SP:F9 PPU:184, 76
FA8E  A9 C3     LDA #$C3                        A:29 X:FF Y:CC P:24 SP:F9 PPU:184, 82
FA90  60        RTS                             A:C3 X:FF Y:CC P:A4 SP:F9 PPU:184, 88
EF81  17 48    *SLO $48,X @ 47 = 29             A:C3 X:FF Y:CC P:A4 SP:FB PPU:184,106
EF83  EA        NOP                             A:D3 X:FF Y:CC P:A4 SP:FB PPU:184,124
EF84  EA        NOP                             A:D3 X:FF Y:CC P:A4 SP:FB PPU:184,130
EF85  EA        NOP                             A:D3 X:FF Y:CC P:A4 SP:FB PPU:184,136
EF86  EA        NOP                             A:D3 X:FF Y:CC P:A4 SP:FB PPU:184,142
EF87  20 91 FA  JSR $FA91                       A:D3 X:FF Y:CC P:A4 SP:FB PPU:184,148
FA91  70 53     BVS $FAE6                       A:D3 X:FF Y:CC P:A4 SP:F9 PPU:184,166
FA93  F0 51     BEQ $FAE6                       A:D3 X:FF Y:CC P:A4 SP:F9 PPU:184,172
FA95  10 4F     BPL $FAE6                       A:D3 X:FF Y:CC P:A4 SP:F9 PPU:184,178
FA97  B0 4D     BCS $FAE6                       A:D3 X:FF Y:CC P:A4 SP:F9 PPU:184,184
FA99  C9 D3     CMP #$D3                        A:D3 X:FF Y:CC P:A4 SP:F9 PPU:184,190
FA9B  D0 49     BNE $FAE6                       A:D3 X:FF Y:CC P:27 SP:F9 PPU:184,196
FA9D  60        RTS                             A:D3 X:FF Y:CC P:27 SP:F9 PPU:184,202
EF8A  A5 47     LDA $47 = 52                    A:D3 X:FF Y:CC P:27 SP:FB PPU:184,220
EF8C  C9 52     CMP #$52                        A:52 X:FF Y:CC P:25 SP:FB PPU:184,229
EF8E  F0 02     BEQ $EF92                       A:52 X:FF Y:CC P:27 SP:FB PPU:184,235
EF92  C8        INY                             A:52 X:FF Y:CC P:27 SP:FB PPU:184,244
EF93  A9 37     LDA #$37                        A:52 X:FF Y:CD P:A5 SP:FB PPU:184,250
EF95  85 47     STA $47 = 52                    A:37 X:FF Y:CD P:25 SP:FB PPU:184,256
EF97  20 9E FA  JSR $FA9E                       A:37 X:FF Y:CD P:25 SP:FB PPU:184,265
FA9E  24 01     BIT $01 = FF                    A:37 X:FF Y:CD P:25 SP:F9 PPU:184,283
FAA0  38        SEC                             A:37 X:FF Y:CD P:E5 SP:F9 PPU:184,292
FAA1  A9 10     LDA #$10                        A:37 X:FF Y:CD P:E5 SP:F9 PPU:184,298
FAA3  60        RTS                             A:10 X:FF Y:CD P:65 SP:F9 PPU:184,304
EF9A  17 48    *SLO $48,X @ 47 = 37             A:10 X:FF Y:CD P:65 SP:FB PPU:184,322
EF9C  EA        NOP                             A:7E X:FF Y:CD P:64 SP:FB PPU:184,340
EF9D  EA        NOP                             A:7E X:FF Y:CD P:64 SP:FB PPU:185,  5
EF9E  EA        NOP                             A:7E X:FF Y:CD P:64 SP:FB PPU:185, 11
EF9F  EA        NOP                             A:7E X:FF Y:CD P:64 SP:FB PPU:185, 17
EFA0  20 A4 FA  JSR $FAA4                       A:7E X:FF Y:CD P:64 SP:FB PPU:185, 23
FAA4  50 40     BVC $FAE6                       A:7E X:FF Y:CD P:64 SP:F9 PPU:185, 41
FAA6  F0 3E     BEQ $FAE6                       A:7E X:FF Y:CD P:64 SP:F9 PPU:185, 47
FAA8  30 3C     BMI $FAE6                       A:7E X:FF Y:CD P:64 SP:F9 PPU:185, 53
FAAA  B0 3A     BCS $FAE6                       A:7E X:FF Y:CD P:64 SP:F9 PPU:185, 59
FAAC  C9 7E     CMP #$7E                        A:7E X:FF Y:CD P:64 SP:F9 PPU:185, 65
FAAE  D0 36     BNE $FAE6                       A:7E X:FF Y:CD P:67 SP:F9 PPU:185, 71
FAB0  60        RTS                             A:7E X:FF Y:CD P:67 SP:F9 PPU:185, 77
EFA3  A5 47     LDA $47 = 6E                    A:7E X:FF Y:CD P:67 SP:FB PPU:185, 95
EFA5  C9 6E     CMP #$6E                        A:6E X:FF Y:CD P:65 SP:FB PPU:185,104
EFA7  F0 02     BEQ $EFAB                       A:6E X:FF Y:CD P:67 SP:FB PPU:185,110
EFAB  A9 A5     LDA #$A5                        A:6E X:FF Y:CD P:67 SP:FB PPU:185,119
EFAD  8D 47 06  STA $0647 = 6E                  A:A5 X:FF Y:CD P:E5 SP:FB PPU:185,125
EFB0  A0 FF     LDY #$FF                        A:A5 X:FF Y:CD P:E5 SP:FB PPU:185,137
EFB2  20 7B FA  JSR $FA7B                       A:A5 X:FF Y:FF P:E5 SP:FB PPU:185,143
FA7B  24 01     BIT $01 = FF                    A:A5 X:FF Y:FF P:E5 SP:F9 PPU:185,161
FA7D  18        CLC                             A:A5 X:FF Y:FF P:E5 SP:F9 PPU:185,170
FA7E  A9 B3     LDA #$B3                        A:A5 X:FF Y:FF P:E4 SP:F9 PPU:185,176
FA80  60        RTS                             A:B3 X:FF Y:FF P:E4 SP:F9 PPU:185,182
EFB5  1B 48 05 *SLO $0548,Y @ 0647 = A5         A:B3 X:FF Y:FF P:E4 SP:FB PPU:185,200
EFB8  EA        NOP                             A:FB X:FF Y:FF P:E5 SP:FB PPU:185,221
EFB9  EA        NOP                             A:FB X:FF Y:FF P:E5 SP:FB PPU:185,227
EFBA  08        PHP                             A:FB X:FF Y:FF P:E5 SP:FB PPU:185,233
EFBB  48        PHA                             A:FB X:FF Y:FF P:E5 SP:FA PPU:185,242
EFBC  A0 CE     LDY #$CE                        A:FB X:FF Y:FF P:E5 SP:F9 PPU:185,251
EFBE  68        PLA                             A:FB X:FF Y:CE P:E5 SP:F9 PPU:185,257
EFBF  28        PLP                             A:FB X:FF Y:CE P:E5 SP:FA PPU:185,269
EFC0  20 81 FA  JSR $FA81                       A:FB X:FF Y:CE P:E5 SP:FB PPU:185,281
FA81  50 63     BVC $FAE6                       A:FB X:FF Y:CE P:E5 SP:F9 PPU:185,299
FA83  90 61     BCC $FAE6                       A:FB X:FF Y:CE P:E5 SP:F9 PPU:185,305
FA85  10 5F     BPL $FAE6                       A:FB X:FF Y:CE P:E5 SP:F9 PPU:185,311
FA87  C9 FB     CMP #$FB                        A:FB X:FF Y:CE P:E5 SP:F9 PPU:185,317
FA89  D0 5B     BNE $FAE6                       A:FB X:FF Y:CE P:67 SP:F9 PPU:185,323
FA8B  60        RTS                             A:FB X:FF Y:CE P:67 SP:F9 PPU:185,329
EFC3  AD 47 06  LDA $0647 = 4A                  A:FB X:FF Y:CE P:67 SP:FB PPU:186,  6
EFC6  C9 4A     CMP #$4A                        A:4A X:FF Y:CE P:65 SP:FB PPU:186, 18
EFC8  F0 02     BEQ $EFCC                       A:4A X:FF Y:CE P:67 SP:FB PPU:186, 24
EFCC  A0 FF     LDY #$FF                        A:4A X:FF Y:CE P:67 SP:FB PPU:186, 33
EFCE  A9 29     LDA #$29                        A:4A X:FF Y:FF P:E5 SP:FB PPU:186, 39
EFD0  8D 47 06  STA $0647 = 4A                  A:29 X:FF Y:FF P:65 SP:FB PPU:186, 45
EFD3  20 8C FA  JSR $FA8C                       A:29 X:FF Y:FF P:65 SP:FB PPU:186, 57
FA8C  B8        CLV                             A:29 X:FF Y:FF P:65 SP:F9 PPU:186, 75
FA8D  18        CLC                             A:29 X:FF Y:FF P:25 SP:F9 PPU:186, 81
FA8E  A9 C3     LDA #$C3                        A:29 X:FF Y:FF P:24 SP:F9 PPU:186, 87
FA90  60        RTS                             A:C3 X:FF Y:FF P:A4 SP:F9 PPU:186, 93
EFD6  1B 48 05 *SLO $0548,Y @ 0647 = 29         A:C3 X:FF Y:FF P:A4 SP:FB PPU:186,111
EFD9  EA        NOP                             A:D3 X:FF Y:FF P:A4 SP:FB PPU:186,132
EFDA  EA        NOP                             A:D3 X:FF Y:FF P:A4 SP:FB PPU:186,138
EFDB  08        PHP                             A:D3 X:FF Y:FF P:A4 SP:FB PPU:186,144
EFDC  48        PHA                             A:D3 X:FF Y:FF P:A4 SP:FA PPU:186,153
EFDD  A0 CF     LDY #$CF                        A:D3 X:FF Y:FF P:A4 SP:F9 PPU:186,162
EFDF  68        PLA                             A:D3 X:FF Y:CF P:A4 SP:F9 PPU:186,168
EFE0  28        PLP                             A:D3 X:FF Y:CF P:A4 SP:FA PPU:186,180
EFE1  20 91 FA  JSR $FA91                       A:D3 X:FF Y:CF P:A4 SP:FB PPU:186,192
FA91  70 53     BVS $FAE6                       A:D3 X:FF Y:CF P:A4 SP:F9 PPU:186,210
FA93  F0 51     BEQ $FAE6                       A:D3 X:FF Y:CF P:A4 SP:F9 PPU:186,216
FA95  10 4F     BPL $FAE6                       A:D3 X:FF Y:CF P:A4 SP:F9 PPU:186,222
FA97  B0 4D     BCS $FAE6                       A:D3 X:FF Y:CF P:A4 SP:F9 PPU:186,228
FA99  C9 D3     CMP #$D3                        A:D3 X:FF Y:CF P:A4 SP:F9 PPU:186,234
FA9B  D0 49     BNE $FAE6                       A:D3 X:FF Y:CF P:27 SP:F9 PPU:186,240
FA9D  60        RTS                             A:D3 X:FF Y:CF P:27 SP:F9 PPU:186,246
EFE4  AD 47 06  LDA $0647 = 52                  A:D3 X:FF Y:CF P:27 SP:FB PPU:186,264
EFE7  C9 52     CMP #$52                        A:52 X:FF Y:CF P:25 SP:FB PPU:186,276
EFE9  F0 02     BEQ $EFED                       A:52 X:FF Y:CF P:27 SP:FB PPU:186,282
EFED  A0 FF     LDY #$FF                        A:52 X:FF Y:CF P:27 SP:FB PPU:186,291
EFEF  A9 37     LDA #$37                        A:52 X:FF Y:FF P:A5 SP:FB PPU:186,297
EFF1  8D 47 06  STA $0647 = 52                  A:37 X:FF Y:FF P:25 SP:FB PPU:186,303
EFF4  20 9E FA  JSR $FA9E                       A:37 X:FF Y:FF P:25 SP:FB PPU:186,315
FA9E  24 01     BIT $01 = FF                    A:37 X:FF Y:FF P:25 SP:F9 PPU:186,333
FAA0  38        SEC                             A:37 X:FF Y:FF P:E5 SP:F9 PPU:187,  1
FAA1  A9 10     LDA #$10                        A:37 X:FF Y:FF P:E5 SP:F9 PPU:187,  7
FAA3  60        RTS                             A:10 X:FF Y:FF P:65 SP:F9 PPU:187, 13
EFF7  1B 48 05 *SLO $0548,Y @ 0647 = 37         A:10 X:FF Y:FF P:65 SP:FB PPU:187, 31
EFFA  EA        NOP                             A:7E X:FF Y:FF P:64 SP:FB PPU:187, 52
EFFB  EA        NOP                             A:7E X:FF Y:FF P:64 SP:FB PPU:187, 58
EFFC  08        PHP                             A:7E X:FF Y:FF P:64 SP:FB PPU:187, 64
EFFD  48        PHA                             A:7E X:FF Y:FF P:64 SP:FA PPU:187, 73
EFFE  A0 D0     LDY #$D0                        A:7E X:FF Y:FF P:64 SP:F9 PPU:187, 82
F000  68        PLA                             A:7E X:FF Y:D0 P:E4 SP:F9 PPU:187, 88
F001  28        PLP                             A:7E X:FF Y:D0 P:64 SP:FA PPU:187,100
F002  20 A4 FA  JSR $FAA4                       A:7E X:FF Y:D0 P:64 SP:FB PPU:187,112
FAA4  50 40     BVC $FAE6                       A:7E X:FF Y:D0 P:64 SP:F9 PPU:187,130
FAA6  F0 3E     BEQ $FAE6                       A:7E X:FF Y:D0 P:64 SP:F9 PPU:187,136
FAA8  30 3C     BMI $FAE6                       A:7E X:FF Y:D0 P:64 SP:F9 PPU:187,142
FAAA  B0 3A     BCS $FAE6                       A:7E X:FF Y:D0 P:64 SP:F9 PPU:187,148
FAAC  C9 7E     CMP #$7E                        A:7E X:FF Y:D0 P:64 SP:F9 PPU:187,154
FAAE  D0 36     BNE $FAE6                       A:7E X:FF Y:D0 P:67 SP:F9 PPU:187,160
FAB0  60        RTS                             A:7E X:FF Y:D0 P:67 SP:F9 PPU:187,166
F005  AD 47 06  LDA $0647 = 6E                  A:7E X:FF Y:D0 P:67 SP:FB PPU:187,184
F008  C9 6E     CMP #$6E                        A:6E X:FF Y:D0 P:65 SP:FB PPU:187,196
F00A  F0 02     BEQ $F00E                       A:6E X:FF Y:D0 P:67 SP:FB PPU:187,202
F00E  A0 D1     LDY #$D1                        A:6E X:FF Y:D0 P:67 SP:FB PPU:187,211
F010  A2 FF     LDX #$FF                        A:6E X:FF Y:D1 P:E5 SP:FB PPU:187,217
F012  A9 A5     LDA #$A5                        A:6E X:FF Y:D1 P:E5 SP:FB PPU:187,223
F014  8D 47 06  STA $0647 = 6E                  A:A5 X:FF Y:D1 P:E5 SP:FB PPU:187,229
F017  20 7B FA  JSR $FA7B                       A:A5 X:FF Y:D1 P:E5 SP:FB PPU:187,241
FA7B  24 01     BIT $01 = FF                    A:A5 X:FF Y:D1 P:E5 SP:F9 PPU:187,259
FA7D  18        CLC                             A:A5 X:FF Y:D1 P:E5 SP:F9 PPU:187,268
FA7E  A9 B3     LDA #$B3                        A:A5 X:FF Y:D1 P:E4 SP:F9 PPU:187,274
FA80  60        RTS                             A:B3 X:FF Y:D1 P:E4 SP:F9 PPU:187,280
F01A  1F 48 05 *SLO $0548,X @ 0647 = A5         A:B3 X:FF Y:D1 P:E4 SP:FB PPU:187,298
F01D  EA        NOP                             A:FB X:FF Y:D1 P:E5 SP:FB PPU:187,319
F01E  EA        NOP                             A:FB X:FF Y:D1 P:E5 SP:FB PPU:187,325
F01F  EA        NOP                             A:FB X:FF Y:D1 P:E5 SP:FB PPU:187,331
F020  EA        NOP                             A:FB X:FF Y:D1 P:E5 SP:FB PPU:187,337
F021  20 81 FA  JSR $FA81                       A:FB X:FF Y:D1 P:E5 SP:FB PPU:188,  2
FA81  50 63     BVC $FAE6                       A:FB X:FF Y:D1 P:E5 SP:F9 PPU:188, 20
FA83  90 61     BCC $FAE6                       A:FB X:FF Y:D1 P:E5 SP:F9 PPU:188, 26
FA85  10 5F     BPL $FAE6                       A:FB X:FF Y:D1 P:E5 SP:F9 PPU:188, 32
FA87  C9 FB     CMP #$FB                        A:FB X:FF Y:D1 P:E5 SP:F9 PPU:188, 38
FA89  D0 5B     BNE $FAE6                       A:FB X:FF Y:D1 P:67 SP:F9 PPU:188, 44
FA8B  60        RTS                             A:FB X:FF Y:D1 P:67 SP:F9 PPU:188, 50
F024  AD 47 06  LDA $0647 = 4A                  A:FB X:FF Y:D1 P:67 SP:FB PPU:188, 68
F027  C9 4A     CMP #$4A                        A:4A X:FF Y:D1 P:65 SP:FB PPU:188, 80
F029  F0 02     BEQ $F02D                       A:4A X:FF Y:D1 P:67 SP:FB PPU:188, 86
F02D  C8        INY                             A:4A X:FF Y:D1 P:67 SP:FB PPU:188, 95
F02E  A9 29     LDA #$29                        A:4A X:FF Y:D2 P:E5 SP:FB PPU:188,101
F030  8D 47 06  STA $0647 = 4A                  A:29 X:FF Y:D2 P:65 SP:FB PPU:188,107
F033  20 8C FA  JSR $FA8C                       A:29 X:FF Y:D2 P:65 SP:FB PPU:188,119
FA8C  B8        CLV                             A:29 X:FF Y:D2 P:65 SP:F9 PPU:188,137
FA8D  18        CLC                             A:29 X:FF Y:D2 P:25 SP:F9 PPU:188,143
FA8E  A9 C3     LDA #$C3                        A:29 X:FF Y:D2 P:24 SP:F9 PPU:188,149
FA90  60        RTS                             A:C3 X:FF Y:D2 P:A4 SP:F9 PPU:188,155
F036  1F 48 05 *SLO $0548,X @ 0647 = 29         A:C3 X:FF Y:D2 P:A4 SP:FB PPU:188,173
F039  EA        NOP                             A:D3 X:FF Y:D2 P:A4 SP:FB PPU:188,194
F03A  EA        NOP                             A:D3 X:FF Y:D2 P:A4 SP:FB PPU:188,200
F03B  EA        NOP                             A:D3 X:FF Y:D2 P:A4 SP:FB PPU:188,206
F03C  EA        NOP                             A:D3 X:FF Y:D2 P:A4 SP:FB PPU:188,212
F03D  20 91 FA  JSR $FA91                       A:D3 X:FF Y:D2 P:A4 SP:FB PPU:188,218
FA91  70 53     BVS $FAE6                       A:D3 X:FF Y:D2 P:A4 SP:F9 PPU:188,236
FA93  F0 51     BEQ $FAE6                       A:D3 X:FF Y:D2 P:A4 SP:F9 PPU:188,242
FA95  10 4F     BPL $FAE6                       A:D3 X:FF Y:D2 P:A4 SP:F9 PPU:188,248
FA97  B0 4D     BCS $FAE6                       A:D3 X:FF Y:D2 P:A4 SP:F9 PPU:188,254
FA99  C9 D3     CMP #$D3                        A:D3 X:FF Y:D2 P:A4 SP:F9 PPU:188,260
FA9B  D0 49     BNE $FAE6                       A:D3 X:FF Y:D2 P:27 SP:F9 PPU:188,266
FA9D  60        RTS                             A:D3 X:FF Y:D2 P:27 SP:F9 PPU:188,272
F040  AD 47 06  LDA $0647 = 52                  A:D3 X:FF Y:D2 P:27 SP:FB PPU:188,290
F043  C9 52     CMP #$52                        A:52 X:FF Y:D2 P:25 SP:FB PPU:188,302
F045  F0 02     BEQ $F049                       A:52 X:FF Y:D2 P:27 SP:FB PPU:188,308
F049  C8        INY                             A:52 X:FF Y:D2 P:27 SP:FB PPU:188,317
F04A  A9 37     LDA #$37                        A:52 X:FF Y:D3 P:A5 SP:FB PPU:188,323
F04C  8D 47 06  STA $0647 = 52                  A:37 X:FF Y:D3 P:25 SP:FB PPU:188,329
F04F  20 9E FA  JSR $FA9E                       A:37 X:FF Y:D3 P:25 SP:FB PPU:189,  0
FA9E  24 01     BIT $01 = FF                    A:37 X:FF Y:D3 P:25 SP:F9 PPU:189, 18
FAA0  38        SEC                             A:37 X:FF Y:D3 P:E5 SP:F9 PPU:189, 27
FAA1  A9 10     LDA #$10                        A:37 X:FF Y:D3 P:E5 SP:F9 PPU:189, 33
FAA3  60        RTS                             A:10 X:FF Y:D3 P:65 SP:F9 PPU:189, 39
F052  1F 48 05 *SLO $0548,X @ 0647 = 37         A:10 X:FF Y:D3 P:65 SP:FB PPU:189, 57
F055  EA        NOP                             A:7E X:FF Y:D3 P:64 SP:FB PPU:189, 78
F056  EA        NOP                             A:7E X:FF Y:D3 P:64 SP:FB PPU:189, 84
F057  EA        NOP                             A:7E X:FF Y:D3 P:64 SP:FB PPU:189, 90
F058  EA        NOP                             A:7E X:FF Y:D3 P:64 SP:FB PPU:189, 96
F059  20 A4 FA  JSR $FAA4                       A:7E X:FF Y:D3 P:64 SP:FB PPU:189,102
FAA4  50 40     BVC $FAE6                       A:7E X:FF Y:D3 P:64 SP:F9 PPU:189,120
FAA6  F0 3E     BEQ $FAE6                       A:7E X:FF Y:D3 P:64 SP:F9 PPU:189,126
FAA8  30 3C     BMI $FAE6                       A:7E X:FF Y:D3 P:64 SP:F9 PPU:189,132
FAAA  B0 3A     BCS $FAE6                       A:7E X:FF Y:D3 P:64 SP:F9 PPU:189,138
FAAC  C9 7E     CMP #$7E                        A:7E X:FF Y:D3 P:64 SP:F9 PPU:189,144
FAAE  D0 36     BNE $FAE6                       A:7E X:FF Y:D3 P:67 SP:F9 PPU:189,150
FAB0  60        RTS                             A:7E X:FF Y:D3 P:67 SP:F9 PPU:189,156
F05C  AD 47 06  LDA $0647 = 6E                  A:7E X:FF Y:D3 P:67 SP:FB PPU:189,174
F05F  C9 6E     CMP #$6E                        A:6E X:FF Y:D3 P:65 SP:FB PPU:189,186
F061  F0 02     BEQ $F065                       A:6E X:FF Y:D3 P:67 SP:FB PPU:189,192
F065  60        RTS                             A:6E X:FF Y:D3 P:67 SP:FB PPU:189,201
C644  20 66 F0  JSR $F066                       A:6E X:FF Y:D3 P:67 SP:FD PPU:189,219
F066  A9 FF     LDA #$FF                        A:6E X:FF Y:D3 P:67 SP:FB PPU:189,237
F068  85 01     STA $01 = FF                    A:FF X:FF Y:D3 P:E5 SP:FB PPU:189,243
F06A  A0 D4     LDY #$D4                        A:FF X:FF Y:D3 P:E5 SP:FB PPU:189,252
F06C  A2 02     LDX #$02                        A:FF X:FF Y:D4 P:E5 SP:FB PPU:189,258
F06E  A9 47     LDA #$47                        A:FF X:02 Y:D4 P:65 SP:FB PPU:189,264
F070  85 47     STA $47 = 6E                    A:47 X:02 Y:D4 P:65 SP:FB PPU:189,270
F072  A9 06     LDA #$06                        A:47 X:02 Y:D4 P:65 SP:FB PPU:189,279
F074  85 48     STA $48 = 06                    A:06 X:02 Y:D4 P:65 SP:FB PPU:189,285
F076  A9 A5     LDA #$A5                        A:06 X:02 Y:D4 P:65 SP:FB PPU:189,294
F078  8D 47 06  STA $0647 = 6E                  A:A5 X:02 Y:D4 P:E5 SP:FB PPU:189,300
F07B  20 53 FB  JSR $FB53                       A:A5 X:02 Y:D4 P:E5 SP:FB PPU:189,312
FB53  24 01     BIT $01 = FF                    A:A5 X:02 Y:D4 P:E5 SP:F9 PPU:189,330
FB55  18        CLC                             A:A5 X:02 Y:D4 P:E5 SP:F9 PPU:189,339
FB56  A9 B3     LDA #$B3                        A:A5 X:02 Y:D4 P:E4 SP:F9 PPU:190,  4
FB58  60        RTS                             A:B3 X:02 Y:D4 P:E4 SP:F9 PPU:190, 10
F07E  23 45    *RLA ($45,X) @ 47 = 0647 = A5    A:B3 X:02 Y:D4 P:E4 SP:FB PPU:190, 28
F080  EA        NOP                             A:02 X:02 Y:D4 P:65 SP:FB PPU:190, 52
F081  EA        NOP                             A:02 X:02 Y:D4 P:65 SP:FB PPU:190, 58
F082  EA        NOP                             A:02 X:02 Y:D4 P:65 SP:FB PPU:190, 64
F083  EA        NOP                             A:02 X:02 Y:D4 P:65 SP:FB PPU:190, 70
F084  20 59 FB  JSR $FB59                       A:02 X:02 Y:D4 P:65 SP:FB PPU:190, 76
FB59  50 1A     BVC $FB75                       A:02 X:02 Y:D4 P:65 SP:F9 PPU:190, 94
FB5B  90 18     BCC $FB75                       A:02 X:02 Y:D4 P:65 SP:F9 PPU:190,100
FB5D  30 16     BMI $FB75                       A:02 X:02 Y:D4 P:65 SP:F9 PPU:190,106
FB5F  C9 02     CMP #$02                        A:02 X:02 Y:D4 P:65 SP:F9 PPU:190,112
FB61  D0 12     BNE $FB75                       A:02 X:02 Y:D4 P:67 SP:F9 PPU:190,118
FB63  60        RTS                             A:02 X:02 Y:D4 P:67 SP:F9 PPU:190,124
F087  AD 47 06  LDA $0647 = 4A                  A:02 X:02 Y:D4 P:67 SP:FB PPU:190,142
F08A  C9 4A     CMP #$4A                        A:4A X:02 Y:D4 P:65 SP:FB PPU:190,154
F08C  F0 02     BEQ $F090                       A:4A X:02 Y:D4 P:67 SP:FB PPU:190,160
F090  C8        INY                             A:4A X:02 Y:D4 P:67 SP:FB PPU:190,169
F091  A9 29     LDA #$29                        A:4A X:02 Y:D5 P:E5 SP:FB PPU:190,175
F093  8D 47 06  STA $0647 = 4A                  A:29 X:02 Y:D5 P:65 SP:FB PPU:190,181
F096  20 64 FB  JSR $FB64                       A:29 X:02 Y:D5 P:65 SP:FB PPU:190,193
FB64  B8        CLV                             A:29 X:02 Y:D5 P:65 SP:F9 PPU:190,211
FB65  18        CLC                             A:29 X:02 Y:D5 P:25 SP:F9 PPU:190,217
FB66  A9 42     LDA #$42                        A:29 X:02 Y:D5 P:24 SP:F9 PPU:190,223
FB68  60        RTS                             A:42 X:02 Y:D5 P:24 SP:F9 PPU:190,229
F099  23 45    *RLA ($45,X) @ 47 = 0647 = 29    A:42 X:02 Y:D5 P:24 SP:FB PPU:190,247
F09B  EA        NOP                             A:42 X:02 Y:D5 P:24 SP:FB PPU:190,271
F09C  EA        NOP                             A:42 X:02 Y:D5 P:24 SP:FB PPU:190,277
F09D  EA        NOP                             A:42 X:02 Y:D5 P:24 SP:FB PPU:190,283
F09E  EA        NOP                             A:42 X:02 Y:D5 P:24 SP:FB PPU:190,289
F09F  20 69 FB  JSR $FB69                       A:42 X:02 Y:D5 P:24 SP:FB PPU:190,295
FB69  70 0A     BVS $FB75                       A:42 X:02 Y:D5 P:24 SP:F9 PPU:190,313
FB6B  F0 08     BEQ $FB75                       A:42 X:02 Y:D5 P:24 SP:F9 PPU:190,319
FB6D  30 06     BMI $FB75                       A:42 X:02 Y:D5 P:24 SP:F9 PPU:190,325
FB6F  B0 04     BCS $FB75                       A:42 X:02 Y:D5 P:24 SP:F9 PPU:190,331
FB71  C9 42     CMP #$42                        A:42 X:02 Y:D5 P:24 SP:F9 PPU:190,337
FB73  F0 02     BEQ $FB77                       A:42 X:02 Y:D5 P:27 SP:F9 PPU:191,  2
FB77  60        RTS                             A:42 X:02 Y:D5 P:27 SP:F9 PPU:191, 11
F0A2  AD 47 06  LDA $0647 = 52                  A:42 X:02 Y:D5 P:27 SP:FB PPU:191, 29
F0A5  C9 52     CMP #$52                        A:52 X:02 Y:D5 P:25 SP:FB PPU:191, 41
F0A7  F0 02     BEQ $F0AB                       A:52 X:02 Y:D5 P:27 SP:FB PPU:191, 47
F0AB  C8        INY                             A:52 X:02 Y:D5 P:27 SP:FB PPU:191, 56
F0AC  A9 37     LDA #$37                        A:52 X:02 Y:D6 P:A5 SP:FB PPU:191, 62
F0AE  8D 47 06  STA $0647 = 52                  A:37 X:02 Y:D6 P:25 SP:FB PPU:191, 68
F0B1  20 68 FA  JSR $FA68                       A:37 X:02 Y:D6 P:25 SP:FB PPU:191, 80
FA68  24 01     BIT $01 = FF                    A:37 X:02 Y:D6 P:25 SP:F9 PPU:191, 98
FA6A  38        SEC                             A:37 X:02 Y:D6 P:E5 SP:F9 PPU:191,107
FA6B  A9 75     LDA #$75                        A:37 X:02 Y:D6 P:E5 SP:F9 PPU:191,113
FA6D  60        RTS                             A:75 X:02 Y:D6 P:65 SP:F9 PPU:191,119
F0B4  23 45    *RLA ($45,X) @ 47 = 0647 = 37    A:75 X:02 Y:D6 P:65 SP:FB PPU:191,137
F0B6  EA        NOP                             A:65 X:02 Y:D6 P:64 SP:FB PPU:191,161
F0B7  EA        NOP                             A:65 X:02 Y:D6 P:64 SP:FB PPU:191,167
F0B8  EA        NOP                             A:65 X:02 Y:D6 P:64 SP:FB PPU:191,173
F0B9  EA        NOP                             A:65 X:02 Y:D6 P:64 SP:FB PPU:191,179
F0BA  20 6E FA  JSR $FA6E                       A:65 X:02 Y:D6 P:64 SP:FB PPU:191,185
FA6E  50 76     BVC $FAE6                       A:65 X:02 Y:D6 P:64 SP:F9 PPU:191,203
FA70  F0 74     BEQ $FAE6                       A:65 X:02 Y:D6 P:64 SP:F9 PPU:191,209
FA72  30 72     BMI $FAE6                       A:65 X:02 Y:D6 P:64 SP:F9 PPU:191,215
FA74  B0 70     BCS $FAE6                       A:65 X:02 Y:D6 P:64 SP:F9 PPU:191,221
FA76  C9 65     CMP #$65                        A:65 X:02 Y:D6 P:64 SP:F9 PPU:191,227
FA78  D0 6C     BNE $FAE6                       A:65 X:02 Y:D6 P:67 SP:F9 PPU:191,233
FA7A  60        RTS                             A:65 X:02 Y:D6 P:67 SP:F9 PPU:191,239
F0BD  AD 47 06  LDA $0647 = 6F                  A:65 X:02 Y:D6 P:67 SP:FB PPU:191,257
F0C0  C9 6F     CMP #$6F                        A:6F X:02 Y:D6 P:65 SP:FB PPU:191,269
F0C2  F0 02     BEQ $F0C6                       A:6F X:02 Y:D6 P:67 SP:FB PPU:191,275
F0C6  C8        INY                             A:6F X:02 Y:D6 P:67 SP:FB PPU:191,284
F0C7  A9 A5     LDA #$A5                        A:6F X:02 Y:D7 P:E5 SP:FB PPU:191,290
F0C9  85 47     STA $47 = 47                    A:A5 X:02 Y:D7 P:E5 SP:FB PPU:191,296
F0CB  20 53 FB  JSR $FB53                       A:A5 X:02 Y:D7 P:E5 SP:FB PPU:191,305
FB53  24 01     BIT $01 = FF                    A:A5 X:02 Y:D7 P:E5 SP:F9 PPU:191,323
FB55  18        CLC                             A:A5 X:02 Y:D7 P:E5 SP:F9 PPU:191,332
FB56  A9 B3     LDA #$B3                        A:A5 X:02 Y:D7 P:E4 SP:F9 PPU:191,338
FB58  60        RTS                             A:B3 X:02 Y:D7 P:E4 SP:F9 PPU:192,  3
F0CE  27 47    *RLA $47 = A5                    A:B3 X:02 Y:D7 P:E4 SP:FB PPU:192, 21
F0D0  EA        NOP                             A:02 X:02 Y:D7 P:65 SP:FB PPU:192, 36
F0D1  EA        NOP                             A:02 X:02 Y:D7 P:65 SP:FB PPU:192, 42
F0D2  EA        NOP                             A:02 X:02 Y:D7 P:65 SP:FB PPU:192, 48
F0D3  EA        NOP                             A:02 X:02 Y:D7 P:65 SP:FB PPU:192, 54
F0D4  20 59 FB  JSR $FB59                       A:02 X:02 Y:D7 P:65 SP:FB PPU:192, 60
FB59  50 1A     BVC $FB75                       A:02 X:02 Y:D7 P:65 SP:F9 PPU:192, 78
FB5B  90 18     BCC $FB75                       A:02 X:02 Y:D7 P:65 SP:F9 PPU:192, 84
FB5D  30 16     BMI $FB75                       A:02 X:02 Y:D7 P:65 SP:F9 PPU:192, 90
FB5F  C9 02     CMP #$02                        A:02 X:02 Y:D7 P:65 SP:F9 PPU:192, 96
FB61  D0 12     BNE $FB75                       A:02 X:02 Y:D7 P:67 SP:F9 PPU:192,102
FB63  60        RTS                             A:02 X:02 Y:D7 P:67 SP:F9 PPU:192,108
F0D7  A5 47     LDA $47 = 4A                    A:02 X:02 Y:D7 P:67 SP:FB PPU:192,126
F0D9  C9 4A     CMP #$4A                        A:4A X:02 Y:D7 P:65 SP:FB PPU:192,135
F0DB  F0 02     BEQ $F0DF                       A:4A X:02 Y:D7 P:67 SP:FB PPU:192,141
F0DF  C8        INY                             A:4A X:02 Y:D7 P:67 SP:FB PPU:192,150
F0E0  A9 29     LDA #$29                        A:4A X:02 Y:D8 P:E5 SP:FB PPU:192,156
F0E2  85 47     STA $47 = 4A                    A:29 X:02 Y:D8 P:65 SP:FB PPU:192,162
F0E4  20 64 FB  JSR $FB64                       A:29 X:02 Y:D8 P:65 SP:FB PPU:192,171
FB64  B8        CLV                             A:29 X:02 Y:D8 P:65 SP:F9 PPU:192,189
FB65  18        CLC                             A:29 X:02 Y:D8 P:25 SP:F9 PPU:192,195
FB66  A9 42     LDA #$42                        A:29 X:02 Y:D8 P:24 SP:F9 PPU:192,201
FB68  60        RTS                             A:42 X:02 Y:D8 P:24 SP:F9 PPU:192,207
F0E7  27 47    *RLA $47 = 29                    A:42 X:02 Y:D8 P:24 SP:FB PPU:192,225
F0E9  EA        NOP                             A:42 X:02 Y:D8 P:24 SP:FB PPU:192,240
F0EA  EA        NOP                             A:42 X:02 Y:D8 P:24 SP:FB PPU:192,246
F0EB  EA        NOP                             A:42 X:02 Y:D8 P:24 SP:FB PPU:192,252
F0EC  EA        NOP                             A:42 X:02 Y:D8 P:24 SP:FB PPU:192,258
F0ED  20 69 FB  JSR $FB69                       A:42 X:02 Y:D8 P:24 SP:FB PPU:192,264
FB69  70 0A     BVS $FB75                       A:42 X:02 Y:D8 P:24 SP:F9 PPU:192,282
FB6B  F0 08     BEQ $FB75                       A:42 X:02 Y:D8 P:24 SP:F9 PPU:192,288
FB6D  30 06     BMI $FB75                       A:42 X:02 Y:D8 P:24 SP:F9 PPU:192,294
FB6F  B0 04     BCS $FB75                       A:42 X:02 Y:D8 P:24 SP:F9 PPU:192,300
FB71  C9 42     CMP #$42                        A:42 X:02 Y:D8 P:24 SP:F9 PPU:192,306
FB73  F0 02     BEQ $FB77                       A:42 X:02 Y:D8 P:27 SP:F9 PPU:192,312
FB77  60        RTS                             A:42 X:02 Y:D8 P:27 SP:F9 PPU:192,321
F0F0  A5 47     LDA $47 = 52                    A:42 X:02 Y:D8 P:27 SP:FB PPU:192,339
F0F2  C9 52     CMP #$52                        A:52 X:02 Y:D8 P:25 SP:FB PPU:193,  7
F0F4  F0 02     BEQ $F0F8                       A:52 X:02 Y:D8 P:27 SP:FB PPU:193, 13
F0F8  C8        INY                             A:52 X:02 Y:D8 P:27 SP:FB PPU:193, 22
F0F9  A9 37     LDA #$37                        A:52 X:02 Y:D9 P:A5 SP:FB PPU:193, 28
F0FB  85 47     STA $47 = 52                    A:37 X:02 Y:D9 P:25 SP:FB PPU:193, 34
F0FD  20 68 FA  JSR $FA68                       A:37 X:02 Y:D9 P:25 SP:FB PPU:193, 43
FA68  24 01     BIT $01 = FF                    A:37 X:02 Y:D9 P:25 SP:F9 PPU:193, 61
FA6A  38        SEC                             A:37 X:02 Y:D9 P:E5 SP:F9 PPU:193, 70
FA6B  A9 75     LDA #$75                        A:37 X:02 Y:D9 P:E5 SP:F9 PPU:193, 76
FA6D  60        RTS                             A:75 X:02 Y:D9 P:65 SP:F9 PPU:193, 82
F100  27 47    *RLA $47 = 37                    A:75 X:02 Y:D9 P:65 SP:FB PPU:193,100
F102  EA        NOP                             A:65 X:02 Y:D9 P:64 SP:FB PPU:193,115
F103  EA        NOP                             A:65 X:02 Y:D9 P:64 SP:FB PPU:193,121
F104  EA        NOP                             A:65 X:02 Y:D9 P:64 SP:FB PPU:193,127
F105  EA        NOP                             A:65 X:02 Y:D9 P:64 SP:FB PPU:193,133
F106  20 6E FA  JSR $FA6E                       A:65 X:02 Y:D9 P:64 SP:FB PPU:193,139
FA6E  50 76     BVC $FAE6                       A:65 X:02 Y:D9 P:64 SP:F9 PPU:193,157
FA70  F0 74     BEQ $FAE6                       A:65 X:02 Y:D9 P:64 SP:F9 PPU:193,163
FA72  30 72     BMI $FAE6                       A:65 X:02 Y:D9 P:64 SP:F9 PPU:193,169
FA74  B0 70     BCS $FAE6                       A:65 X:02 Y:D9 P:64 SP:F9 PPU:193,175
FA76  C9 65     CMP #$65                        A:65 X:02 Y:D9 P:64 SP:F9 PPU:193,181
FA78  D0 6C     BNE $FAE6                       A:65 X:02 Y:D9 P:67 SP:F9 PPU:193,187
FA7A  60        RTS                             A:65 X:02 Y:D9 P:67 SP:F9 PPU:193,193
F109  A5 47     LDA $47 = 6F                    A:65 X:02 Y:D9 P:67 SP:FB PPU:193,211
F10B  C9 6F     CMP #$6F                        A:6F X:02 Y:D9 P:65 SP:FB PPU:193,220
F10D  F0 02     BEQ $F111                       A:6F X:02 Y:D9 P:67 SP:FB PPU:193,226
F111  C8        INY                             A:6F X:02 Y:D9 P:67 SP:FB PPU:193,235
F112  A9 A5     LDA #$A5                        A:6F X:02 Y:DA P:E5 SP:FB PPU:193,241
F114  8D 47 06  STA $0647 = 6F                  A:A5 X:02 Y:DA P:E5 SP:FB PPU:193,247
F117  20 53 FB  JSR $FB53                       A:A5 X:02 Y:DA P:E5 SP:FB PPU:193,259
FB53  24 01     BIT $01 = FF                    A:A5 X:02 Y:DA P:E5 SP:F9 PPU:193,277
FB55  18        CLC                             A:A5 X:02 Y:DA P:E5 SP:F9 PPU:193,286
FB56  A9 B3     LDA #$B3                        A:A5 X:02 Y:DA P:E4 SP:F9 PPU:193,292
FB58  60        RTS                             A:B3 X:02 Y:DA P:E4 SP:F9 PPU:193,298
F11A  2F 47 06 *RLA $0647 = A5                  A:B3 X:02 Y:DA P:E4 SP:FB PPU:193,316
F11D  EA        NOP                             A:02 X:02 Y:DA P:65 SP:FB PPU:193,334
F11E  EA        NOP                             A:02 X:02 Y:DA P:65 SP:FB PPU:193,340
F11F  EA        NOP                             A:02 X:02 Y:DA P:65 SP:FB PPU:194,  5
F120  EA        NOP                             A:02 X:02 Y:DA P:65 SP:FB PPU:194, 11
F121  20 59 FB  JSR $FB59                       A:02 X:02 Y:DA P:65 SP:FB PPU:194, 17
FB59  50 1A     BVC $FB75                       A:02 X:02 Y:DA P:65 SP:F9 PPU:194, 35
FB5B  90 18     BCC $FB75                       A:02 X:02 Y:DA P:65 SP:F9 PPU:194, 41
FB5D  30 16     BMI $FB75                       A:02 X:02 Y:DA P:65 SP:F9 PPU:194, 47
FB5F  C9 02     CMP #$02                        A:02 X:02 Y:DA P:65 SP:F9 PPU:194, 53
FB61  D0 12     BNE $FB75                       A:02 X:02 Y:DA P:67 SP:F9 PPU:194, 59
FB63  60        RTS                             A:02 X:02 Y:DA P:67 SP:F9 PPU:194, 65
F124  AD 47 06  LDA $0647 = 4A                  A:02 X:02 Y:DA P:67 SP:FB PPU:194, 83
F127  C9 4A     CMP #$4A                        A:4A X:02 Y:DA P:65 SP:FB PPU:194, 95
F129  F0 02     BEQ $F12D                       A:4A X:02 Y:DA P:67 SP:FB PPU:194,101
F12D  C8        INY                             A:4A X:02 Y:DA P:67 SP:FB PPU:194,110
F12E  A9 29     LDA #$29                        A:4A X:02 Y:DB P:E5 SP:FB PPU:194,116
F130  8D 47 06  STA $0647 = 4A                  A:29 X:02 Y:DB P:65 SP:FB PPU:194,122
F133  20 64 FB  JSR $FB64                       A:29 X:02 Y:DB P:65 SP:FB PPU:194,134
FB64  B8        CLV                             A:29 X:02 Y:DB P:65 SP:F9 PPU:194,152
FB65  18        CLC                             A:29 X:02 Y:DB P:25 SP:F9 PPU:194,158
FB66  A9 42     LDA #$42                        A:29 X:02 Y:DB P:24 SP:F9 PPU:194,164
FB68  60        RTS                             A:42 X:02 Y:DB P:24 SP:F9 PPU:194,170
F136  2F 47 06 *RLA $0647 = 29                  A:42 X:02 Y:DB P:24 SP:FB PPU:194,188
F139  EA        NOP                             A:42 X:02 Y:DB P:24 SP:FB PPU:194,206
F13A  EA        NOP                             A:42 X:02 Y:DB P:24 SP:FB PPU:194,212
F13B  EA        NOP                             A:42 X:02 Y:DB P:24 SP:FB PPU:194,218
F13C  EA        NOP                             A:42 X:02 Y:DB P:24 SP:FB PPU:194,224
F13D  20 69 FB  JSR $FB69                       A:42 X:02 Y:DB P:24 SP:FB PPU:194,230
FB69  70 0A     BVS $FB75                       A:42 X:02 Y:DB P:24 SP:F9 PPU:194,248
FB6B  F0 08     BEQ $FB75                       A:42 X:02 Y:DB P:24 SP:F9 PPU:194,254
FB6D  30 06     BMI $FB75                       A:42 X:02 Y:DB P:24 SP:F9 PPU:194,260
FB6F  B0 04     BCS $FB75                       A:42 X:02 Y:DB P:24 SP:F9 PPU:194,266
FB71  C9 42     CMP #$42                        A:42 X:02 Y:DB P:24 SP:F9 PPU:194,272
FB73  F0 02     BEQ $FB77                       A:42 X:02 Y:DB P:27 SP:F9 PPU:194,278
FB77  60        RTS                             A:42 X:02 Y:DB P:27 SP:F9 PPU:194,287
F140  AD 47 06  LDA $0647 = 52                  A:42 X:02 Y:DB P:27 SP:FB PPU:194,305
F143  C9 52     CMP #$52                        A:52 X:02 Y:DB P:25 SP:FB PPU:194,317
F145  F0 02     BEQ $F149                       A:52 X:02 Y:DB P:27 SP:FB PPU:194,323
F149  C8        INY                             A:52 X:02 Y:DB P:27 SP:FB PPU:194,332
F14A  A9 37     LDA #$37                        A:52 X:02 Y:DC P:A5 SP:FB PPU:194,338
F14C  8D 47 06  STA $0647 = 52                  A:37 X:02 Y:DC P:25 SP:FB PPU:195,  3
F14F  20 68 FA  JSR $FA68                       A:37 X:02 Y:DC P:25 SP:FB PPU:195, 15
FA68  24 01     BIT $01 = FF                    A:37 X:02 Y:DC P:25 SP:F9 PPU:195, 33
FA6A  38        SEC                             A:37 X:02 Y:DC P:E5 SP:F9 PPU:195, 42
FA6B  A9 75     LDA #$75                        A:37 X:02 Y:DC P:E5 SP:F9 PPU:195, 48
FA6D  60        RTS                             A:75 X:02 Y:DC P:65 SP:F9 PPU:195, 54
F152  2F 47 06 *RLA $0647 = 37                  A:75 X:02 Y:DC P:65 SP:FB PPU:195, 72
F155  EA        NOP                             A:65 X:02 Y:DC P:64 SP:FB PPU:195, 90
F156  EA        NOP                             A:65 X:02 Y:DC P:64 SP:FB PPU:195, 96
F157  EA        NOP                             A:65 X:02 Y:DC P:64 SP:FB PPU:195,102
F158  EA        NOP                             A:65 X:02 Y:DC P:64 SP:FB PPU:195,108
F159  20 6E FA  JSR $FA6E                       A:65 X:02 Y:DC P:64 SP:FB PPU:195,114
FA6E  50 76     BVC $FAE6                       A:65 X:02 Y:DC P:64 SP:F9 PPU:195,132
FA70  F0 74     BEQ $FAE6                       A:65 X:02 Y:DC P:64 SP:F9 PPU:195,138
FA72  30 72     BMI $FAE6                       A:65 X:02 Y:DC P:64 SP:F9 PPU:195,144
FA74  B0 70     BCS $FAE6                       A:65 X:02 Y:DC P:64 SP:F9 PPU:195,150
FA76  C9 65     CMP #$65                        A:65 X:02 Y:DC P:64 SP:F9 PPU:195,156
FA78  D0 6C     BNE $FAE6                       A:65 X:02 Y:DC P:67 SP:F9 PPU:195,162
FA7A  60        RTS                             A:65 X:02 Y:DC P:67 SP:F9 PPU:195,168
F15C  AD 47 06  LDA $0647 = 6F                  A:65 X:02 Y:DC P:67 SP:FB PPU:195,186
F15F  C9 6F     CMP #$6F                        A:6F X:02 Y:DC P:65 SP:FB PPU:195,198
F161  F0 02     BEQ $F165                       A:6F X:02 Y:DC P:67 SP:FB PPU:195,204
F165  A9 A5     LDA #$A5                        A:6F X:02 Y:DC P:67 SP:FB PPU:195,213
F167  8D 47 06  STA $0647 = 6F                  A:A5 X:02 Y:DC P:E5 SP:FB PPU:195,219
F16A  A9 48     LDA #$48                        A:A5 X:02 Y:DC P:E5 SP:FB PPU:195,231
F16C  85 45     STA $45 = 48                    A:48 X:02 Y:DC P:65 SP:FB PPU:195,237
F16E  A9 05     LDA #$05                        A:48 X:02 Y:DC P:65 SP:FB PPU:195,246
F170  85 46     STA $46 = 05                    A:05 X:02 Y:DC P:65 SP:FB PPU:195,252
F172  A0 FF     LDY #$FF                        A:05 X:02 Y:DC P:65 SP:FB PPU:195,261
F174  20 53 FB  JSR $FB53                       A:05 X:02 Y:FF P:E5 SP:FB PPU:195,267
FB53  24 01     BIT $01 = FF                    A:05 X:02 Y:FF P:E5 SP:F9 PPU:195,285
FB55  18        CLC                             A:05 X:02 Y:FF P:E5 SP:F9 PPU:195,294
FB56  A9 B3     LDA #$B3                        A:05 X:02 Y:FF P:E4 SP:F9 PPU:195,300
FB58  60        RTS                             A:B3 X:02 Y:FF P:E4 SP:F9 PPU:195,306
F177  33 45    *RLA ($45),Y = 0548 @ 0647 = A5  A:B3 X:02 Y:FF P:E4 SP:FB PPU:195,324
F179  EA        NOP                             A:02 X:02 Y:FF P:65 SP:FB PPU:196,  7
F17A  EA        NOP                             A:02 X:02 Y:FF P:65 SP:FB PPU:196, 13
F17B  08        PHP                             A:02 X:02 Y:FF P:65 SP:FB PPU:196, 19
F17C  48        PHA                             A:02 X:02 Y:FF P:65 SP:FA PPU:196, 28
F17D  A0 DD     LDY #$DD                        A:02 X:02 Y:FF P:65 SP:F9 PPU:196, 37
F17F  68        PLA                             A:02 X:02 Y:DD P:E5 SP:F9 PPU:196, 43
F180  28        PLP                             A:02 X:02 Y:DD P:65 SP:FA PPU:196, 55
F181  20 59 FB  JSR $FB59                       A:02 X:02 Y:DD P:65 SP:FB PPU:196, 67
FB59  50 1A     BVC $FB75                       A:02 X:02 Y:DD P:65 SP:F9 PPU:196, 85
FB5B  90 18     BCC $FB75                       A:02 X:02 Y:DD P:65 SP:F9 PPU:196, 91
FB5D  30 16     BMI $FB75                       A:02 X:02 Y:DD P:65 SP:F9 PPU:196, 97
FB5F  C9 02     CMP #$02                        A:02 X:02 Y:DD P:65 SP:F9 PPU:196,103
FB61  D0 12     BNE $FB75                       A:02 X:02 Y:DD P:67 SP:F9 PPU:196,109
FB63  60        RTS                             A:02 X:02 Y:DD P:67 SP:F9 PPU:196,115
F184  AD 47 06  LDA $0647 = 4A                  A:02 X:02 Y:DD P:67 SP:FB PPU:196,133
F187  C9 4A     CMP #$4A                        A:4A X:02 Y:DD P:65 SP:FB PPU:196,145
F189  F0 02     BEQ $F18D                       A:4A X:02 Y:DD P:67 SP:FB PPU:196,151
F18D  A0 FF     LDY #$FF                        A:4A X:02 Y:DD P:67 SP:FB PPU:196,160
F18F  A9 29     LDA #$29                        A:4A X:02 Y:FF P:E5 SP:FB PPU:196,166
F191  8D 47 06  STA $0647 = 4A                  A:29 X:02 Y:FF P:65 SP:FB PPU:196,172
F194  20 64 FB  JSR $FB64                       A:29 X:02 Y:FF P:65 SP:FB PPU:196,184
FB64  B8        CLV                             A:29 X:02 Y:FF P:65 SP:F9 PPU:196,202
FB65  18        CLC                             A:29 X:02 Y:FF P:25 SP:F9 PPU:196,208
FB66  A9 42     LDA #$42                        A:29 X:02 Y:FF P:24 SP:F9 PPU:196,214
FB68  60        RTS                             A:42 X:02 Y:FF P:24 SP:F9 PPU:196,220
F197  33 45    *RLA ($45),Y = 0548 @ 0647 = 29  A:42 X:02 Y:FF P:24 SP:FB PPU:196,238
F199  EA        NOP                             A:42 X:02 Y:FF P:24 SP:FB PPU:196,262
F19A  EA        NOP                             A:42 X:02 Y:FF P:24 SP:FB PPU:196,268
F19B  08        PHP                             A:42 X:02 Y:FF P:24 SP:FB PPU:196,274
F19C  48        PHA                             A:42 X:02 Y:FF P:24 SP:FA PPU:196,283
F19D  A0 DE     LDY #$DE                        A:42 X:02 Y:FF P:24 SP:F9 PPU:196,292
F19F  68        PLA                             A:42 X:02 Y:DE P:A4 SP:F9 PPU:196,298
F1A0  28        PLP                             A:42 X:02 Y:DE P:24 SP:FA PPU:196,310
F1A1  20 69 FB  JSR $FB69                       A:42 X:02 Y:DE P:24 SP:FB PPU:196,322
FB69  70 0A     BVS $FB75                       A:42 X:02 Y:DE P:24 SP:F9 PPU:196,340
FB6B  F0 08     BEQ $FB75                       A:42 X:02 Y:DE P:24 SP:F9 PPU:197,  5
FB6D  30 06     BMI $FB75                       A:42 X:02 Y:DE P:24 SP:F9 PPU:197, 11
FB6F  B0 04     BCS $FB75                       A:42 X:02 Y:DE P:24 SP:F9 PPU:197, 17
FB71  C9 42     CMP #$42                        A:42 X:02 Y:DE P:24 SP:F9 PPU:197, 23
FB73  F0 02     BEQ $FB77                       A:42 X:02 Y:DE P:27 SP:F9 PPU:197, 29
FB77  60        RTS                             A:42 X:02 Y:DE P:27 SP:F9 PPU:197, 38
F1A4  AD 47 06  LDA $0647 = 52                  A:42 X:02 Y:DE P:27 SP:FB PPU:197, 56
F1A7  C9 52     CMP #$52                        A:52 X:02 Y:DE P:25 SP:FB PPU:197, 68
F1A9  F0 02     BEQ $F1AD                       A:52 X:02 Y:DE P:27 SP:FB PPU:197, 74
F1AD  A0 FF     LDY #$FF                        A:52 X:02 Y:DE P:27 SP:FB PPU:197, 83
F1AF  A9 37     LDA #$37                        A:52 X:02 Y:FF P:A5 SP:FB PPU:197, 89
F1B1  8D 47 06  STA $0647 = 52                  A:37 X:02 Y:FF P:25 SP:FB PPU:197, 95
F1B4  20 68 FA  JSR $FA68                       A:37 X:02 Y:FF P:25 SP:FB PPU:197,107
FA68  24 01     BIT $01 = FF                    A:37 X:02 Y:FF P:25 SP:F9 PPU:197,125
FA6A  38        SEC                             A:37 X:02 Y:FF P:E5 SP:F9 PPU:197,134
FA6B  A9 75     LDA #$75                        A:37 X:02 Y:FF P:E5 SP:F9 PPU:197,140
FA6D  60        RTS                             A:75 X:02 Y:FF P:65 SP:F9 PPU:197,146
F1B7  33 45    *RLA ($45),Y = 0548 @ 0647 = 37  A:75 X:02 Y:FF P:65 SP:FB PPU:197,164
F1B9  EA        NOP                             A:65 X:02 Y:FF P:64 SP:FB PPU:197,188
F1BA  EA        NOP                             A:65 X:02 Y:FF P:64 SP:FB PPU:197,194
F1BB  08        PHP                             A:65 X:02 Y:FF P:64 SP:FB PPU:197,200
F1BC  48        PHA                             A:65 X:02 Y:FF P:64 SP:FA PPU:197,209
F1BD  A0 DF     LDY #$DF                        A:65 X:02 Y:FF P:64 SP:F9 PPU:197,218
F1BF  68        PLA                             A:65 X:02 Y:DF P:E4 SP:F9 PPU:197,224
F1C0  28        PLP                             A:65 X:02 Y:DF P:64 SP:FA PPU:197,236
F1C1  20 6E FA  JSR $FA6E                       A:65 X:02 Y:DF P:64 SP:FB PPU:197,248
FA6E  50 76     BVC $FAE6                       A:65 X:02 Y:DF P:64 SP:F9 PPU:197,266
FA70  F0 74     BEQ $FAE6                       A:65 X:02 Y:DF P:64 SP:F9 PPU:197,272
FA72  30 72     BMI $FAE6                       A:65 X:02 Y:DF P:64 SP:F9 PPU:197,278
FA74  B0 70     BCS $FAE6                       A:65 X:02 Y:DF P:64 SP:F9 PPU:197,284
FA76  C9 65     CMP #$65                        A:65 X:02 Y:DF P:64 SP:F9 PPU:197,290
FA78  D0 6C     BNE $FAE6                       A:65 X:02 Y:DF P:67 SP:F9 PPU:197,296
FA7A  60        RTS                             A:65 X:02 Y:DF P:67 SP:F9 PPU:197,302
F1C4  AD 47 06  LDA $0647 = 6F                  A:65 X:02 Y:DF P:67 SP:FB PPU:197,320
F1C7  C9 6F     CMP #$6F                        A:6F X:02 Y:DF P:65 SP:FB PPU:197,332
F1C9  F0 02     BEQ $F1CD                       A:6F X:02 Y:DF P:67 SP:FB PPU:197,338
F1CD  A0 E0     LDY #$E0                        A:6F X:02 Y:DF P:67 SP:FB PPU:198,  6
F1CF  A2 FF     LDX #$FF                        A:6F X:02 Y:E0 P:E5 SP:FB PPU:198, 12
F1D1  A9 A5     LDA #$A5                        A:6F X:FF Y:E0 P:E5 SP:FB PPU:198, 18
F1D3  85 47     STA $47 = 6F                    A:A5 X:FF Y:E0 P:E5 SP:FB PPU:198, 24
F1D5  20 53 FB  JSR $FB53                       A:A5 X:FF Y:E0 P:E5 SP:FB PPU:198, 33
FB53  24 01     BIT $01 = FF                    A:A5 X:FF Y:E0 P:E5 SP:F9 PPU:198, 51
FB55  18        CLC                             A:A5 X:FF Y:E0 P:E5 SP:F9 PPU:198, 60
FB56  A9 B3     LDA #$B3                        A:A5 X:FF Y:E0 P:E4 SP:F9 PPU:198, 66
FB58  60        RTS                             A:B3 X:FF Y:E0 P:E4 SP:F9 PPU:198, 72
F1D8  37 48    *RLA $48,X @ 47 = A5             A:B3 X:FF Y:E0 P:E4 SP:FB PPU:198, 90
F1DA  EA        NOP                             A:02 X:FF Y:E0 P:65 SP:FB PPU:198,108
F1DB  EA        NOP                             A:02 X:FF Y:E0 P:65 SP:FB PPU:198,114
F1DC  EA        NOP                             A:02 X:FF Y:E0 P:65 SP:FB PPU:198,120
F1DD  EA        NOP                             A:02 X:FF Y:E0 P:65 SP:FB PPU:198,126
F1DE  20 59 FB  JSR $FB59                       A:02 X:FF Y:E0 P:65 SP:FB PPU:198,132
FB59  50 1A     BVC $FB75                       A:02 X:FF Y:E0 P:65 SP:F9 PPU:198,150
FB5B  90 18     BCC $FB75                       A:02 X:FF Y:E0 P:65 SP:F9 PPU:198,156
FB5D  30 16     BMI $FB75                       A:02 X:FF Y:E0 P:65 SP:F9 PPU:198,162
FB5F  C9 02     CMP #$02                        A:02 X:FF Y:E0 P:65 SP:F9 PPU:198,168
FB61  D0 12     BNE $FB75                       A:02 X:FF Y:E0 P:67 SP:F9 PPU:198,174
FB63  60        RTS                             A:02 X:FF Y:E0 P:67 SP:F9 PPU:198,180
F1E1  A5 47     LDA $47 = 4A                    A:02 X:FF Y:E0 P:67 SP:FB PPU:198,198
F1E3  C9 4A     CMP #$4A                        A:4A X:FF Y:E0 P:65 SP:FB PPU:198,207
F1E5  F0 02     BEQ $F1E9                       A:4A X:FF Y:E0 P:67 SP:FB PPU:198,213
F1E9  C8        INY                             A:4A X:FF Y:E0 P:67 SP:FB PPU:198,222
F1EA  A9 29     LDA #$29                        A:4A X:FF Y:E1 P:E5 SP:FB PPU:198,228
F1EC  85 47     STA $47 = 4A                    A:29 X:FF Y:E1 P:65 SP:FB PPU:198,234
F1EE  20 64 FB  JSR $FB64                       A:29 X:FF Y:E1 P:65 SP:FB PPU:198,243
FB64  B8        CLV                             A:29 X:FF Y:E1 P:65 SP:F9 PPU:198,261
FB65  18        CLC                             A:29 X:FF Y:E1 P:25 SP:F9 PPU:198,267
FB66  A9 42     LDA #$42                        A:29 X:FF Y:E1 P:24 SP:F9 PPU:198,273
FB68  60        RTS                             A:42 X:FF Y:E1 P:24 SP:F9 PPU:198,279
F1F1  37 48    *RLA $48,X @ 47 = 29             A:42 X:FF Y:E1 P:24 SP:FB PPU:198,297
F1F3  EA        NOP                             A:42 X:FF Y:E1 P:24 SP:FB PPU:198,315
F1F4  EA        NOP                             A:42 X:FF Y:E1 P:24 SP:FB PPU:198,321
F1F5  EA        NOP                             A:42 X:FF Y:E1 P:24 SP:FB PPU:198,327
F1F6  EA        NOP                             A:42 X:FF Y:E1 P:24 SP:FB PPU:198,333
F1F7  20 69 FB  JSR $FB69                       A:42 X:FF Y:E1 P:24 SP:FB PPU:198,339
FB69  70 0A     BVS $FB75                       A:42 X:FF Y:E1 P:24 SP:F9 PPU:199, 16
FB6B  F0 08     BEQ $FB75                       A:42 X:FF Y:E1 P:24 SP:F9 PPU:199, 22
FB6D  30 06     BMI $FB75                       A:42 X:FF Y:E1 P:24 SP:F9 PPU:199, 28
FB6F  B0 04     BCS $FB75                       A:42 X:FF Y:E1 P:24 SP:F9 PPU:199, 34
FB71  C9 42     CMP #$42                        A:42 X:FF Y:E1 P:24 SP:F9 PPU:199, 40
FB73  F0 02     BEQ $FB77                       A:42 X:FF Y:E1 P:27 SP:F9 PPU:199, 46
FB77  60        RTS                             A:42 X:FF Y:E1 P:27 SP:F9 PPU:199, 55
F1FA  A5 47     LDA $47 = 52                    A:42 X:FF Y:E1 P:27 SP:FB PPU:199, 73
F1FC  C9 52     CMP #$52                        A:52 X:FF Y:E1 P:25 SP:FB PPU:199, 82
F1FE  F0 02     BEQ $F202                       A:52 X:FF Y:E1 P:27 SP:FB PPU:199, 88
F202  C8        INY                             A:52 X:FF Y:E1 P:27 SP:FB PPU:199, 97
F203  A9 37     LDA #$37                        A:52 X:FF Y:E2 P:A5 SP:FB PPU:199,103
F205  85 47     STA $47 = 52                    A:37 X:FF Y:E2 P:25 SP:FB PPU:199,109
F207  20 68 FA  JSR $FA68                       A:37 X:FF Y:E2 P:25 SP:FB PPU:199,118
FA68  24 01     BIT $01 = FF                    A:37 X:FF Y:E2 P:25 SP:F9 PPU:199,136
FA6A  38        SEC                             A:37 X:FF Y:E2 P:E5 SP:F9 PPU:199,145
FA6B  A9 75     LDA #$75                        A:37 X:FF Y:E2 P:E5 SP:F9 PPU:199,151
FA6D  60        RTS                             A:75 X:FF Y:E2 P:65 SP:F9 PPU:199,157
F20A  37 48    *RLA $48,X @ 47 = 37             A:75 X:FF Y:E2 P:65 SP:FB PPU:199,175
F20C  EA        NOP                             A:65 X:FF Y:E2 P:64 SP:FB PPU:199,193
F20D  EA        NOP                             A:65 X:FF Y:E2 P:64 SP:FB PPU:199,199
F20E  EA        NOP                             A:65 X:FF Y:E2 P:64 SP:FB PPU:199,205
F20F  EA        NOP                             A:65 X:FF Y:E2 P:64 SP:FB PPU:199,211
F210  20 6E FA  JSR $FA6E                       A:65 X:FF Y:E2 P:64 SP:FB PPU:199,217
FA6E  50 76     BVC $FAE6                       A:65 X:FF Y:E2 P:64 SP:F9 PPU:199,235
FA70  F0 74     BEQ $FAE6                       A:65 X:FF Y:E2 P:64 SP:F9 PPU:199,241
FA72  30 72     BMI $FAE6                       A:65 X:FF Y:E2 P:64 SP:F9 PPU:199,247
FA74  B0 70     BCS $FAE6                       A:65 X:FF Y:E2 P:64 SP:F9 PPU:199,253
FA76  C9 65     CMP #$65                        A:65 X:FF Y:E2 P:64 SP:F9 PPU:199,259
FA78  D0 6C     BNE $FAE6                       A:65 X:FF Y:E2 P:67 SP:F9 PPU:199,265
FA7A  60        RTS                             A:65 X:FF Y:E2 P:67 SP:F9 PPU:199,271
F213  A5 47     LDA $47 = 6F                    A:65 X:FF Y:E2 P:67 SP:FB PPU:199,289
F215  C9 6F     CMP #$6F                        A:6F X:FF Y:E2 P:65 SP:FB PPU:199,298
F217  F0 02     BEQ $F21B                       A:6F X:FF Y:E2 P:67 SP:FB PPU:199,304
F21B  A9 A5     LDA #$A5                        A:6F X:FF Y:E2 P:67 SP:FB PPU:199,313
F21D  8D 47 06  STA $0647 = 6F                  A:A5 X:FF Y:E2 P:E5 SP:FB PPU:199,319
F220  A0 FF     LDY #$FF                        A:A5 X:FF Y:E2 P:E5 SP:FB PPU:199,331
F222  20 53 FB  JSR $FB53                       A:A5 X:FF Y:FF P:E5 SP:FB PPU:199,337
FB53  24 01     BIT $01 = FF                    A:A5 X:FF Y:FF P:E5 SP:F9 PPU:200, 14
FB55  18        CLC                             A:A5 X:FF Y:FF P:E5 SP:F9 PPU:200, 23
FB56  A9 B3     LDA #$B3                        A:A5 X:FF Y:FF P:E4 SP:F9 PPU:200, 29
FB58  60        RTS                             A:B3 X:FF Y:FF P:E4 SP:F9 PPU:200, 35
F225  3B 48 05 *RLA $0548,Y @ 0647 = A5         A:B3 X:FF Y:FF P:E4 SP:FB PPU:200, 53
F228  EA        NOP                             A:02 X:FF Y:FF P:65 SP:FB PPU:200, 74
F229  EA        NOP                             A:02 X:FF Y:FF P:65 SP:FB PPU:200, 80
F22A  08        PHP                             A:02 X:FF Y:FF P:65 SP:FB PPU:200, 86
F22B  48        PHA                             A:02 X:FF Y:FF P:65 SP:FA PPU:200, 95
F22C  A0 E3     LDY #$E3                        A:02 X:FF Y:FF P:65 SP:F9 PPU:200,104
F22E  68        PLA                             A:02 X:FF Y:E3 P:E5 SP:F9 PPU:200,110
F22F  28        PLP                             A:02 X:FF Y:E3 P:65 SP:FA PPU:200,122
F230  20 59 FB  JSR $FB59                       A:02 X:FF Y:E3 P:65 SP:FB PPU:200,134
FB59  50 1A     BVC $FB75                       A:02 X:FF Y:E3 P:65 SP:F9 PPU:200,152
FB5B  90 18     BCC $FB75                       A:02 X:FF Y:E3 P:65 SP:F9 PPU:200,158
FB5D  30 16     BMI $FB75                       A:02 X:FF Y:E3 P:65 SP:F9 PPU:200,164
FB5F  C9 02     CMP #$02                        A:02 X:FF Y:E3 P:65 SP:F9 PPU:200,170
FB61  D0 12     BNE $FB75                       A:02 X:FF Y:E3 P:67 SP:F9 PPU:200,176
FB63  60        RTS                             A:02 X:FF Y:E3 P:67 SP:F9 PPU:200,182
F233  AD 47 06  LDA $0647 = 4A                  A:02 X:FF Y:E3 P:67 SP:FB PPU:200,200
F236  C9 4A     CMP #$4A                        A:4A X:FF Y:E3 P:65 SP:FB PPU:200,212
F238  F0 02     BEQ $F23C                       A:4A X:FF Y:E3 P:67 SP:FB PPU:200,218
F23C  A0 FF     LDY #$FF                        A:4A X:FF Y:E3 P:67 SP:FB PPU:200,227
F23E  A9 29     LDA #$29                        A:4A X:FF Y:FF P:E5 SP:FB PPU:200,233
F240  8D 47 06  STA $0647 = 4A                  A:29 X:FF Y:FF P:65 SP:FB PPU:200,239
F243  20 64 FB  JSR $FB64                       A:29 X:FF Y:FF P:65 SP:FB PPU:200,251
FB64  B8        CLV                             A:29 X:FF Y:FF P:65 SP:F9 PPU:200,269
FB65  18        CLC                             A:29 X:FF Y:FF P:25 SP:F9 PPU:200,275
FB66  A9 42     LDA #$42                        A:29 X:FF Y:FF P:24 SP:F9 PPU:200,281
FB68  60        RTS                             A:42 X:FF Y:FF P:24 SP:F9 PPU:200,287
F246  3B 48 05 *RLA $0548,Y @ 0647 = 29         A:42 X:FF Y:FF P:24 SP:FB PPU:200,305
F249  EA        NOP                             A:42 X:FF Y:FF P:24 SP:FB PPU:200,326
F24A  EA        NOP                             A:42 X:FF Y:FF P:24 SP:FB PPU:200,332
F24B  08        PHP                             A:42 X:FF Y:FF P:24 SP:FB PPU:200,338
F24C  48        PHA                             A:42 X:FF Y:FF P:24 SP:FA PPU:201,  6
F24D  A0 E4     LDY #$E4                        A:42 X:FF Y:FF P:24 SP:F9 PPU:201, 15
F24F  68        PLA                             A:42 X:FF Y:E4 P:A4 SP:F9 PPU:201, 21
F250  28        PLP                             A:42 X:FF Y:E4 P:24 SP:FA PPU:201, 33
F251  20 69 FB  JSR $FB69                       A:42 X:FF Y:E4 P:24 SP:FB PPU:201, 45
FB69  70 0A     BVS $FB75                       A:42 X:FF Y:E4 P:24 SP:F9 PPU:201, 63
FB6B  F0 08     BEQ $FB75                       A:42 X:FF Y:E4 P:24 SP:F9 PPU:201, 69
FB6D  30 06     BMI $FB75                       A:42 X:FF Y:E4 P:24 SP:F9 PPU:201, 75
FB6F  B0 04     BCS $FB75                       A:42 X:FF Y:E4 P:24 SP:F9 PPU:201, 81
FB71  C9 42     CMP #$42                        A:42 X:FF Y:E4 P:24 SP:F9 PPU:201, 87
FB73  F0 02     BEQ $FB77                       A:42 X:FF Y:E4 P:27 SP:F9 PPU:201, 93
FB77  60        RTS                             A:42 X:FF Y:E4 P:27 SP:F9 PPU:201,102
F254  AD 47 06  LDA $0647 = 52                  A:42 X:FF Y:E4 P:27 SP:FB PPU:201,120
F257  C9 52     CMP #$52                        A:52 X:FF Y:E4 P:25 SP:FB PPU:201,132
F259  F0 02     BEQ $F25D                       A:52 X:FF Y:E4 P:27 SP:FB PPU:201,138
F25D  A0 FF     LDY #$FF                        A:52 X:FF Y:E4 P:27 SP:FB PPU:201,147
F25F  A9 37     LDA #$37                        A:52 X:FF Y:FF P:A5 SP:FB PPU:201,153
F261  8D 47 06  STA $0647 = 52                  A:37 X:FF Y:FF P:25 SP:FB PPU:201,159
F264  20 68 FA  JSR $FA68                       A:37 X:FF Y:FF P:25 SP:FB PPU:201,171
FA68  24 01     BIT $01 = FF                    A:37 X:FF Y:FF P:25 SP:F9 PPU:201,189
FA6A  38        SEC                             A:37 X:FF Y:FF P:E5 SP:F9 PPU:201,198
FA6B  A9 75     LDA #$75                        A:37 X:FF Y:FF P:E5 SP:F9 PPU:201,204
FA6D  60        RTS                             A:75 X:FF Y:FF P:65 SP:F9 PPU:201,210
F267  3B 48 05 *RLA $0548,Y @ 0647 = 37         A:75 X:FF Y:FF P:65 SP:FB PPU:201,228
F26A  EA        NOP                             A:65 X:FF Y:FF P:64 SP:FB PPU:201,249
F26B  EA        NOP                             A:65 X:FF Y:FF P:64 SP:FB PPU:201,255
F26C  08        PHP                             A:65 X:FF Y:FF P:64 SP:FB PPU:201,261
F26D  48        PHA                             A:65 X:FF Y:FF P:64 SP:FA PPU:201,270
F26E  A0 E5     LDY #$E5                        A:65 X:FF Y:FF P:64 SP:F9 PPU:201,279
F270  68        PLA                             A:65 X:FF Y:E5 P:E4 SP:F9 PPU:201,285
F271  28        PLP                             A:65 X:FF Y:E5 P:64 SP:FA PPU:201,297
F272  20 6E FA  JSR $FA6E                       A:65 X:FF Y:E5 P:64 SP:FB PPU:201,309
FA6E  50 76     BVC $FAE6                       A:65 X:FF Y:E5 P:64 SP:F9 PPU:201,327
FA70  F0 74     BEQ $FAE6                       A:65 X:FF Y:E5 P:64 SP:F9 PPU:201,333
FA72  30 72     BMI $FAE6                       A:65 X:FF Y:E5 P:64 SP:F9 PPU:201,339
FA74  B0 70     BCS $FAE6                       A:65 X:FF Y:E5 P:64 SP:F9 PPU:202,  4
FA76  C9 65     CMP #$65                        A:65 X:FF Y:E5 P:64 SP:F9 PPU:202, 10
FA78  D0 6C     BNE $FAE6                       A:65 X:FF Y:E5 P:67 SP:F9 PPU:202, 16
FA7A  60        RTS                             A:65 X:FF Y:E5 P:67 SP:F9 PPU:202, 22
F275  AD 47 06  LDA $0647 = 6F                  A:65 X:FF Y:E5 P:67 SP:FB PPU:202, 40
F278  C9 6F     CMP #$6F                        A:6F X:FF Y:E5 P:65 SP:FB PPU:202, 52
F27A  F0 02     BEQ $F27E                       A:6F X:FF Y:E5 P:67 SP:FB PPU:202, 58
F27E  A0 E6     LDY #$E6                        A:6F X:FF Y:E5 P:67 SP:FB PPU:202, 67
F280  A2 FF     LDX #$FF                        A:6F X:FF Y:E6 P:E5 SP:FB PPU:202, 73
F282  A9 A5     LDA #$A5                        A:6F X:FF Y:E6 P:E5 SP:FB PPU:202, 79
F284  8D 47 06  STA $0647 = 6F                  A:A5 X:FF Y:E6 P:E5 SP:FB PPU:202, 85
F287  20 53 FB  JSR $FB53                       A:A5 X:FF Y:E6 P:E5 SP:FB PPU:202, 97
FB53  24 01     BIT $01 = FF                    A:A5 X:FF Y:E6 P:E5 SP:F9 PPU:202,115
FB55  18        CLC                             A:A5 X:FF Y:E6 P:E5 SP:F9 PPU:202,124
FB56  A9 B3     LDA #$B3                        A:A5 X:FF Y:E6 P:E4 SP:F9 PPU:202,130
FB58  60        RTS                             A:B3 X:FF Y:E6 P:E4 SP:F9 PPU:202,136
F28A  3F 48 05 *RLA $0548,X @ 0647 = A5         A:B3 X:FF Y:E6 P:E4 SP:FB PPU:202,154
F28D  EA        NOP                             A:02 X:FF Y:E6 P:65 SP:FB PPU:202,175
F28E  EA        NOP                             A:02 X:FF Y:E6 P:65 SP:FB PPU:202,181
F28F  EA        NOP                             A:02 X:FF Y:E6 P:65 SP:FB PPU:202,187
F290  EA        NOP                             A:02 X:FF Y:E6 P:65 SP:FB PPU:202,193
F291  20 59 FB  JSR $FB59                       A:02 X:FF Y:E6 P:65 SP:FB PPU:202,199
FB59  50 1A     BVC $FB75                       A:02 X:FF Y:E6 P:65 SP:F9 PPU:202,217
FB5B  90 18     BCC $FB75                       A:02 X:FF Y:E6 P:65 SP:F9 PPU:202,223
FB5D  30 16     BMI $FB75                       A:02 X:FF Y:E6 P:65 SP:F9 PPU:202,229
FB5F  C9 02     CMP #$02                        A:02 X:FF Y:E6 P:65 SP:F9 PPU:202,235
FB61  D0 12     BNE $FB75                       A:02 X:FF Y:E6 P:67 SP:F9 PPU:202,241
FB63  60        RTS                             A:02 X:FF Y:E6 P:67 SP:F9 PPU:202,247
F294  AD 47 06  LDA $0647 = 4A                  A:02 X:FF Y:E6 P:67 SP:FB PPU:202,265
F297  C9 4A     CMP #$4A                        A:4A X:FF Y:E6 P:65 SP:FB PPU:202,277
F299  F0 02     BEQ $F29D                       A:4A X:FF Y:E6 P:67 SP:FB PPU:202,283
F29D  C8        INY                             A:4A X:FF Y:E6 P:67 SP:FB PPU:202,292
F29E  A9 29     LDA #$29                        A:4A X:FF Y:E7 P:E5 SP:FB PPU:202,298
F2A0  8D 47 06  STA $0647 = 4A                  A:29 X:FF Y:E7 P:65 SP:FB PPU:202,304
F2A3  20 64 FB  JSR $FB64                       A:29 X:FF Y:E7 P:65 SP:FB PPU:202,316
FB64  B8        CLV                             A:29 X:FF Y:E7 P:65 SP:F9 PPU:202,334
FB65  18        CLC                             A:29 X:FF Y:E7 P:25 SP:F9 PPU:202,340
FB66  A9 42     LDA #$42                        A:29 X:FF Y:E7 P:24 SP:F9 PPU:203,  5
FB68  60        RTS                             A:42 X:FF Y:E7 P:24 SP:F9 PPU:203, 11
F2A6  3F 48 05 *RLA $0548,X @ 0647 = 29         A:42 X:FF Y:E7 P:24 SP:FB PPU:203, 29
F2A9  EA        NOP                             A:42 X:FF Y:E7 P:24 SP:FB PPU:203, 50
F2AA  EA        NOP                             A:42 X:FF Y:E7 P:24 SP:FB PPU:203, 56
F2AB  EA        NOP                             A:42 X:FF Y:E7 P:24 SP:FB PPU:203, 62
F2AC  EA        NOP                             A:42 X:FF Y:E7 P:24 SP:FB PPU:203, 68
F2AD  20 69 FB  JSR $FB69                       A:42 X:FF Y:E7 P:24 SP:FB PPU:203, 74
FB69  70 0A     BVS $FB75                       A:42 X:FF Y:E7 P:24 SP:F9 PPU:203, 92
FB6B  F0 08     BEQ $FB75                       A:42 X:FF Y:E7 P:24 SP:F9 PPU:203, 98
FB6D  30 06     BMI $FB75                       A:42 X:FF Y:E7 P:24 SP:F9 PPU:203,104
FB6F  B0 04     BCS $FB75                       A:42 X:FF Y:E7 P:24 SP:F9 PPU:203,110
FB71  C9 42     CMP #$42                        A:42 X:FF Y:E7 P:24 SP:F9 PPU:203,116
FB73  F0 02     BEQ $FB77                       A:42 X:FF Y:E7 P:27 SP:F9 PPU:203,122
FB77  60        RTS                             A:42 X:FF Y:E7 P:27 SP:F9 PPU:203,131
F2B0  AD 47 06  LDA $0647 = 52                  A:42 X:FF Y:E7 P:27 SP:FB PPU:203,149
F2B3  C9 52     CMP #$52                        A:52 X:FF Y:E7 P:25 SP:FB PPU:203,161
F2B5  F0 02     BEQ $F2B9                       A:52 X:FF Y:E7 P:27 SP:FB PPU:203,167
F2B9  C8        INY                             A:52 X:FF Y:E7 P:27 SP:FB PPU:203,176
F2BA  A9 37     LDA #$37                        A:52 X:FF Y:E8 P:A5 SP:FB PPU:203,182
F2BC  8D 47 06  STA $0647 = 52                  A:37 X:FF Y:E8 P:25 SP:FB PPU:203,188
F2BF  20 68 FA  JSR $FA68                       A:37 X:FF Y:E8 P:25 SP:FB PPU:203,200
FA68  24 01     BIT $01 = FF                    A:37 X:FF Y:E8 P:25 SP:F9 PPU:203,218
FA6A  38        SEC                             A:37 X:FF Y:E8 P:E5 SP:F9 PPU:203,227
FA6B  A9 75     LDA #$75                        A:37 X:FF Y:E8 P:E5 SP:F9 PPU:203,233
FA6D  60        RTS                             A:75 X:FF Y:E8 P:65 SP:F9 PPU:203,239
F2C2  3F 48 05 *RLA $0548,X @ 0647 = 37         A:75 X:FF Y:E8 P:65 SP:FB PPU:203,257
F2C5  EA        NOP                             A:65 X:FF Y:E8 P:64 SP:FB PPU:203,278
F2C6  EA        NOP                             A:65 X:FF Y:E8 P:64 SP:FB PPU:203,284
F2C7  EA        NOP                             A:65 X:FF Y:E8 P:64 SP:FB PPU:203,290
F2C8  EA        NOP                             A:65 X:FF Y:E8 P:64 SP:FB PPU:203,296
F2C9  20 6E FA  JSR $FA6E                       A:65 X:FF Y:E8 P:64 SP:FB PPU:203,302
FA6E  50 76     BVC $FAE6                       A:65 X:FF Y:E8 P:64 SP:F9 PPU:203,320
FA70  F0 74     BEQ $FAE6                       A:65 X:FF Y:E8 P:64 SP:F9 PPU:203,326
FA72  30 72     BMI $FAE6                       A:65 X:FF Y:E8 P:64 SP:F9 PPU:203,332
FA74  B0 70     BCS $FAE6                       A:65 X:FF Y:E8 P:64 SP:F9 PPU:203,338
FA76  C9 65     CMP #$65                        A:65 X:FF Y:E8 P:64 SP:F9 PPU:204,  3
FA78  D0 6C     BNE $FAE6                       A:65 X:FF Y:E8 P:67 SP:F9 PPU:204,  9
FA7A  60        RTS                             A:65 X:FF Y:E8 P:67 SP:F9 PPU:204, 15
F2CC  AD 47 06  LDA $0647 = 6F                  A:65 X:FF Y:E8 P:67 SP:FB PPU:204, 33
F2CF  C9 6F     CMP #$6F                        A:6F X:FF Y:E8 P:65 SP:FB PPU:204, 45
F2D1  F0 02     BEQ $F2D5                       A:6F X:FF Y:E8 P:67 SP:FB PPU:204, 51
F2D5  60        RTS                             A:6F X:FF Y:E8 P:67 SP:FB PPU:204, 60
C647  20 D6 F2  JSR $F2D6                       A:6F X:FF Y:E8 P:67 SP:FD PPU:204, 78
F2D6  A9 FF     LDA #$FF                        A:6F X:FF Y:E8 P:67 SP:FB PPU:204, 96
F2D8  85 01     STA $01 = FF                    A:FF X:FF Y:E8 P:E5 SP:FB PPU:204,102
F2DA  A0 E9     LDY #$E9                        A:FF X:FF Y:E8 P:E5 SP:FB PPU:204,111
F2DC  A2 02     LDX #$02                        A:FF X:FF Y:E9 P:E5 SP:FB PPU:204,117
F2DE  A9 47     LDA #$47                        A:FF X:02 Y:E9 P:65 SP:FB PPU:204,123
F2E0  85 47     STA $47 = 6F                    A:47 X:02 Y:E9 P:65 SP:FB PPU:204,129
F2E2  A9 06     LDA #$06                        A:47 X:02 Y:E9 P:65 SP:FB PPU:204,138
F2E4  85 48     STA $48 = 06                    A:06 X:02 Y:E9 P:65 SP:FB PPU:204,144
F2E6  A9 A5     LDA #$A5                        A:06 X:02 Y:E9 P:65 SP:FB PPU:204,153
F2E8  8D 47 06  STA $0647 = 6F                  A:A5 X:02 Y:E9 P:E5 SP:FB PPU:204,159
F2EB  20 1D FB  JSR $FB1D                       A:A5 X:02 Y:E9 P:E5 SP:FB PPU:204,171
FB1D  24 01     BIT $01 = FF                    A:A5 X:02 Y:E9 P:E5 SP:F9 PPU:204,189
FB1F  18        CLC                             A:A5 X:02 Y:E9 P:E5 SP:F9 PPU:204,198
FB20  A9 B3     LDA #$B3                        A:A5 X:02 Y:E9 P:E4 SP:F9 PPU:204,204
FB22  60        RTS                             A:B3 X:02 Y:E9 P:E4 SP:F9 PPU:204,210
F2EE  43 45    *SRE ($45,X) @ 47 = 0647 = A5    A:B3 X:02 Y:E9 P:E4 SP:FB PPU:204,228
F2F0  EA        NOP                             A:E1 X:02 Y:E9 P:E5 SP:FB PPU:204,252
F2F1  EA        NOP                             A:E1 X:02 Y:E9 P:E5 SP:FB PPU:204,258
F2F2  EA        NOP                             A:E1 X:02 Y:E9 P:E5 SP:FB PPU:204,264
F2F3  EA        NOP                             A:E1 X:02 Y:E9 P:E5 SP:FB PPU:204,270
F2F4  20 23 FB  JSR $FB23                       A:E1 X:02 Y:E9 P:E5 SP:FB PPU:204,276
FB23  50 50     BVC $FB75                       A:E1 X:02 Y:E9 P:E5 SP:F9 PPU:204,294
FB25  90 4E     BCC $FB75                       A:E1 X:02 Y:E9 P:E5 SP:F9 PPU:204,300
FB27  10 4C     BPL $FB75                       A:E1 X:02 Y:E9 P:E5 SP:F9 PPU:204,306
FB29  C9 E1     CMP #$E1                        A:E1 X:02 Y:E9 P:E5 SP:F9 PPU:204,312
FB2B  D0 48     BNE $FB75                       A:E1 X:02 Y:E9 P:67 SP:F9 PPU:204,318
FB2D  60        RTS                             A:E1 X:02 Y:E9 P:67 SP:F9 PPU:204,324
F2F7  AD 47 06  LDA $0647 = 52                  A:E1 X:02 Y:E9 P:67 SP:FB PPU:205,  1
F2FA  C9 52     CMP #$52                        A:52 X:02 Y:E9 P:65 SP:FB PPU:205, 13
F2FC  F0 02     BEQ $F300                       A:52 X:02 Y:E9 P:67 SP:FB PPU:205, 19
F300  C8        INY                             A:52 X:02 Y:E9 P:67 SP:FB PPU:205, 31
F301  A9 29     LDA #$29                        A:52 X:02 Y:EA P:E5 SP:FB PPU:205, 37
F303  8D 47 06  STA $0647 = 52                  A:29 X:02 Y:EA P:65 SP:FB PPU:205, 43
F306  20 2E FB  JSR $FB2E                       A:29 X:02 Y:EA P:65 SP:FB PPU:205, 55
FB2E  B8        CLV                             A:29 X:02 Y:EA P:65 SP:F9 PPU:205, 73
FB2F  18        CLC                             A:29 X:02 Y:EA P:25 SP:F9 PPU:205, 79
FB30  A9 42     LDA #$42                        A:29 X:02 Y:EA P:24 SP:F9 PPU:205, 85
FB32  60        RTS                             A:42 X:02 Y:EA P:24 SP:F9 PPU:205, 91
F309  43 45    *SRE ($45,X) @ 47 = 0647 = 29    A:42 X:02 Y:EA P:24 SP:FB PPU:205,109
F30B  EA        NOP                             A:56 X:02 Y:EA P:25 SP:FB PPU:205,133
F30C  EA        NOP                             A:56 X:02 Y:EA P:25 SP:FB PPU:205,139
F30D  EA        NOP                             A:56 X:02 Y:EA P:25 SP:FB PPU:205,145
F30E  EA        NOP                             A:56 X:02 Y:EA P:25 SP:FB PPU:205,151
F30F  20 33 FB  JSR $FB33                       A:56 X:02 Y:EA P:25 SP:FB PPU:205,157
FB33  70 40     BVS $FB75                       A:56 X:02 Y:EA P:25 SP:F9 PPU:205,175
FB35  F0 3E     BEQ $FB75                       A:56 X:02 Y:EA P:25 SP:F9 PPU:205,181
FB37  30 3C     BMI $FB75                       A:56 X:02 Y:EA P:25 SP:F9 PPU:205,187
FB39  90 3A     BCC $FB75                       A:56 X:02 Y:EA P:25 SP:F9 PPU:205,193
FB3B  C9 56     CMP #$56                        A:56 X:02 Y:EA P:25 SP:F9 PPU:205,199
FB3D  D0 36     BNE $FB75                       A:56 X:02 Y:EA P:27 SP:F9 PPU:205,205
FB3F  60        RTS                             A:56 X:02 Y:EA P:27 SP:F9 PPU:205,211
F312  AD 47 06  LDA $0647 = 14                  A:56 X:02 Y:EA P:27 SP:FB PPU:205,229
F315  C9 14     CMP #$14                        A:14 X:02 Y:EA P:25 SP:FB PPU:205,241
F317  F0 02     BEQ $F31B                       A:14 X:02 Y:EA P:27 SP:FB PPU:205,247
F31B  C8        INY                             A:14 X:02 Y:EA P:27 SP:FB PPU:205,256
F31C  A9 37     LDA #$37                        A:14 X:02 Y:EB P:A5 SP:FB PPU:205,262
F31E  8D 47 06  STA $0647 = 14                  A:37 X:02 Y:EB P:25 SP:FB PPU:205,268
F321  20 40 FB  JSR $FB40                       A:37 X:02 Y:EB P:25 SP:FB PPU:205,280
FB40  24 01     BIT $01 = FF                    A:37 X:02 Y:EB P:25 SP:F9 PPU:205,298
FB42  38        SEC                             A:37 X:02 Y:EB P:E5 SP:F9 PPU:205,307
FB43  A9 75     LDA #$75                        A:37 X:02 Y:EB P:E5 SP:F9 PPU:205,313
FB45  60        RTS                             A:75 X:02 Y:EB P:65 SP:F9 PPU:205,319
F324  43 45    *SRE ($45,X) @ 47 = 0647 = 37    A:75 X:02 Y:EB P:65 SP:FB PPU:205,337
F326  EA        NOP                             A:6E X:02 Y:EB P:65 SP:FB PPU:206, 20
F327  EA        NOP                             A:6E X:02 Y:EB P:65 SP:FB PPU:206, 26
F328  EA        NOP                             A:6E X:02 Y:EB P:65 SP:FB PPU:206, 32
F329  EA        NOP                             A:6E X:02 Y:EB P:65 SP:FB PPU:206, 38
F32A  20 46 FB  JSR $FB46                       A:6E X:02 Y:EB P:65 SP:FB PPU:206, 44
FB46  50 2D     BVC $FB75                       A:6E X:02 Y:EB P:65 SP:F9 PPU:206, 62
FB48  F0 2B     BEQ $FB75                       A:6E X:02 Y:EB P:65 SP:F9 PPU:206, 68
FB4A  30 29     BMI $FB75                       A:6E X:02 Y:EB P:65 SP:F9 PPU:206, 74
FB4C  90 27     BCC $FB75                       A:6E X:02 Y:EB P:65 SP:F9 PPU:206, 80
FB4E  C9 6E     CMP #$6E                        A:6E X:02 Y:EB P:65 SP:F9 PPU:206, 86
FB50  D0 23     BNE $FB75                       A:6E X:02 Y:EB P:67 SP:F9 PPU:206, 92
FB52  60        RTS                             A:6E X:02 Y:EB P:67 SP:F9 PPU:206, 98
F32D  AD 47 06  LDA $0647 = 1B                  A:6E X:02 Y:EB P:67 SP:FB PPU:206,116
F330  C9 1B     CMP #$1B                        A:1B X:02 Y:EB P:65 SP:FB PPU:206,128
F332  F0 02     BEQ $F336                       A:1B X:02 Y:EB P:67 SP:FB PPU:206,134
F336  C8        INY                             A:1B X:02 Y:EB P:67 SP:FB PPU:206,143
F337  A9 A5     LDA #$A5                        A:1B X:02 Y:EC P:E5 SP:FB PPU:206,149
F339  85 47     STA $47 = 47                    A:A5 X:02 Y:EC P:E5 SP:FB PPU:206,155
F33B  20 1D FB  JSR $FB1D                       A:A5 X:02 Y:EC P:E5 SP:FB PPU:206,164
FB1D  24 01     BIT $01 = FF                    A:A5 X:02 Y:EC P:E5 SP:F9 PPU:206,182
FB1F  18        CLC                             A:A5 X:02 Y:EC P:E5 SP:F9 PPU:206,191
FB20  A9 B3     LDA #$B3                        A:A5 X:02 Y:EC P:E4 SP:F9 PPU:206,197
FB22  60        RTS                             A:B3 X:02 Y:EC P:E4 SP:F9 PPU:206,203
F33E  47 47    *SRE $47 = A5                    A:B3 X:02 Y:EC P:E4 SP:FB PPU:206,221
F340  EA        NOP                             A:E1 X:02 Y:EC P:E5 SP:FB PPU:206,236
F341  EA        NOP                             A:E1 X:02 Y:EC P:E5 SP:FB PPU:206,242
F342  EA        NOP                             A:E1 X:02 Y:EC P:E5 SP:FB PPU:206,248
F343  EA        NOP                             A:E1 X:02 Y:EC P:E5 SP:FB PPU:206,254
F344  20 23 FB  JSR $FB23                       A:E1 X:02 Y:EC P:E5 SP:FB PPU:206,260
FB23  50 50     BVC $FB75                       A:E1 X:02 Y:EC P:E5 SP:F9 PPU:206,278
FB25  90 4E     BCC $FB75                       A:E1 X:02 Y:EC P:E5 SP:F9 PPU:206,284
FB27  10 4C     BPL $FB75                       A:E1 X:02 Y:EC P:E5 SP:F9 PPU:206,290
FB29  C9 E1     CMP #$E1                        A:E1 X:02 Y:EC P:E5 SP:F9 PPU:206,296
FB2B  D0 48     BNE $FB75                       A:E1 X:02 Y:EC P:67 SP:F9 PPU:206,302
FB2D  60        RTS                             A:E1 X:02 Y:EC P:67 SP:F9 PPU:206,308
F347  A5 47     LDA $47 = 52                    A:E1 X:02 Y:EC P:67 SP:FB PPU:206,326
F349  C9 52     CMP #$52                        A:52 X:02 Y:EC P:65 SP:FB PPU:206,335
F34B  F0 02     BEQ $F34F                       A:52 X:02 Y:EC P:67 SP:FB PPU:207,  0
F34F  C8        INY                             A:52 X:02 Y:EC P:67 SP:FB PPU:207,  9
F350  A9 29     LDA #$29                        A:52 X:02 Y:ED P:E5 SP:FB PPU:207, 15
F352  85 47     STA $47 = 52                    A:29 X:02 Y:ED P:65 SP:FB PPU:207, 21
F354  20 2E FB  JSR $FB2E                       A:29 X:02 Y:ED P:65 SP:FB PPU:207, 30
FB2E  B8        CLV                             A:29 X:02 Y:ED P:65 SP:F9 PPU:207, 48
FB2F  18        CLC                             A:29 X:02 Y:ED P:25 SP:F9 PPU:207, 54
FB30  A9 42     LDA #$42                        A:29 X:02 Y:ED P:24 SP:F9 PPU:207, 60
FB32  60        RTS                             A:42 X:02 Y:ED P:24 SP:F9 PPU:207, 66
F357  47 47    *SRE $47 = 29                    A:42 X:02 Y:ED P:24 SP:FB PPU:207, 84
F359  EA        NOP                             A:56 X:02 Y:ED P:25 SP:FB PPU:207, 99
F35A  EA        NOP                             A:56 X:02 Y:ED P:25 SP:FB PPU:207,105
F35B  EA        NOP                             A:56 X:02 Y:ED P:25 SP:FB PPU:207,111
F35C  EA        NOP                             A:56 X:02 Y:ED P:25 SP:FB PPU:207,117
F35D  20 33 FB  JSR $FB33                       A:56 X:02 Y:ED P:25 SP:FB PPU:207,123
FB33  70 40     BVS $FB75                       A:56 X:02 Y:ED P:25 SP:F9 PPU:207,141
FB35  F0 3E     BEQ $FB75                       A:56 X:02 Y:ED P:25 SP:F9 PPU:207,147
FB37  30 3C     BMI $FB75                       A:56 X:02 Y:ED P:25 SP:F9 PPU:207,153
FB39  90 3A     BCC $FB75                       A:56 X:02 Y:ED P:25 SP:F9 PPU:207,159
FB3B  C9 56     CMP #$56                        A:56 X:02 Y:ED P:25 SP:F9 PPU:207,165
FB3D  D0 36     BNE $FB75                       A:56 X:02 Y:ED P:27 SP:F9 PPU:207,171
FB3F  60        RTS                             A:56 X:02 Y:ED P:27 SP:F9 PPU:207,177
F360  A5 47     LDA $47 = 14                    A:56 X:02 Y:ED P:27 SP:FB PPU:207,195
F362  C9 14     CMP #$14                        A:14 X:02 Y:ED P:25 SP:FB PPU:207,204
F364  F0 02     BEQ $F368                       A:14 X:02 Y:ED P:27 SP:FB PPU:207,210
F368  C8        INY                             A:14 X:02 Y:ED P:27 SP:FB PPU:207,219
F369  A9 37     LDA #$37                        A:14 X:02 Y:EE P:A5 SP:FB PPU:207,225
F36B  85 47     STA $47 = 14                    A:37 X:02 Y:EE P:25 SP:FB PPU:207,231
F36D  20 40 FB  JSR $FB40                       A:37 X:02 Y:EE P:25 SP:FB PPU:207,240
FB40  24 01     BIT $01 = FF                    A:37 X:02 Y:EE P:25 SP:F9 PPU:207,258
FB42  38        SEC                             A:37 X:02 Y:EE P:E5 SP:F9 PPU:207,267
FB43  A9 75     LDA #$75                        A:37 X:02 Y:EE P:E5 SP:F9 PPU:207,273
FB45  60        RTS                             A:75 X:02 Y:EE P:65 SP:F9 PPU:207,279
F370  47 47    *SRE $47 = 37                    A:75 X:02 Y:EE P:65 SP:FB PPU:207,297
F372  EA        NOP                             A:6E X:02 Y:EE P:65 SP:FB PPU:207,312
F373  EA        NOP                             A:6E X:02 Y:EE P:65 SP:FB PPU:207,318
F374  EA        NOP                             A:6E X:02 Y:EE P:65 SP:FB PPU:207,324
F375  EA        NOP                             A:6E X:02 Y:EE P:65 SP:FB PPU:207,330
F376  20 46 FB  JSR $FB46                       A:6E X:02 Y:EE P:65 SP:FB PPU:207,336
FB46  50 2D     BVC $FB75                       A:6E X:02 Y:EE P:65 SP:F9 PPU:208, 13
FB48  F0 2B     BEQ $FB75                       A:6E X:02 Y:EE P:65 SP:F9 PPU:208, 19
FB4A  30 29     BMI $FB75                       A:6E X:02 Y:EE P:65 SP:F9 PPU:208, 25
FB4C  90 27     BCC $FB75                       A:6E X:02 Y:EE P:65 SP:F9 PPU:208, 31
FB4E  C9 6E     CMP #$6E                        A:6E X:02 Y:EE P:65 SP:F9 PPU:208, 37
FB50  D0 23     BNE $FB75                       A:6E X:02 Y:EE P:67 SP:F9 PPU:208, 43
FB52  60        RTS                             A:6E X:02 Y:EE P:67 SP:F9 PPU:208, 49
F379  A5 47     LDA $47 = 1B                    A:6E X:02 Y:EE P:67 SP:FB PPU:208, 67
F37B  C9 1B     CMP #$1B                        A:1B X:02 Y:EE P:65 SP:FB PPU:208, 76
F37D  F0 02     BEQ $F381                       A:1B X:02 Y:EE P:67 SP:FB PPU:208, 82
F381  C8        INY                             A:1B X:02 Y:EE P:67 SP:FB PPU:208, 91
F382  A9 A5     LDA #$A5                        A:1B X:02 Y:EF P:E5 SP:FB PPU:208, 97
F384  8D 47 06  STA $0647 = 1B                  A:A5 X:02 Y:EF P:E5 SP:FB PPU:208,103
F387  20 1D FB  JSR $FB1D                       A:A5 X:02 Y:EF P:E5 SP:FB PPU:208,115
FB1D  24 01     BIT $01 = FF                    A:A5 X:02 Y:EF P:E5 SP:F9 PPU:208,133
FB1F  18        CLC                             A:A5 X:02 Y:EF P:E5 SP:F9 PPU:208,142
FB20  A9 B3     LDA #$B3                        A:A5 X:02 Y:EF P:E4 SP:F9 PPU:208,148
FB22  60        RTS                             A:B3 X:02 Y:EF P:E4 SP:F9 PPU:208,154
F38A  4F 47 06 *SRE $0647 = A5                  A:B3 X:02 Y:EF P:E4 SP:FB PPU:208,172
F38D  EA        NOP                             A:E1 X:02 Y:EF P:E5 SP:FB PPU:208,190
F38E  EA        NOP                             A:E1 X:02 Y:EF P:E5 SP:FB PPU:208,196
F38F  EA        NOP                             A:E1 X:02 Y:EF P:E5 SP:FB PPU:208,202
F390  EA        NOP                             A:E1 X:02 Y:EF P:E5 SP:FB PPU:208,208
F391  20 23 FB  JSR $FB23                       A:E1 X:02 Y:EF P:E5 SP:FB PPU:208,214
FB23  50 50     BVC $FB75                       A:E1 X:02 Y:EF P:E5 SP:F9 PPU:208,232
FB25  90 4E     BCC $FB75                       A:E1 X:02 Y:EF P:E5 SP:F9 PPU:208,238
FB27  10 4C     BPL $FB75                       A:E1 X:02 Y:EF P:E5 SP:F9 PPU:208,244
FB29  C9 E1     CMP #$E1                        A:E1 X:02 Y:EF P:E5 SP:F9 PPU:208,250
FB2B  D0 48     BNE $FB75                       A:E1 X:02 Y:EF P:67 SP:F9 PPU:208,256
FB2D  60        RTS                             A:E1 X:02 Y:EF P:67 SP:F9 PPU:208,262
F394  AD 47 06  LDA $0647 = 52                  A:E1 X:02 Y:EF P:67 SP:FB PPU:208,280
F397  C9 52     CMP #$52                        A:52 X:02 Y:EF P:65 SP:FB PPU:208,292
F399  F0 02     BEQ $F39D                       A:52 X:02 Y:EF P:67 SP:FB PPU:208,298
F39D  C8        INY                             A:52 X:02 Y:EF P:67 SP:FB PPU:208,307
F39E  A9 29     LDA #$29                        A:52 X:02 Y:F0 P:E5 SP:FB PPU:208,313
F3A0  8D 47 06  STA $0647 = 52                  A:29 X:02 Y:F0 P:65 SP:FB PPU:208,319
F3A3  20 2E FB  JSR $FB2E                       A:29 X:02 Y:F0 P:65 SP:FB PPU:208,331
FB2E  B8        CLV                             A:29 X:02 Y:F0 P:65 SP:F9 PPU:209,  8
FB2F  18        CLC                             A:29 X:02 Y:F0 P:25 SP:F9 PPU:209, 14
FB30  A9 42     LDA #$42                        A:29 X:02 Y:F0 P:24 SP:F9 PPU:209, 20
FB32  60        RTS                             A:42 X:02 Y:F0 P:24 SP:F9 PPU:209, 26
F3A6  4F 47 06 *SRE $0647 = 29                  A:42 X:02 Y:F0 P:24 SP:FB PPU:209, 44
F3A9  EA        NOP                             A:56 X:02 Y:F0 P:25 SP:FB PPU:209, 62
F3AA  EA        NOP                             A:56 X:02 Y:F0 P:25 SP:FB PPU:209, 68
F3AB  EA        NOP                             A:56 X:02 Y:F0 P:25 SP:FB PPU:209, 74
F3AC  EA        NOP                             A:56 X:02 Y:F0 P:25 SP:FB PPU:209, 80
F3AD  20 33 FB  JSR $FB33                       A:56 X:02 Y:F0 P:25 SP:FB PPU:209, 86
FB33  70 40     BVS $FB75                       A:56 X:02 Y:F0 P:25 SP:F9 PPU:209,104
FB35  F0 3E     BEQ $FB75                       A:56 X:02 Y:F0 P:25 SP:F9 PPU:209,110
FB37  30 3C     BMI $FB75                       A:56 X:02 Y:F0 P:25 SP:F9 PPU:209,116
FB39  90 3A     BCC $FB75                       A:56 X:02 Y:F0 P:25 SP:F9 PPU:209,122
FB3B  C9 56     CMP #$56                        A:56 X:02 Y:F0 P:25 SP:F9 PPU:209,128
FB3D  D0 36     BNE $FB75                       A:56 X:02 Y:F0 P:27 SP:F9 PPU:209,134
FB3F  60        RTS                             A:56 X:02 Y:F0 P:27 SP:F9 PPU:209,140
F3B0  AD 47 06  LDA $0647 = 14                  A:56 X:02 Y:F0 P:27 SP:FB PPU:209,158
F3B3  C9 14     CMP #$14                        A:14 X:02 Y:F0 P:25 SP:FB PPU:209,170
F3B5  F0 02     BEQ $F3B9                       A:14 X:02 Y:F0 P:27 SP:FB PPU:209,176
F3B9  C8        INY                             A:14 X:02 Y:F0 P:27 SP:FB PPU:209,185
F3BA  A9 37     LDA #$37                        A:14 X:02 Y:F1 P:A5 SP:FB PPU:209,191
F3BC  8D 47 06  STA $0647 = 14                  A:37 X:02 Y:F1 P:25 SP:FB PPU:209,197
F3BF  20 40 FB  JSR $FB40                       A:37 X:02 Y:F1 P:25 SP:FB PPU:209,209
FB40  24 01     BIT $01 = FF                    A:37 X:02 Y:F1 P:25 SP:F9 PPU:209,227
FB42  38        SEC                             A:37 X:02 Y:F1 P:E5 SP:F9 PPU:209,236
FB43  A9 75     LDA #$75                        A:37 X:02 Y:F1 P:E5 SP:F9 PPU:209,242
FB45  60        RTS                             A:75 X:02 Y:F1 P:65 SP:F9 PPU:209,248
F3C2  4F 47 06 *SRE $0647 = 37                  A:75 X:02 Y:F1 P:65 SP:FB PPU:209,266
F3C5  EA        NOP                             A:6E X:02 Y:F1 P:65 SP:FB PPU:209,284
F3C6  EA        NOP                             A:6E X:02 Y:F1 P:65 SP:FB PPU:209,290
F3C7  EA        NOP                             A:6E X:02 Y:F1 P:65 SP:FB PPU:209,296
F3C8  EA        NOP                             A:6E X:02 Y:F1 P:65 SP:FB PPU:209,302
F3C9  20 46 FB  JSR $FB46                       A:6E X:02 Y:F1 P:65 SP:FB PPU:209,308
FB46  50 2D     BVC $FB75                       A:6E X:02 Y:F1 P:65 SP:F9 PPU:209,326
FB48  F0 2B     BEQ $FB75                       A:6E X:02 Y:F1 P:65 SP:F9 PPU:209,332
FB4A  30 29     BMI $FB75                       A:6E X:02 Y:F1 P:65 SP:F9 PPU:209,338
FB4C  90 27     BCC $FB75                       A:6E X:02 Y:F1 P:65 SP:F9 PPU:210,  3
FB4E  C9 6E     CMP #$6E                        A:6E X:02 Y:F1 P:65 SP:F9 PPU:210,  9
FB50  D0 23     BNE $FB75                       A:6E X:02 Y:F1 P:67 SP:F9 PPU:210, 15
FB52  60        RTS                             A:6E X:02 Y:F1 P:67 SP:F9 PPU:210, 21
F3CC  AD 47 06  LDA $0647 = 1B                  A:6E X:02 Y:F1 P:67 SP:FB PPU:210, 39
F3CF  C9 1B     CMP #$1B                        A:1B X:02 Y:F1 P:65 SP:FB PPU:210, 51
F3D1  F0 02     BEQ $F3D5                       A:1B X:02 Y:F1 P:67 SP:FB PPU:210, 57
F3D5  A9 A5     LDA #$A5                        A:1B X:02 Y:F1 P:67 SP:FB PPU:210, 66
F3D7  8D 47 06  STA $0647 = 1B                  A:A5 X:02 Y:F1 P:E5 SP:FB PPU:210, 72
F3DA  A9 48     LDA #$48                        A:A5 X:02 Y:F1 P:E5 SP:FB PPU:210, 84
F3DC  85 45     STA $45 = 48                    A:48 X:02 Y:F1 P:65 SP:FB PPU:210, 90
F3DE  A9 05     LDA #$05                        A:48 X:02 Y:F1 P:65 SP:FB PPU:210, 99
F3E0  85 46     STA $46 = 05                    A:05 X:02 Y:F1 P:65 SP:FB PPU:210,105
F3E2  A0 FF     LDY #$FF                        A:05 X:02 Y:F1 P:65 SP:FB PPU:210,114
F3E4  20 1D FB  JSR $FB1D                       A:05 X:02 Y:FF P:E5 SP:FB PPU:210,120
FB1D  24 01     BIT $01 = FF                    A:05 X:02 Y:FF P:E5 SP:F9 PPU:210,138
FB1F  18        CLC                             A:05 X:02 Y:FF P:E5 SP:F9 PPU:210,147
FB20  A9 B3     LDA #$B3                        A:05 X:02 Y:FF P:E4 SP:F9 PPU:210,153
FB22  60        RTS                             A:B3 X:02 Y:FF P:E4 SP:F9 PPU:210,159
F3E7  53 45    *SRE ($45),Y = 0548 @ 0647 = A5  A:B3 X:02 Y:FF P:E4 SP:FB PPU:210,177
F3E9  EA        NOP                             A:E1 X:02 Y:FF P:E5 SP:FB PPU:210,201
F3EA  EA        NOP                             A:E1 X:02 Y:FF P:E5 SP:FB PPU:210,207
F3EB  08        PHP                             A:E1 X:02 Y:FF P:E5 SP:FB PPU:210,213
F3EC  48        PHA                             A:E1 X:02 Y:FF P:E5 SP:FA PPU:210,222
F3ED  A0 F2     LDY #$F2                        A:E1 X:02 Y:FF P:E5 SP:F9 PPU:210,231
F3EF  68        PLA                             A:E1 X:02 Y:F2 P:E5 SP:F9 PPU:210,237
F3F0  28        PLP                             A:E1 X:02 Y:F2 P:E5 SP:FA PPU:210,249
F3F1  20 23 FB  JSR $FB23                       A:E1 X:02 Y:F2 P:E5 SP:FB PPU:210,261
FB23  50 50     BVC $FB75                       A:E1 X:02 Y:F2 P:E5 SP:F9 PPU:210,279
FB25  90 4E     BCC $FB75                       A:E1 X:02 Y:F2 P:E5 SP:F9 PPU:210,285
FB27  10 4C     BPL $FB75                       A:E1 X:02 Y:F2 P:E5 SP:F9 PPU:210,291
FB29  C9 E1     CMP #$E1                        A:E1 X:02 Y:F2 P:E5 SP:F9 PPU:210,297
FB2B  D0 48     BNE $FB75                       A:E1 X:02 Y:F2 P:67 SP:F9 PPU:210,303
FB2D  60        RTS                             A:E1 X:02 Y:F2 P:67 SP:F9 PPU:210,309
F3F4  AD 47 06  LDA $0647 = 52                  A:E1 X:02 Y:F2 P:67 SP:FB PPU:210,327
F3F7  C9 52     CMP #$52                        A:52 X:02 Y:F2 P:65 SP:FB PPU:210,339
F3F9  F0 02     BEQ $F3FD                       A:52 X:02 Y:F2 P:67 SP:FB PPU:211,  4
F3FD  A0 FF     LDY #$FF                        A:52 X:02 Y:F2 P:67 SP:FB PPU:211, 13
F3FF  A9 29     LDA #$29                        A:52 X:02 Y:FF P:E5 SP:FB PPU:211, 19
F401  8D 47 06  STA $0647 = 52                  A:29 X:02 Y:FF P:65 SP:FB PPU:211, 25
F404  20 2E FB  JSR $FB2E                       A:29 X:02 Y:FF P:65 SP:FB PPU:211, 37
FB2E  B8        CLV                             A:29 X:02 Y:FF P:65 SP:F9 PPU:211, 55
FB2F  18        CLC                             A:29 X:02 Y:FF P:25 SP:F9 PPU:211, 61
FB30  A9 42     LDA #$42                        A:29 X:02 Y:FF P:24 SP:F9 PPU:211, 67
FB32  60        RTS                             A:42 X:02 Y:FF P:24 SP:F9 PPU:211, 73
F407  53 45    *SRE ($45),Y = 0548 @ 0647 = 29  A:42 X:02 Y:FF P:24 SP:FB PPU:211, 91
F409  EA        NOP                             A:56 X:02 Y:FF P:25 SP:FB PPU:211,115
F40A  EA        NOP                             A:56 X:02 Y:FF P:25 SP:FB PPU:211,121
F40B  08        PHP                             A:56 X:02 Y:FF P:25 SP:FB PPU:211,127
F40C  48        PHA                             A:56 X:02 Y:FF P:25 SP:FA PPU:211,136
F40D  A0 F3     LDY #$F3                        A:56 X:02 Y:FF P:25 SP:F9 PPU:211,145
F40F  68        PLA                             A:56 X:02 Y:F3 P:A5 SP:F9 PPU:211,151
F410  28        PLP                             A:56 X:02 Y:F3 P:25 SP:FA PPU:211,163
F411  20 33 FB  JSR $FB33                       A:56 X:02 Y:F3 P:25 SP:FB PPU:211,175
FB33  70 40     BVS $FB75                       A:56 X:02 Y:F3 P:25 SP:F9 PPU:211,193
FB35  F0 3E     BEQ $FB75                       A:56 X:02 Y:F3 P:25 SP:F9 PPU:211,199
FB37  30 3C     BMI $FB75                       A:56 X:02 Y:F3 P:25 SP:F9 PPU:211,205
FB39  90 3A     BCC $FB75                       A:56 X:02 Y:F3 P:25 SP:F9 PPU:211,211
FB3B  C9 56     CMP #$56                        A:56 X:02 Y:F3 P:25 SP:F9 PPU:211,217
FB3D  D0 36     BNE $FB75                       A:56 X:02 Y:F3 P:27 SP:F9 PPU:211,223
FB3F  60        RTS                             A:56 X:02 Y:F3 P:27 SP:F9 PPU:211,229
F414  AD 47 06  LDA $0647 = 14                  A:56 X:02 Y:F3 P:27 SP:FB PPU:211,247
F417  C9 14     CMP #$14                        A:14 X:02 Y:F3 P:25 SP:FB PPU:211,259
F419  F0 02     BEQ $F41D                       A:14 X:02 Y:F3 P:27 SP:FB PPU:211,265
F41D  A0 FF     LDY #$FF                        A:14 X:02 Y:F3 P:27 SP:FB PPU:211,274
F41F  A9 37     LDA #$37                        A:14 X:02 Y:FF P:A5 SP:FB PPU:211,280
F421  8D 47 06  STA $0647 = 14                  A:37 X:02 Y:FF P:25 SP:FB PPU:211,286
F424  20 40 FB  JSR $FB40                       A:37 X:02 Y:FF P:25 SP:FB PPU:211,298
FB40  24 01     BIT $01 = FF                    A:37 X:02 Y:FF P:25 SP:F9 PPU:211,316
FB42  38        SEC                             A:37 X:02 Y:FF P:E5 SP:F9 PPU:211,325
FB43  A9 75     LDA #$75                        A:37 X:02 Y:FF P:E5 SP:F9 PPU:211,331
FB45  60        RTS                             A:75 X:02 Y:FF P:65 SP:F9 PPU:211,337
F427  53 45    *SRE ($45),Y = 0548 @ 0647 = 37  A:75 X:02 Y:FF P:65 SP:FB PPU:212, 14
F429  EA        NOP                             A:6E X:02 Y:FF P:65 SP:FB PPU:212, 38
F42A  EA        NOP                             A:6E X:02 Y:FF P:65 SP:FB PPU:212, 44
F42B  08        PHP                             A:6E X:02 Y:FF P:65 SP:FB PPU:212, 50
F42C  48        PHA                             A:6E X:02 Y:FF P:65 SP:FA PPU:212, 59
F42D  A0 F4     LDY #$F4                        A:6E X:02 Y:FF P:65 SP:F9 PPU:212, 68
F42F  68        PLA                             A:6E X:02 Y:F4 P:E5 SP:F9 PPU:212, 74
F430  28        PLP                             A:6E X:02 Y:F4 P:65 SP:FA PPU:212, 86
F431  20 46 FB  JSR $FB46                       A:6E X:02 Y:F4 P:65 SP:FB PPU:212, 98
FB46  50 2D     BVC $FB75                       A:6E X:02 Y:F4 P:65 SP:F9 PPU:212,116
FB48  F0 2B     BEQ $FB75                       A:6E X:02 Y:F4 P:65 SP:F9 PPU:212,122
FB4A  30 29     BMI $FB75                       A:6E X:02 Y:F4 P:65 SP:F9 PPU:212,128
FB4C  90 27     BCC $FB75                       A:6E X:02 Y:F4 P:65 SP:F9 PPU:212,134
FB4E  C9 6E     CMP #$6E                        A:6E X:02 Y:F4 P:65 SP:F9 PPU:212,140
FB50  D0 23     BNE $FB75                       A:6E X:02 Y:F4 P:67 SP:F9 PPU:212,146
FB52  60        RTS                             A:6E X:02 Y:F4 P:67 SP:F9 PPU:212,152
F434  AD 47 06  LDA $0647 = 1B                  A:6E X:02 Y:F4 P:67 SP:FB PPU:212,170
F437  C9 1B     CMP #$1B                        A:1B X:02 Y:F4 P:65 SP:FB PPU:212,182
F439  F0 02     BEQ $F43D                       A:1B X:02 Y:F4 P:67 SP:FB PPU:212,188
F43D  A0 F5     LDY #$F5                        A:1B X:02 Y:F4 P:67 SP:FB PPU:212,197
F43F  A2 FF     LDX #$FF                        A:1B X:02 Y:F5 P:E5 SP:FB PPU:212,203
F441  A9 A5     LDA #$A5                        A:1B X:FF Y:F5 P:E5 SP:FB PPU:212,209
F443  85 47     STA $47 = 1B                    A:A5 X:FF Y:F5 P:E5 SP:FB PPU:212,215
F445  20 1D FB  JSR $FB1D                       A:A5 X:FF Y:F5 P:E5 SP:FB PPU:212,224
FB1D  24 01     BIT $01 = FF                    A:A5 X:FF Y:F5 P:E5 SP:F9 PPU:212,242
FB1F  18        CLC                             A:A5 X:FF Y:F5 P:E5 SP:F9 PPU:212,251
FB20  A9 B3     LDA #$B3                        A:A5 X:FF Y:F5 P:E4 SP:F9 PPU:212,257
FB22  60        RTS                             A:B3 X:FF Y:F5 P:E4 SP:F9 PPU:212,263
F448  57 48    *SRE $48,X @ 47 = A5             A:B3 X:FF Y:F5 P:E4 SP:FB PPU:212,281
F44A  EA        NOP                             A:E1 X:FF Y:F5 P:E5 SP:FB PPU:212,299
F44B  EA        NOP                             A:E1 X:FF Y:F5 P:E5 SP:FB PPU:212,305
F44C  EA        NOP                             A:E1 X:FF Y:F5 P:E5 SP:FB PPU:212,311
F44D  EA        NOP                             A:E1 X:FF Y:F5 P:E5 SP:FB PPU:212,317
F44E  20 23 FB  JSR $FB23                       A:E1 X:FF Y:F5 P:E5 SP:FB PPU:212,323
FB23  50 50     BVC $FB75                       A:E1 X:FF Y:F5 P:E5 SP:F9 PPU:213,  0
FB25  90 4E     BCC $FB75                       A:E1 X:FF Y:F5 P:E5 SP:F9 PPU:213,  6
FB27  10 4C     BPL $FB75                       A:E1 X:FF Y:F5 P:E5 SP:F9 PPU:213, 12
FB29  C9 E1     CMP #$E1                        A:E1 X:FF Y:F5 P:E5 SP:F9 PPU:213, 18
FB2B  D0 48     BNE $FB75                       A:E1 X:FF Y:F5 P:67 SP:F9 PPU:213, 24
FB2D  60        RTS                             A:E1 X:FF Y:F5 P:67 SP:F9 PPU:213, 30
F451  A5 47     LDA $47 = 52                    A:E1 X:FF Y:F5 P:67 SP:FB PPU:213, 48
F453  C9 52     CMP #$52                        A:52 X:FF Y:F5 P:65 SP:FB PPU:213, 57
F455  F0 02     BEQ $F459                       A:52 X:FF Y:F5 P:67 SP:FB PPU:213, 63
F459  C8        INY                             A:52 X:FF Y:F5 P:67 SP:FB PPU:213, 72
F45A  A9 29     LDA #$29                        A:52 X:FF Y:F6 P:E5 SP:FB PPU:213, 78
F45C  85 47     STA $47 = 52                    A:29 X:FF Y:F6 P:65 SP:FB PPU:213, 84
F45E  20 2E FB  JSR $FB2E                       A:29 X:FF Y:F6 P:65 SP:FB PPU:213, 93
FB2E  B8        CLV                             A:29 X:FF Y:F6 P:65 SP:F9 PPU:213,111
FB2F  18        CLC                             A:29 X:FF Y:F6 P:25 SP:F9 PPU:213,117
FB30  A9 42     LDA #$42                        A:29 X:FF Y:F6 P:24 SP:F9 PPU:213,123
FB32  60        RTS                             A:42 X:FF Y:F6 P:24 SP:F9 PPU:213,129
F461  57 48    *SRE $48,X @ 47 = 29             A:42 X:FF Y:F6 P:24 SP:FB PPU:213,147
F463  EA        NOP                             A:56 X:FF Y:F6 P:25 SP:FB PPU:213,165
F464  EA        NOP                             A:56 X:FF Y:F6 P:25 SP:FB PPU:213,171
F465  EA        NOP                             A:56 X:FF Y:F6 P:25 SP:FB PPU:213,177
F466  EA        NOP                             A:56 X:FF Y:F6 P:25 SP:FB PPU:213,183
F467  20 33 FB  JSR $FB33                       A:56 X:FF Y:F6 P:25 SP:FB PPU:213,189
FB33  70 40     BVS $FB75                       A:56 X:FF Y:F6 P:25 SP:F9 PPU:213,207
FB35  F0 3E     BEQ $FB75                       A:56 X:FF Y:F6 P:25 SP:F9 PPU:213,213
FB37  30 3C     BMI $FB75                       A:56 X:FF Y:F6 P:25 SP:F9 PPU:213,219
FB39  90 3A     BCC $FB75                       A:56 X:FF Y:F6 P:25 SP:F9 PPU:213,225
FB3B  C9 56     CMP #$56                        A:56 X:FF Y:F6 P:25 SP:F9 PPU:213,231
FB3D  D0 36     BNE $FB75                       A:56 X:FF Y:F6 P:27 SP:F9 PPU:213,237
FB3F  60        RTS                             A:56 X:FF Y:F6 P:27 SP:F9 PPU:213,243
F46A  A5 47     LDA $47 = 14                    A:56 X:FF Y:F6 P:27 SP:FB PPU:213,261
F46C  C9 14     CMP #$14                        A:14 X:FF Y:F6 P:25 SP:FB PPU:213,270
F46E  F0 02     BEQ $F472                       A:14 X:FF Y:F6 P:27 SP:FB PPU:213,276
F472  C8        INY                             A:14 X:FF Y:F6 P:27 SP:FB PPU:213,285
F473  A9 37     LDA #$37                        A:14 X:FF Y:F7 P:A5 SP:FB PPU:213,291
F475  85 47     STA $47 = 14                    A:37 X:FF Y:F7 P:25 SP:FB PPU:213,297
F477  20 40 FB  JSR $FB40                       A:37 X:FF Y:F7 P:25 SP:FB PPU:213,306
FB40  24 01     BIT $01 = FF                    A:37 X:FF Y:F7 P:25 SP:F9 PPU:213,324
FB42  38        SEC                             A:37 X:FF Y:F7 P:E5 SP:F9 PPU:213,333
FB43  A9 75     LDA #$75                        A:37 X:FF Y:F7 P:E5 SP:F9 PPU:213,339
FB45  60        RTS                             A:75 X:FF Y:F7 P:65 SP:F9 PPU:214,  4
F47A  57 48    *SRE $48,X @ 47 = 37             A:75 X:FF Y:F7 P:65 SP:FB PPU:214, 22
F47C  EA        NOP                             A:6E X:FF Y:F7 P:65 SP:FB PPU:214, 40
F47D  EA        NOP                             A:6E X:FF Y:F7 P:65 SP:FB PPU:214, 46
F47E  EA        NOP                             A:6E X:FF Y:F7 P:65 SP:FB PPU:214, 52
F47F  EA        NOP                             A:6E X:FF Y:F7 P:65 SP:FB PPU:214, 58
F480  20 46 FB  JSR $FB46                       A:6E X:FF Y:F7 P:65 SP:FB PPU:214, 64
FB46  50 2D     BVC $FB75                       A:6E X:FF Y:F7 P:65 SP:F9 PPU:214, 82
FB48  F0 2B     BEQ $FB75                       A:6E X:FF Y:F7 P:65 SP:F9 PPU:214, 88
FB4A  30 29     BMI $FB75                       A:6E X:FF Y:F7 P:65 SP:F9 PPU:214, 94
FB4C  90 27     BCC $FB75                       A:6E X:FF Y:F7 P:65 SP:F9 PPU:214,100
FB4E  C9 6E     CMP #$6E                        A:6E X:FF Y:F7 P:65 SP:F9 PPU:214,106
FB50  D0 23     BNE $FB75                       A:6E X:FF Y:F7 P:67 SP:F9 PPU:214,112
FB52  60        RTS                             A:6E X:FF Y:F7 P:67 SP:F9 PPU:214,118
F483  A5 47     LDA $47 = 1B                    A:6E X:FF Y:F7 P:67 SP:FB PPU:214,136
F485  C9 1B     CMP #$1B                        A:1B X:FF Y:F7 P:65 SP:FB PPU:214,145
F487  F0 02     BEQ $F48B                       A:1B X:FF Y:F7 P:67 SP:FB PPU:214,151
F48B  A9 A5     LDA #$A5                        A:1B X:FF Y:F7 P:67 SP:FB PPU:214,160
F48D  8D 47 06  STA $0647 = 1B                  A:A5 X:FF Y:F7 P:E5 SP:FB PPU:214,166
F490  A0 FF     LDY #$FF                        A:A5 X:FF Y:F7 P:E5 SP:FB PPU:214,178
F492  20 1D FB  JSR $FB1D                       A:A5 X:FF Y:FF P:E5 SP:FB PPU:214,184
FB1D  24 01     BIT $01 = FF                    A:A5 X:FF Y:FF P:E5 SP:F9 PPU:214,202
FB1F  18        CLC                             A:A5 X:FF Y:FF P:E5 SP:F9 PPU:214,211
FB20  A9 B3     LDA #$B3                        A:A5 X:FF Y:FF P:E4 SP:F9 PPU:214,217
FB22  60        RTS                             A:B3 X:FF Y:FF P:E4 SP:F9 PPU:214,223
F495  5B 48 05 *SRE $0548,Y @ 0647 = A5         A:B3 X:FF Y:FF P:E4 SP:FB PPU:214,241
F498  EA        NOP                             A:E1 X:FF Y:FF P:E5 SP:FB PPU:214,262
F499  EA        NOP                             A:E1 X:FF Y:FF P:E5 SP:FB PPU:214,268
F49A  08        PHP                             A:E1 X:FF Y:FF P:E5 SP:FB PPU:214,274
F49B  48        PHA                             A:E1 X:FF Y:FF P:E5 SP:FA PPU:214,283
F49C  A0 F8     LDY #$F8                        A:E1 X:FF Y:FF P:E5 SP:F9 PPU:214,292
F49E  68        PLA                             A:E1 X:FF Y:F8 P:E5 SP:F9 PPU:214,298
F49F  28        PLP                             A:E1 X:FF Y:F8 P:E5 SP:FA PPU:214,310
F4A0  20 23 FB  JSR $FB23                       A:E1 X:FF Y:F8 P:E5 SP:FB PPU:214,322
FB23  50 50     BVC $FB75                       A:E1 X:FF Y:F8 P:E5 SP:F9 PPU:214,340
FB25  90 4E     BCC $FB75                       A:E1 X:FF Y:F8 P:E5 SP:F9 PPU:215,  5
FB27  10 4C     BPL $FB75                       A:E1 X:FF Y:F8 P:E5 SP:F9 PPU:215, 11
FB29  C9 E1     CMP #$E1                        A:E1 X:FF Y:F8 P:E5 SP:F9 PPU:215, 17
FB2B  D0 48     BNE $FB75                       A:E1 X:FF Y:F8 P:67 SP:F9 PPU:215, 23
FB2D  60        RTS                             A:E1 X:FF Y:F8 P:67 SP:F9 PPU:215, 29
F4A3  AD 47 06  LDA $0647 = 52                  A:E1 X:FF Y:F8 P:67 SP:FB PPU:215, 47
F4A6  C9 52     CMP #$52                        A:52 X:FF Y:F8 P:65 SP:FB PPU:215, 59
F4A8  F0 02     BEQ $F4AC                       A:52 X:FF Y:F8 P:67 SP:FB PPU:215, 65
F4AC  A0 FF     LDY #$FF                        A:52 X:FF Y:F8 P:67 SP:FB PPU:215, 74
F4AE  A9 29     LDA #$29                        A:52 X:FF Y:FF P:E5 SP:FB PPU:215, 80
F4B0  8D 47 06  STA $0647 = 52                  A:29 X:FF Y:FF P:65 SP:FB PPU:215, 86
F4B3  20 2E FB  JSR $FB2E                       A:29 X:FF Y:FF P:65 SP:FB PPU:215, 98
FB2E  B8        CLV                             A:29 X:FF Y:FF P:65 SP:F9 PPU:215,116
FB2F  18        CLC                             A:29 X:FF Y:FF P:25 SP:F9 PPU:215,122
FB30  A9 42     LDA #$42                        A:29 X:FF Y:FF P:24 SP:F9 PPU:215,128
FB32  60        RTS                             A:42 X:FF Y:FF P:24 SP:F9 PPU:215,134
F4B6  5B 48 05 *SRE $0548,Y @ 0647 = 29         A:42 X:FF Y:FF P:24 SP:FB PPU:215,152
F4B9  EA        NOP                             A:56 X:FF Y:FF P:25 SP:FB PPU:215,173
F4BA  EA        NOP                             A:56 X:FF Y:FF P:25 SP:FB PPU:215,179
F4BB  08        PHP                             A:56 X:FF Y:FF P:25 SP:FB PPU:215,185
F4BC  48        PHA                             A:56 X:FF Y:FF P:25 SP:FA PPU:215,194
F4BD  A0 F9     LDY #$F9                        A:56 X:FF Y:FF P:25 SP:F9 PPU:215,203
F4BF  68        PLA                             A:56 X:FF Y:F9 P:A5 SP:F9 PPU:215,209
F4C0  28        PLP                             A:56 X:FF Y:F9 P:25 SP:FA PPU:215,221
F4C1  20 33 FB  JSR $FB33                       A:56 X:FF Y:F9 P:25 SP:FB PPU:215,233
FB33  70 40     BVS $FB75                       A:56 X:FF Y:F9 P:25 SP:F9 PPU:215,251
FB35  F0 3E     BEQ $FB75                       A:56 X:FF Y:F9 P:25 SP:F9 PPU:215,257
FB37  30 3C     BMI $FB75                       A:56 X:FF Y:F9 P:25 SP:F9 PPU:215,263
FB39  90 3A     BCC $FB75                       A:56 X:FF Y:F9 P:25 SP:F9 PPU:215,269
FB3B  C9 56     CMP #$56                        A:56 X:FF Y:F9 P:25 SP:F9 PPU:215,275
FB3D  D0 36     BNE $FB75                       A:56 X:FF Y:F9 P:27 SP:F9 PPU:215,281
FB3F  60        RTS                             A:56 X:FF Y:F9 P:27 SP:F9 PPU:215,287
F4C4  AD 47 06  LDA $0647 = 14                  A:56 X:FF Y:F9 P:27 SP:FB PPU:215,305
F4C7  C9 14     CMP #$14                        A:14 X:FF Y:F9 P:25 SP:FB PPU:215,317
F4C9  F0 02     BEQ $F4CD                       A:14 X:FF Y:F9 P:27 SP:FB PPU:215,323
F4CD  A0 FF     LDY #$FF                        A:14 X:FF Y:F9 P:27 SP:FB PPU:215,332
F4CF  A9 37     LDA #$37                        A:14 X:FF Y:FF P:A5 SP:FB PPU:215,338
F4D1  8D 47 06  STA $0647 = 14                  A:37 X:FF Y:FF P:25 SP:FB PPU:216,  3
F4D4  20 40 FB  JSR $FB40                       A:37 X:FF Y:FF P:25 SP:FB PPU:216, 15
FB40  24 01     BIT $01 = FF                    A:37 X:FF Y:FF P:25 SP:F9 PPU:216, 33
FB42  38        SEC                             A:37 X:FF Y:FF P:E5 SP:F9 PPU:216, 42
FB43  A9 75     LDA #$75                        A:37 X:FF Y:FF P:E5 SP:F9 PPU:216, 48
FB45  60        RTS                             A:75 X:FF Y:FF P:65 SP:F9 PPU:216, 54
F4D7  5B 48 05 *SRE $0548,Y @ 0647 = 37         A:75 X:FF Y:FF P:65 SP:FB PPU:216, 72
F4DA  EA        NOP                             A:6E X:FF Y:FF P:65 SP:FB PPU:216, 93
F4DB  EA        NOP                             A:6E X:FF Y:FF P:65 SP:FB PPU:216, 99
F4DC  08        PHP                             A:6E X:FF Y:FF P:65 SP:FB PPU:216,105
F4DD  48        PHA                             A:6E X:FF Y:FF P:65 SP:FA PPU:216,114
F4DE  A0 FA     LDY #$FA                        A:6E X:FF Y:FF P:65 SP:F9 PPU:216,123
F4E0  68        PLA                             A:6E X:FF Y:FA P:E5 SP:F9 PPU:216,129
F4E1  28        PLP                             A:6E X:FF Y:FA P:65 SP:FA PPU:216,141
F4E2  20 46 FB  JSR $FB46                       A:6E X:FF Y:FA P:65 SP:FB PPU:216,153
FB46  50 2D     BVC $FB75                       A:6E X:FF Y:FA P:65 SP:F9 PPU:216,171
FB48  F0 2B     BEQ $FB75                       A:6E X:FF Y:FA P:65 SP:F9 PPU:216,177
FB4A  30 29     BMI $FB75                       A:6E X:FF Y:FA P:65 SP:F9 PPU:216,183
FB4C  90 27     BCC $FB75                       A:6E X:FF Y:FA P:65 SP:F9 PPU:216,189
FB4E  C9 6E     CMP #$6E                        A:6E X:FF Y:FA P:65 SP:F9 PPU:216,195
FB50  D0 23     BNE $FB75                       A:6E X:FF Y:FA P:67 SP:F9 PPU:216,201
FB52  60        RTS                             A:6E X:FF Y:FA P:67 SP:F9 PPU:216,207
F4E5  AD 47 06  LDA $0647 = 1B                  A:6E X:FF Y:FA P:67 SP:FB PPU:216,225
F4E8  C9 1B     CMP #$1B                        A:1B X:FF Y:FA P:65 SP:FB PPU:216,237
F4EA  F0 02     BEQ $F4EE                       A:1B X:FF Y:FA P:67 SP:FB PPU:216,243
F4EE  A0 FB     LDY #$FB                        A:1B X:FF Y:FA P:67 SP:FB PPU:216,252
F4F0  A2 FF     LDX #$FF                        A:1B X:FF Y:FB P:E5 SP:FB PPU:216,258
F4F2  A9 A5     LDA #$A5                        A:1B X:FF Y:FB P:E5 SP:FB PPU:216,264
F4F4  8D 47 06  STA $0647 = 1B                  A:A5 X:FF Y:FB P:E5 SP:FB PPU:216,270
F4F7  20 1D FB  JSR $FB1D                       A:A5 X:FF Y:FB P:E5 SP:FB PPU:216,282
FB1D  24 01     BIT $01 = FF                    A:A5 X:FF Y:FB P:E5 SP:F9 PPU:216,300
FB1F  18        CLC                             A:A5 X:FF Y:FB P:E5 SP:F9 PPU:216,309
FB20  A9 B3     LDA #$B3                        A:A5 X:FF Y:FB P:E4 SP:F9 PPU:216,315
FB22  60        RTS                             A:B3 X:FF Y:FB P:E4 SP:F9 PPU:216,321
F4FA  5F 48 05 *SRE $0548,X @ 0647 = A5         A:B3 X:FF Y:FB P:E4 SP:FB PPU:216,339
F4FD  EA        NOP                             A:E1 X:FF Y:FB P:E5 SP:FB PPU:217, 19
F4FE  EA        NOP                             A:E1 X:FF Y:FB P:E5 SP:FB PPU:217, 25
F4FF  EA        NOP                             A:E1 X:FF Y:FB P:E5 SP:FB PPU:217, 31
F500  EA        NOP                             A:E1 X:FF Y:FB P:E5 SP:FB PPU:217, 37
F501  20 23 FB  JSR $FB23                       A:E1 X:FF Y:FB P:E5 SP:FB PPU:217, 43
FB23  50 50     BVC $FB75                       A:E1 X:FF Y:FB P:E5 SP:F9 PPU:217, 61
FB25  90 4E     BCC $FB75                       A:E1 X:FF Y:FB P:E5 SP:F9 PPU:217, 67
FB27  10 4C     BPL $FB75                       A:E1 X:FF Y:FB P:E5 SP:F9 PPU:217, 73
FB29  C9 E1     CMP #$E1                        A:E1 X:FF Y:FB P:E5 SP:F9 PPU:217, 79
FB2B  D0 48     BNE $FB75                       A:E1 X:FF Y:FB P:67 SP:F9 PPU:217, 85
FB2D  60        RTS                             A:E1 X:FF Y:FB P:67 SP:F9 PPU:217, 91
F504  AD 47 06  LDA $0647 = 52                  A:E1 X:FF Y:FB P:67 SP:FB PPU:217,109
F507  C9 52     CMP #$52                        A:52 X:FF Y:FB P:65 SP:FB PPU:217,121
F509  F0 02     BEQ $F50D                       A:52 X:FF Y:FB P:67 SP:FB PPU:217,127
F50D  C8        INY                             A:52 X:FF Y:FB P:67 SP:FB PPU:217,136
F50E  A9 29     LDA #$29                        A:52 X:FF Y:FC P:E5 SP:FB PPU:217,142
F510  8D 47 06  STA $0647 = 52                  A:29 X:FF Y:FC P:65 SP:FB PPU:217,148
F513  20 2E FB  JSR $FB2E                       A:29 X:FF Y:FC P:65 SP:FB PPU:217,160
FB2E  B8        CLV                             A:29 X:FF Y:FC P:65 SP:F9 PPU:217,178
FB2F  18        CLC                             A:29 X:FF Y:FC P:25 SP:F9 PPU:217,184
FB30  A9 42     LDA #$42                        A:29 X:FF Y:FC P:24 SP:F9 PPU:217,190
FB32  60        RTS                             A:42 X:FF Y:FC P:24 SP:F9 PPU:217,196
F516  5F 48 05 *SRE $0548,X @ 0647 = 29         A:42 X:FF Y:FC P:24 SP:FB PPU:217,214
F519  EA        NOP                             A:56 X:FF Y:FC P:25 SP:FB PPU:217,235
F51A  EA        NOP                             A:56 X:FF Y:FC P:25 SP:FB PPU:217,241
F51B  EA        NOP                             A:56 X:FF Y:FC P:25 SP:FB PPU:217,247
F51C  EA        NOP                             A:56 X:FF Y:FC P:25 SP:FB PPU:217,253
F51D  20 33 FB  JSR $FB33                       A:56 X:FF Y:FC P:25 SP:FB PPU:217,259
FB33  70 40     BVS $FB75                       A:56 X:FF Y:FC P:25 SP:F9 PPU:217,277
FB35  F0 3E     BEQ $FB75                       A:56 X:FF Y:FC P:25 SP:F9 PPU:217,283
FB37  30 3C     BMI $FB75                       A:56 X:FF Y:FC P:25 SP:F9 PPU:217,289
FB39  90 3A     BCC $FB75                       A:56 X:FF Y:FC P:25 SP:F9 PPU:217,295
FB3B  C9 56     CMP #$56                        A:56 X:FF Y:FC P:25 SP:F9 PPU:217,301
FB3D  D0 36     BNE $FB75                       A:56 X:FF Y:FC P:27 SP:F9 PPU:217,307
FB3F  60        RTS                             A:56 X:FF Y:FC P:27 SP:F9 PPU:217,313
F520  AD 47 06  LDA $0647 = 14                  A:56 X:FF Y:FC P:27 SP:FB PPU:217,331
F523  C9 14     CMP #$14                        A:14 X:FF Y:FC P:25 SP:FB PPU:218,  2
F525  F0 02     BEQ $F529                       A:14 X:FF Y:FC P:27 SP:FB PPU:218,  8
F529  C8        INY                             A:14 X:FF Y:FC P:27 SP:FB PPU:218, 17
F52A  A9 37     LDA #$37                        A:14 X:FF Y:FD P:A5 SP:FB PPU:218, 23
F52C  8D 47 06  STA $0647 = 14                  A:37 X:FF Y:FD P:25 SP:FB PPU:218, 29
F52F  20 40 FB  JSR $FB40                       A:37 X:FF Y:FD P:25 SP:FB PPU:218, 41
FB40  24 01     BIT $01 = FF                    A:37 X:FF Y:FD P:25 SP:F9 PPU:218, 59
FB42  38        SEC                             A:37 X:FF Y:FD P:E5 SP:F9 PPU:218, 68
FB43  A9 75     LDA #$75                        A:37 X:FF Y:FD P:E5 SP:F9 PPU:218, 74
FB45  60        RTS                             A:75 X:FF Y:FD P:65 SP:F9 PPU:218, 80
F532  5F 48 05 *SRE $0548,X @ 0647 = 37         A:75 X:FF Y:FD P:65 SP:FB PPU:218, 98
F535  EA        NOP                             A:6E X:FF Y:FD P:65 SP:FB PPU:218,119
F536  EA        NOP                             A:6E X:FF Y:FD P:65 SP:FB PPU:218,125
F537  EA        NOP                             A:6E X:FF Y:FD P:65 SP:FB PPU:218,131
F538  EA        NOP                             A:6E X:FF Y:FD P:65 SP:FB PPU:218,137
F539  20 46 FB  JSR $FB46                       A:6E X:FF Y:FD P:65 SP:FB PPU:218,143
FB46  50 2D     BVC $FB75                       A:6E X:FF Y:FD P:65 SP:F9 PPU:218,161
FB48  F0 2B     BEQ $FB75                       A:6E X:FF Y:FD P:65 SP:F9 PPU:218,167
FB4A  30 29     BMI $FB75                       A:6E X:FF Y:FD P:65 SP:F9 PPU:218,173
FB4C  90 27     BCC $FB75                       A:6E X:FF Y:FD P:65 SP:F9 PPU:218,179
FB4E  C9 6E     CMP #$6E                        A:6E X:FF Y:FD P:65 SP:F9 PPU:218,185
FB50  D0 23     BNE $FB75                       A:6E X:FF Y:FD P:67 SP:F9 PPU:218,191
FB52  60        RTS                             A:6E X:FF Y:FD P:67 SP:F9 PPU:218,197
F53C  AD 47 06  LDA $0647 = 1B                  A:6E X:FF Y:FD P:67 SP:FB PPU:218,215
F53F  C9 1B     CMP #$1B                        A:1B X:FF Y:FD P:65 SP:FB PPU:218,227
F541  F0 02     BEQ $F545                       A:1B X:FF Y:FD P:67 SP:FB PPU:218,233
F545  60        RTS                             A:1B X:FF Y:FD P:67 SP:FB PPU:218,242
C64A  A5 00     LDA $00 = 00                    A:1B X:FF Y:FD P:67 SP:FD PPU:218,260
C64C  85 11     STA $11 = 00                    A:00 X:FF Y:FD P:67 SP:FD PPU:218,269
C64E  A9 00     LDA #$00                        A:00 X:FF Y:FD P:67 SP:FD PPU:218,278
C650  85 00     STA $00 = 00                    A:00 X:FF Y:FD P:67 SP:FD PPU:218,284
C652  20 46 F5  JSR $F546                       A:00 X:FF Y:FD P:67 SP:FD PPU:218,293
F546  A9 FF     LDA #$FF                        A:00 X:FF Y:FD P:67 SP:FB PPU:218,311
F548  85 01     STA $01 = FF                    A:FF X:FF Y:FD P:E5 SP:FB PPU:218,317
F54A  A0 01     LDY #$01                        A:FF X:FF Y:FD P:E5 SP:FB PPU:218,326
F54C  A2 02     LDX #$02                        A:FF X:FF Y:01 P:65 SP:FB PPU:218,332
F54E  A9 47     LDA #$47                        A:FF X:02 Y:01 P:65 SP:FB PPU:218,338
F550  85 47     STA $47 = 1B                    A:47 X:02 Y:01 P:65 SP:FB PPU:219,  3
F552  A9 06     LDA #$06                        A:47 X:02 Y:01 P:65 SP:FB PPU:219, 12
F554  85 48     STA $48 = 06                    A:06 X:02 Y:01 P:65 SP:FB PPU:219, 18
F556  A9 A5     LDA #$A5                        A:06 X:02 Y:01 P:65 SP:FB PPU:219, 27
F558  8D 47 06  STA $0647 = 1B                  A:A5 X:02 Y:01 P:E5 SP:FB PPU:219, 33
F55B  20 E9 FA  JSR $FAE9                       A:A5 X:02 Y:01 P:E5 SP:FB PPU:219, 45
FAE9  24 01     BIT $01 = FF                    A:A5 X:02 Y:01 P:E5 SP:F9 PPU:219, 63
FAEB  18        CLC                             A:A5 X:02 Y:01 P:E5 SP:F9 PPU:219, 72
FAEC  A9 B2     LDA #$B2                        A:A5 X:02 Y:01 P:E4 SP:F9 PPU:219, 78
FAEE  60        RTS                             A:B2 X:02 Y:01 P:E4 SP:F9 PPU:219, 84
F55E  63 45    *RRA ($45,X) @ 47 = 0647 = A5    A:B2 X:02 Y:01 P:E4 SP:FB PPU:219,102
F560  EA        NOP                             A:05 X:02 Y:01 P:25 SP:FB PPU:219,126
F561  EA        NOP                             A:05 X:02 Y:01 P:25 SP:FB PPU:219,132
F562  EA        NOP                             A:05 X:02 Y:01 P:25 SP:FB PPU:219,138
F563  EA        NOP                             A:05 X:02 Y:01 P:25 SP:FB PPU:219,144
F564  20 EF FA  JSR $FAEF                       A:05 X:02 Y:01 P:25 SP:FB PPU:219,150
FAEF  70 2A     BVS $FB1B                       A:05 X:02 Y:01 P:25 SP:F9 PPU:219,168
FAF1  90 28     BCC $FB1B                       A:05 X:02 Y:01 P:25 SP:F9 PPU:219,174
FAF3  30 26     BMI $FB1B                       A:05 X:02 Y:01 P:25 SP:F9 PPU:219,180
FAF5  C9 05     CMP #$05                        A:05 X:02 Y:01 P:25 SP:F9 PPU:219,186
FAF7  D0 22     BNE $FB1B                       A:05 X:02 Y:01 P:27 SP:F9 PPU:219,192
FAF9  60        RTS                             A:05 X:02 Y:01 P:27 SP:F9 PPU:219,198
F567  AD 47 06  LDA $0647 = 52                  A:05 X:02 Y:01 P:27 SP:FB PPU:219,216
F56A  C9 52     CMP #$52                        A:52 X:02 Y:01 P:25 SP:FB PPU:219,228
F56C  F0 02     BEQ $F570                       A:52 X:02 Y:01 P:27 SP:FB PPU:219,234
F570  C8        INY                             A:52 X:02 Y:01 P:27 SP:FB PPU:219,243
F571  A9 29     LDA #$29                        A:52 X:02 Y:02 P:25 SP:FB PPU:219,249
F573  8D 47 06  STA $0647 = 52                  A:29 X:02 Y:02 P:25 SP:FB PPU:219,255
F576  20 FA FA  JSR $FAFA                       A:29 X:02 Y:02 P:25 SP:FB PPU:219,267
FAFA  B8        CLV                             A:29 X:02 Y:02 P:25 SP:F9 PPU:219,285
FAFB  18        CLC                             A:29 X:02 Y:02 P:25 SP:F9 PPU:219,291
FAFC  A9 42     LDA #$42                        A:29 X:02 Y:02 P:24 SP:F9 PPU:219,297
FAFE  60        RTS                             A:42 X:02 Y:02 P:24 SP:F9 PPU:219,303
F579  63 45    *RRA ($45,X) @ 47 = 0647 = 29    A:42 X:02 Y:02 P:24 SP:FB PPU:219,321
F57B  EA        NOP                             A:57 X:02 Y:02 P:24 SP:FB PPU:220,  4
F57C  EA        NOP                             A:57 X:02 Y:02 P:24 SP:FB PPU:220, 10
F57D  EA        NOP                             A:57 X:02 Y:02 P:24 SP:FB PPU:220, 16
F57E  EA        NOP                             A:57 X:02 Y:02 P:24 SP:FB PPU:220, 22
F57F  20 FF FA  JSR $FAFF                       A:57 X:02 Y:02 P:24 SP:FB PPU:220, 28
FAFF  70 1A     BVS $FB1B                       A:57 X:02 Y:02 P:24 SP:F9 PPU:220, 46
FB01  30 18     BMI $FB1B                       A:57 X:02 Y:02 P:24 SP:F9 PPU:220, 52
FB03  B0 16     BCS $FB1B                       A:57 X:02 Y:02 P:24 SP:F9 PPU:220, 58
FB05  C9 57     CMP #$57                        A:57 X:02 Y:02 P:24 SP:F9 PPU:220, 64
FB07  D0 12     BNE $FB1B                       A:57 X:02 Y:02 P:27 SP:F9 PPU:220, 70
FB09  60        RTS                             A:57 X:02 Y:02 P:27 SP:F9 PPU:220, 76
F582  AD 47 06  LDA $0647 = 14                  A:57 X:02 Y:02 P:27 SP:FB PPU:220, 94
F585  C9 14     CMP #$14                        A:14 X:02 Y:02 P:25 SP:FB PPU:220,106
F587  F0 02     BEQ $F58B                       A:14 X:02 Y:02 P:27 SP:FB PPU:220,112
F58B  C8        INY                             A:14 X:02 Y:02 P:27 SP:FB PPU:220,121
F58C  A9 37     LDA #$37                        A:14 X:02 Y:03 P:25 SP:FB PPU:220,127
F58E  8D 47 06  STA $0647 = 14                  A:37 X:02 Y:03 P:25 SP:FB PPU:220,133
F591  20 0A FB  JSR $FB0A                       A:37 X:02 Y:03 P:25 SP:FB PPU:220,145
FB0A  24 01     BIT $01 = FF                    A:37 X:02 Y:03 P:25 SP:F9 PPU:220,163
FB0C  38        SEC                             A:37 X:02 Y:03 P:E5 SP:F9 PPU:220,172
FB0D  A9 75     LDA #$75                        A:37 X:02 Y:03 P:E5 SP:F9 PPU:220,178
FB0F  60        RTS                             A:75 X:02 Y:03 P:65 SP:F9 PPU:220,184
F594  63 45    *RRA ($45,X) @ 47 = 0647 = 37    A:75 X:02 Y:03 P:65 SP:FB PPU:220,202
F596  EA        NOP                             A:11 X:02 Y:03 P:25 SP:FB PPU:220,226
F597  EA        NOP                             A:11 X:02 Y:03 P:25 SP:FB PPU:220,232
F598  EA        NOP                             A:11 X:02 Y:03 P:25 SP:FB PPU:220,238
F599  EA        NOP                             A:11 X:02 Y:03 P:25 SP:FB PPU:220,244
F59A  20 10 FB  JSR $FB10                       A:11 X:02 Y:03 P:25 SP:FB PPU:220,250
FB10  70 09     BVS $FB1B                       A:11 X:02 Y:03 P:25 SP:F9 PPU:220,268
FB12  30 07     BMI $FB1B                       A:11 X:02 Y:03 P:25 SP:F9 PPU:220,274
FB14  90 05     BCC $FB1B                       A:11 X:02 Y:03 P:25 SP:F9 PPU:220,280
FB16  C9 11     CMP #$11                        A:11 X:02 Y:03 P:25 SP:F9 PPU:220,286
FB18  D0 01     BNE $FB1B                       A:11 X:02 Y:03 P:27 SP:F9 PPU:220,292
FB1A  60        RTS                             A:11 X:02 Y:03 P:27 SP:F9 PPU:220,298
F59D  AD 47 06  LDA $0647 = 9B                  A:11 X:02 Y:03 P:27 SP:FB PPU:220,316
F5A0  C9 9B     CMP #$9B                        A:9B X:02 Y:03 P:A5 SP:FB PPU:220,328
F5A2  F0 02     BEQ $F5A6                       A:9B X:02 Y:03 P:27 SP:FB PPU:220,334
F5A6  C8        INY                             A:9B X:02 Y:03 P:27 SP:FB PPU:221,  2
F5A7  A9 A5     LDA #$A5                        A:9B X:02 Y:04 P:25 SP:FB PPU:221,  8
F5A9  85 47     STA $47 = 47                    A:A5 X:02 Y:04 P:A5 SP:FB PPU:221, 14
F5AB  20 E9 FA  JSR $FAE9                       A:A5 X:02 Y:04 P:A5 SP:FB PPU:221, 23
FAE9  24 01     BIT $01 = FF                    A:A5 X:02 Y:04 P:A5 SP:F9 PPU:221, 41
FAEB  18        CLC                             A:A5 X:02 Y:04 P:E5 SP:F9 PPU:221, 50
FAEC  A9 B2     LDA #$B2                        A:A5 X:02 Y:04 P:E4 SP:F9 PPU:221, 56
FAEE  60        RTS                             A:B2 X:02 Y:04 P:E4 SP:F9 PPU:221, 62
F5AE  67 47    *RRA $47 = A5                    A:B2 X:02 Y:04 P:E4 SP:FB PPU:221, 80
F5B0  EA        NOP                             A:05 X:02 Y:04 P:25 SP:FB PPU:221, 95
F5B1  EA        NOP                             A:05 X:02 Y:04 P:25 SP:FB PPU:221,101
F5B2  EA        NOP                             A:05 X:02 Y:04 P:25 SP:FB PPU:221,107
F5B3  EA        NOP                             A:05 X:02 Y:04 P:25 SP:FB PPU:221,113
F5B4  20 EF FA  JSR $FAEF                       A:05 X:02 Y:04 P:25 SP:FB PPU:221,119
FAEF  70 2A     BVS $FB1B                       A:05 X:02 Y:04 P:25 SP:F9 PPU:221,137
FAF1  90 28     BCC $FB1B                       A:05 X:02 Y:04 P:25 SP:F9 PPU:221,143
FAF3  30 26     BMI $FB1B                       A:05 X:02 Y:04 P:25 SP:F9 PPU:221,149
FAF5  C9 05     CMP #$05                        A:05 X:02 Y:04 P:25 SP:F9 PPU:221,155
FAF7  D0 22     BNE $FB1B                       A:05 X:02 Y:04 P:27 SP:F9 PPU:221,161
FAF9  60        RTS                             A:05 X:02 Y:04 P:27 SP:F9 PPU:221,167
F5B7  A5 47     LDA $47 = 52                    A:05 X:02 Y:04 P:27 SP:FB PPU:221,185
F5B9  C9 52     CMP #$52                        A:52 X:02 Y:04 P:25 SP:FB PPU:221,194
F5BB  F0 02     BEQ $F5BF                       A:52 X:02 Y:04 P:27 SP:FB PPU:221,200
F5BF  C8        INY                             A:52 X:02 Y:04 P:27 SP:FB PPU:221,209
F5C0  A9 29     LDA #$29                        A:52 X:02 Y:05 P:25 SP:FB PPU:221,215
F5C2  85 47     STA $47 = 52                    A:29 X:02 Y:05 P:25 SP:FB PPU:221,221
F5C4  20 FA FA  JSR $FAFA                       A:29 X:02 Y:05 P:25 SP:FB PPU:221,230
FAFA  B8        CLV                             A:29 X:02 Y:05 P:25 SP:F9 PPU:221,248
FAFB  18        CLC                             A:29 X:02 Y:05 P:25 SP:F9 PPU:221,254
FAFC  A9 42     LDA #$42                        A:29 X:02 Y:05 P:24 SP:F9 PPU:221,260
FAFE  60        RTS                             A:42 X:02 Y:05 P:24 SP:F9 PPU:221,266
F5C7  67 47    *RRA $47 = 29                    A:42 X:02 Y:05 P:24 SP:FB PPU:221,284
F5C9  EA        NOP                             A:57 X:02 Y:05 P:24 SP:FB PPU:221,299
F5CA  EA        NOP                             A:57 X:02 Y:05 P:24 SP:FB PPU:221,305
F5CB  EA        NOP                             A:57 X:02 Y:05 P:24 SP:FB PPU:221,311
F5CC  EA        NOP                             A:57 X:02 Y:05 P:24 SP:FB PPU:221,317
F5CD  20 FF FA  JSR $FAFF                       A:57 X:02 Y:05 P:24 SP:FB PPU:221,323
FAFF  70 1A     BVS $FB1B                       A:57 X:02 Y:05 P:24 SP:F9 PPU:222,  0
FB01  30 18     BMI $FB1B                       A:57 X:02 Y:05 P:24 SP:F9 PPU:222,  6
FB03  B0 16     BCS $FB1B                       A:57 X:02 Y:05 P:24 SP:F9 PPU:222, 12
FB05  C9 57     CMP #$57                        A:57 X:02 Y:05 P:24 SP:F9 PPU:222, 18
FB07  D0 12     BNE $FB1B                       A:57 X:02 Y:05 P:27 SP:F9 PPU:222, 24
FB09  60        RTS                             A:57 X:02 Y:05 P:27 SP:F9 PPU:222, 30
F5D0  A5 47     LDA $47 = 14                    A:57 X:02 Y:05 P:27 SP:FB PPU:222, 48
F5D2  C9 14     CMP #$14                        A:14 X:02 Y:05 P:25 SP:FB PPU:222, 57
F5D4  F0 02     BEQ $F5D8                       A:14 X:02 Y:05 P:27 SP:FB PPU:222, 63
F5D8  C8        INY                             A:14 X:02 Y:05 P:27 SP:FB PPU:222, 72
F5D9  A9 37     LDA #$37                        A:14 X:02 Y:06 P:25 SP:FB PPU:222, 78
F5DB  85 47     STA $47 = 14                    A:37 X:02 Y:06 P:25 SP:FB PPU:222, 84
F5DD  20 0A FB  JSR $FB0A                       A:37 X:02 Y:06 P:25 SP:FB PPU:222, 93
FB0A  24 01     BIT $01 = FF                    A:37 X:02 Y:06 P:25 SP:F9 PPU:222,111
FB0C  38        SEC                             A:37 X:02 Y:06 P:E5 SP:F9 PPU:222,120
FB0D  A9 75     LDA #$75                        A:37 X:02 Y:06 P:E5 SP:F9 PPU:222,126
FB0F  60        RTS                             A:75 X:02 Y:06 P:65 SP:F9 PPU:222,132
F5E0  67 47    *RRA $47 = 37                    A:75 X:02 Y:06 P:65 SP:FB PPU:222,150
F5E2  EA        NOP                             A:11 X:02 Y:06 P:25 SP:FB PPU:222,165
F5E3  EA        NOP                             A:11 X:02 Y:06 P:25 SP:FB PPU:222,171
F5E4  EA        NOP                             A:11 X:02 Y:06 P:25 SP:FB PPU:222,177
F5E5  EA        NOP                             A:11 X:02 Y:06 P:25 SP:FB PPU:222,183
F5E6  20 10 FB  JSR $FB10                       A:11 X:02 Y:06 P:25 SP:FB PPU:222,189
FB10  70 09     BVS $FB1B                       A:11 X:02 Y:06 P:25 SP:F9 PPU:222,207
FB12  30 07     BMI $FB1B                       A:11 X:02 Y:06 P:25 SP:F9 PPU:222,213
FB14  90 05     BCC $FB1B                       A:11 X:02 Y:06 P:25 SP:F9 PPU:222,219
FB16  C9 11     CMP #$11                        A:11 X:02 Y:06 P:25 SP:F9 PPU:222,225
FB18  D0 01     BNE $FB1B                       A:11 X:02 Y:06 P:27 SP:F9 PPU:222,231
FB1A  60        RTS                             A:11 X:02 Y:06 P:27 SP:F9 PPU:222,237
F5E9  A5 47     LDA $47 = 9B                    A:11 X:02 Y:06 P:27 SP:FB PPU:222,255
F5EB  C9 9B     CMP #$9B                        A:9B X:02 Y:06 P:A5 SP:FB PPU:222,264
F5ED  F0 02     BEQ $F5F1                       A:9B X:02 Y:06 P:27 SP:FB PPU:222,270
F5F1  C8        INY                             A:9B X:02 Y:06 P:27 SP:FB PPU:222,279
F5F2  A9 A5     LDA #$A5                        A:9B X:02 Y:07 P:25 SP:FB PPU:222,285
F5F4  8D 47 06  STA $0647 = 9B                  A:A5 X:02 Y:07 P:A5 SP:FB PPU:222,291
F5F7  20 E9 FA  JSR $FAE9                       A:A5 X:02 Y:07 P:A5 SP:FB PPU:222,303
FAE9  24 01     BIT $01 = FF                    A:A5 X:02 Y:07 P:A5 SP:F9 PPU:222,321
FAEB  18        CLC                             A:A5 X:02 Y:07 P:E5 SP:F9 PPU:222,330
FAEC  A9 B2     LDA #$B2                        A:A5 X:02 Y:07 P:E4 SP:F9 PPU:222,336
FAEE  60        RTS                             A:B2 X:02 Y:07 P:E4 SP:F9 PPU:223,  1
F5FA  6F 47 06 *RRA $0647 = A5                  A:B2 X:02 Y:07 P:E4 SP:FB PPU:223, 19
F5FD  EA        NOP                             A:05 X:02 Y:07 P:25 SP:FB PPU:223, 37
F5FE  EA        NOP                             A:05 X:02 Y:07 P:25 SP:FB PPU:223, 43
F5FF  EA        NOP                             A:05 X:02 Y:07 P:25 SP:FB PPU:223, 49
F600  EA        NOP                             A:05 X:02 Y:07 P:25 SP:FB PPU:223, 55
F601  20 EF FA  JSR $FAEF                       A:05 X:02 Y:07 P:25 SP:FB PPU:223, 61
FAEF  70 2A     BVS $FB1B                       A:05 X:02 Y:07 P:25 SP:F9 PPU:223, 79
FAF1  90 28     BCC $FB1B                       A:05 X:02 Y:07 P:25 SP:F9 PPU:223, 85
FAF3  30 26     BMI $FB1B                       A:05 X:02 Y:07 P:25 SP:F9 PPU:223, 91
FAF5  C9 05     CMP #$05                        A:05 X:02 Y:07 P:25 SP:F9 PPU:223, 97
FAF7  D0 22     BNE $FB1B                       A:05 X:02 Y:07 P:27 SP:F9 PPU:223,103
FAF9  60        RTS                             A:05 X:02 Y:07 P:27 SP:F9 PPU:223,109
F604  AD 47 06  LDA $0647 = 52                  A:05 X:02 Y:07 P:27 SP:FB PPU:223,127
F607  C9 52     CMP #$52                        A:52 X:02 Y:07 P:25 SP:FB PPU:223,139
F609  F0 02     BEQ $F60D                       A:52 X:02 Y:07 P:27 SP:FB PPU:223,145
F60D  C8        INY                             A:52 X:02 Y:07 P:27 SP:FB PPU:223,154
F60E  A9 29     LDA #$29                        A:52 X:02 Y:08 P:25 SP:FB PPU:223,160
F610  8D 47 06  STA $0647 = 52                  A:29 X:02 Y:08 P:25 SP:FB PPU:223,166
F613  20 FA FA  JSR $FAFA                       A:29 X:02 Y:08 P:25 SP:FB PPU:223,178
FAFA  B8        CLV                             A:29 X:02 Y:08 P:25 SP:F9 PPU:223,196
FAFB  18        CLC                             A:29 X:02 Y:08 P:25 SP:F9 PPU:223,202
FAFC  A9 42     LDA #$42                        A:29 X:02 Y:08 P:24 SP:F9 PPU:223,208
FAFE  60        RTS                             A:42 X:02 Y:08 P:24 SP:F9 PPU:223,214
F616  6F 47 06 *RRA $0647 = 29                  A:42 X:02 Y:08 P:24 SP:FB PPU:223,232
F619  EA        NOP                             A:57 X:02 Y:08 P:24 SP:FB PPU:223,250
F61A  EA        NOP                             A:57 X:02 Y:08 P:24 SP:FB PPU:223,256
F61B  EA        NOP                             A:57 X:02 Y:08 P:24 SP:FB PPU:223,262
F61C  EA        NOP                             A:57 X:02 Y:08 P:24 SP:FB PPU:223,268
F61D  20 FF FA  JSR $FAFF                       A:57 X:02 Y:08 P:24 SP:FB PPU:223,274
FAFF  70 1A     BVS $FB1B                       A:57 X:02 Y:08 P:24 SP:F9 PPU:223,292
FB01  30 18     BMI $FB1B                       A:57 X:02 Y:08 P:24 SP:F9 PPU:223,298
FB03  B0 16     BCS $FB1B                       A:57 X:02 Y:08 P:24 SP:F9 PPU:223,304
FB05  C9 57     CMP #$57                        A:57 X:02 Y:08 P:24 SP:F9 PPU:223,310
FB07  D0 12     BNE $FB1B                       A:57 X:02 Y:08 P:27 SP:F9 PPU:223,316
FB09  60        RTS                             A:57 X:02 Y:08 P:27 SP:F9 PPU:223,322
F620  AD 47 06  LDA $0647 = 14                  A:57 X:02 Y:08 P:27 SP:FB PPU:223,340
F623  C9 14     CMP #$14                        A:14 X:02 Y:08 P:25 SP:FB PPU:224, 11
F625  F0 02     BEQ $F629                       A:14 X:02 Y:08 P:27 SP:FB PPU:224, 17
F629  C8        INY                             A:14 X:02 Y:08 P:27 SP:FB PPU:224, 26
F62A  A9 37     LDA #$37                        A:14 X:02 Y:09 P:25 SP:FB PPU:224, 32
F62C  8D 47 06  STA $0647 = 14                  A:37 X:02 Y:09 P:25 SP:FB PPU:224, 38
F62F  20 0A FB  JSR $FB0A                       A:37 X:02 Y:09 P:25 SP:FB PPU:224, 50
FB0A  24 01     BIT $01 = FF                    A:37 X:02 Y:09 P:25 SP:F9 PPU:224, 68
FB0C  38        SEC                             A:37 X:02 Y:09 P:E5 SP:F9 PPU:224, 77
FB0D  A9 75     LDA #$75                        A:37 X:02 Y:09 P:E5 SP:F9 PPU:224, 83
FB0F  60        RTS                             A:75 X:02 Y:09 P:65 SP:F9 PPU:224, 89
F632  6F 47 06 *RRA $0647 = 37                  A:75 X:02 Y:09 P:65 SP:FB PPU:224,107
F635  EA        NOP                             A:11 X:02 Y:09 P:25 SP:FB PPU:224,125
F636  EA        NOP                             A:11 X:02 Y:09 P:25 SP:FB PPU:224,131
F637  EA        NOP                             A:11 X:02 Y:09 P:25 SP:FB PPU:224,137
F638  EA        NOP                             A:11 X:02 Y:09 P:25 SP:FB PPU:224,143
F639  20 10 FB  JSR $FB10                       A:11 X:02 Y:09 P:25 SP:FB PPU:224,149
FB10  70 09     BVS $FB1B                       A:11 X:02 Y:09 P:25 SP:F9 PPU:224,167
FB12  30 07     BMI $FB1B                       A:11 X:02 Y:09 P:25 SP:F9 PPU:224,173
FB14  90 05     BCC $FB1B                       A:11 X:02 Y:09 P:25 SP:F9 PPU:224,179
FB16  C9 11     CMP #$11                        A:11 X:02 Y:09 P:25 SP:F9 PPU:224,185
FB18  D0 01     BNE $FB1B                       A:11 X:02 Y:09 P:27 SP:F9 PPU:224,191
FB1A  60        RTS                             A:11 X:02 Y:09 P:27 SP:F9 PPU:224,197
F63C  AD 47 06  LDA $0647 = 9B                  A:11 X:02 Y:09 P:27 SP:FB PPU:224,215
F63F  C9 9B     CMP #$9B                        A:9B X:02 Y:09 P:A5 SP:FB PPU:224,227
F641  F0 02     BEQ $F645                       A:9B X:02 Y:09 P:27 SP:FB PPU:224,233
F645  A9 A5     LDA #$A5                        A:9B X:02 Y:09 P:27 SP:FB PPU:224,242
F647  8D 47 06  STA $0647 = 9B                  A:A5 X:02 Y:09 P:A5 SP:FB PPU:224,248
F64A  A9 48     LDA #$48                        A:A5 X:02 Y:09 P:A5 SP:FB PPU:224,260
F64C  85 45     STA $45 = 48                    A:48 X:02 Y:09 P:25 SP:FB PPU:224,266
F64E  A9 05     LDA #$05                        A:48 X:02 Y:09 P:25 SP:FB PPU:224,275
F650  85 46     STA $46 = 05                    A:05 X:02 Y:09 P:25 SP:FB PPU:224,281
F652  A0 FF     LDY #$FF                        A:05 X:02 Y:09 P:25 SP:FB PPU:224,290
F654  20 E9 FA  JSR $FAE9                       A:05 X:02 Y:FF P:A5 SP:FB PPU:224,296
FAE9  24 01     BIT $01 = FF                    A:05 X:02 Y:FF P:A5 SP:F9 PPU:224,314
FAEB  18        CLC                             A:05 X:02 Y:FF P:E5 SP:F9 PPU:224,323
FAEC  A9 B2     LDA #$B2                        A:05 X:02 Y:FF P:E4 SP:F9 PPU:224,329
FAEE  60        RTS                             A:B2 X:02 Y:FF P:E4 SP:F9 PPU:224,335
F657  73 45    *RRA ($45),Y = 0548 @ 0647 = A5  A:B2 X:02 Y:FF P:E4 SP:FB PPU:225, 12
F659  EA        NOP                             A:05 X:02 Y:FF P:25 SP:FB PPU:225, 36
F65A  EA        NOP                             A:05 X:02 Y:FF P:25 SP:FB PPU:225, 42
F65B  08        PHP                             A:05 X:02 Y:FF P:25 SP:FB PPU:225, 48
F65C  48        PHA                             A:05 X:02 Y:FF P:25 SP:FA PPU:225, 57
F65D  A0 0A     LDY #$0A                        A:05 X:02 Y:FF P:25 SP:F9 PPU:225, 66
F65F  68        PLA                             A:05 X:02 Y:0A P:25 SP:F9 PPU:225, 72
F660  28        PLP                             A:05 X:02 Y:0A P:25 SP:FA PPU:225, 84
F661  20 EF FA  JSR $FAEF                       A:05 X:02 Y:0A P:25 SP:FB PPU:225, 96
FAEF  70 2A     BVS $FB1B                       A:05 X:02 Y:0A P:25 SP:F9 PPU:225,114
FAF1  90 28     BCC $FB1B                       A:05 X:02 Y:0A P:25 SP:F9 PPU:225,120
FAF3  30 26     BMI $FB1B                       A:05 X:02 Y:0A P:25 SP:F9 PPU:225,126
FAF5  C9 05     CMP #$05                        A:05 X:02 Y:0A P:25 SP:F9 PPU:225,132
FAF7  D0 22     BNE $FB1B                       A:05 X:02 Y:0A P:27 SP:F9 PPU:225,138
FAF9  60        RTS                             A:05 X:02 Y:0A P:27 SP:F9 PPU:225,144
F664  AD 47 06  LDA $0647 = 52                  A:05 X:02 Y:0A P:27 SP:FB PPU:225,162
F667  C9 52     CMP #$52                        A:52 X:02 Y:0A P:25 SP:FB PPU:225,174
F669  F0 02     BEQ $F66D                       A:52 X:02 Y:0A P:27 SP:FB PPU:225,180
F66D  A0 FF     LDY #$FF                        A:52 X:02 Y:0A P:27 SP:FB PPU:225,189
F66F  A9 29     LDA #$29                        A:52 X:02 Y:FF P:A5 SP:FB PPU:225,195
F671  8D 47 06  STA $0647 = 52                  A:29 X:02 Y:FF P:25 SP:FB PPU:225,201
F674  20 FA FA  JSR $FAFA                       A:29 X:02 Y:FF P:25 SP:FB PPU:225,213
FAFA  B8        CLV                             A:29 X:02 Y:FF P:25 SP:F9 PPU:225,231
FAFB  18        CLC                             A:29 X:02 Y:FF P:25 SP:F9 PPU:225,237
FAFC  A9 42     LDA #$42                        A:29 X:02 Y:FF P:24 SP:F9 PPU:225,243
FAFE  60        RTS                             A:42 X:02 Y:FF P:24 SP:F9 PPU:225,249
F677  73 45    *RRA ($45),Y = 0548 @ 0647 = 29  A:42 X:02 Y:FF P:24 SP:FB PPU:225,267
F679  EA        NOP                             A:57 X:02 Y:FF P:24 SP:FB PPU:225,291
F67A  EA        NOP                             A:57 X:02 Y:FF P:24 SP:FB PPU:225,297
F67B  08        PHP                             A:57 X:02 Y:FF P:24 SP:FB PPU:225,303
F67C  48        PHA                             A:57 X:02 Y:FF P:24 SP:FA PPU:225,312
F67D  A0 0B     LDY #$0B                        A:57 X:02 Y:FF P:24 SP:F9 PPU:225,321
F67F  68        PLA                             A:57 X:02 Y:0B P:24 SP:F9 PPU:225,327
F680  28        PLP                             A:57 X:02 Y:0B P:24 SP:FA PPU:225,339
F681  20 FF FA  JSR $FAFF                       A:57 X:02 Y:0B P:24 SP:FB PPU:226, 10
FAFF  70 1A     BVS $FB1B                       A:57 X:02 Y:0B P:24 SP:F9 PPU:226, 28
FB01  30 18     BMI $FB1B                       A:57 X:02 Y:0B P:24 SP:F9 PPU:226, 34
FB03  B0 16     BCS $FB1B                       A:57 X:02 Y:0B P:24 SP:F9 PPU:226, 40
FB05  C9 57     CMP #$57                        A:57 X:02 Y:0B P:24 SP:F9 PPU:226, 46
FB07  D0 12     BNE $FB1B                       A:57 X:02 Y:0B P:27 SP:F9 PPU:226, 52
FB09  60        RTS                             A:57 X:02 Y:0B P:27 SP:F9 PPU:226, 58
F684  AD 47 06  LDA $0647 = 14                  A:57 X:02 Y:0B P:27 SP:FB PPU:226, 76
F687  C9 14     CMP #$14                        A:14 X:02 Y:0B P:25 SP:FB PPU:226, 88
F689  F0 02     BEQ $F68D                       A:14 X:02 Y:0B P:27 SP:FB PPU:226, 94
F68D  A0 FF     LDY #$FF                        A:14 X:02 Y:0B P:27 SP:FB PPU:226,103
F68F  A9 37     LDA #$37                        A:14 X:02 Y:FF P:A5 SP:FB PPU:226,109
F691  8D 47 06  STA $0647 = 14                  A:37 X:02 Y:FF P:25 SP:FB PPU:226,115
F694  20 0A FB  JSR $FB0A                       A:37 X:02 Y:FF P:25 SP:FB PPU:226,127
FB0A  24 01     BIT $01 = FF                    A:37 X:02 Y:FF P:25 SP:F9 PPU:226,145
FB0C  38        SEC                             A:37 X:02 Y:FF P:E5 SP:F9 PPU:226,154
FB0D  A9 75     LDA #$75                        A:37 X:02 Y:FF P:E5 SP:F9 PPU:226,160
FB0F  60        RTS                             A:75 X:02 Y:FF P:65 SP:F9 PPU:226,166
F697  73 45    *RRA ($45),Y = 0548 @ 0647 = 37  A:75 X:02 Y:FF P:65 SP:FB PPU:226,184
F699  EA        NOP                             A:11 X:02 Y:FF P:25 SP:FB PPU:226,208
F69A  EA        NOP                             A:11 X:02 Y:FF P:25 SP:FB PPU:226,214
F69B  08        PHP                             A:11 X:02 Y:FF P:25 SP:FB PPU:226,220
F69C  48        PHA                             A:11 X:02 Y:FF P:25 SP:FA PPU:226,229
F69D  A0 0C     LDY #$0C                        A:11 X:02 Y:FF P:25 SP:F9 PPU:226,238
F69F  68        PLA                             A:11 X:02 Y:0C P:25 SP:F9 PPU:226,244
F6A0  28        PLP                             A:11 X:02 Y:0C P:25 SP:FA PPU:226,256
F6A1  20 10 FB  JSR $FB10                       A:11 X:02 Y:0C P:25 SP:FB PPU:226,268
FB10  70 09     BVS $FB1B                       A:11 X:02 Y:0C P:25 SP:F9 PPU:226,286
FB12  30 07     BMI $FB1B                       A:11 X:02 Y:0C P:25 SP:F9 PPU:226,292
FB14  90 05     BCC $FB1B                       A:11 X:02 Y:0C P:25 SP:F9 PPU:226,298
FB16  C9 11     CMP #$11                        A:11 X:02 Y:0C P:25 SP:F9 PPU:226,304
FB18  D0 01     BNE $FB1B                       A:11 X:02 Y:0C P:27 SP:F9 PPU:226,310
FB1A  60        RTS                             A:11 X:02 Y:0C P:27 SP:F9 PPU:226,316
F6A4  AD 47 06  LDA $0647 = 9B                  A:11 X:02 Y:0C P:27 SP:FB PPU:226,334
F6A7  C9 9B     CMP #$9B                        A:9B X:02 Y:0C P:A5 SP:FB PPU:227,  5
F6A9  F0 02     BEQ $F6AD                       A:9B X:02 Y:0C P:27 SP:FB PPU:227, 11
F6AD  A0 0D     LDY #$0D                        A:9B X:02 Y:0C P:27 SP:FB PPU:227, 20
F6AF  A2 FF     LDX #$FF                        A:9B X:02 Y:0D P:25 SP:FB PPU:227, 26
F6B1  A9 A5     LDA #$A5                        A:9B X:FF Y:0D P:A5 SP:FB PPU:227, 32
F6B3  85 47     STA $47 = 9B                    A:A5 X:FF Y:0D P:A5 SP:FB PPU:227, 38
F6B5  20 E9 FA  JSR $FAE9                       A:A5 X:FF Y:0D P:A5 SP:FB PPU:227, 47
FAE9  24 01     BIT $01 = FF                    A:A5 X:FF Y:0D P:A5 SP:F9 PPU:227, 65
FAEB  18        CLC                             A:A5 X:FF Y:0D P:E5 SP:F9 PPU:227, 74
FAEC  A9 B2     LDA #$B2                        A:A5 X:FF Y:0D P:E4 SP:F9 PPU:227, 80
FAEE  60        RTS                             A:B2 X:FF Y:0D P:E4 SP:F9 PPU:227, 86
F6B8  77 48    *RRA $48,X @ 47 = A5             A:B2 X:FF Y:0D P:E4 SP:FB PPU:227,104
F6BA  EA        NOP                             A:05 X:FF Y:0D P:25 SP:FB PPU:227,122
F6BB  EA        NOP                             A:05 X:FF Y:0D P:25 SP:FB PPU:227,128
F6BC  EA        NOP                             A:05 X:FF Y:0D P:25 SP:FB PPU:227,134
F6BD  EA        NOP                             A:05 X:FF Y:0D P:25 SP:FB PPU:227,140
F6BE  20 EF FA  JSR $FAEF                       A:05 X:FF Y:0D P:25 SP:FB PPU:227,146
FAEF  70 2A     BVS $FB1B                       A:05 X:FF Y:0D P:25 SP:F9 PPU:227,164
FAF1  90 28     BCC $FB1B                       A:05 X:FF Y:0D P:25 SP:F9 PPU:227,170
FAF3  30 26     BMI $FB1B                       A:05 X:FF Y:0D P:25 SP:F9 PPU:227,176
FAF5  C9 05     CMP #$05                        A:05 X:FF Y:0D P:25 SP:F9 PPU:227,182
FAF7  D0 22     BNE $FB1B                       A:05 X:FF Y:0D P:27 SP:F9 PPU:227,188
FAF9  60        RTS                             A:05 X:FF Y:0D P:27 SP:F9 PPU:227,194
F6C1  A5 47     LDA $47 = 52                    A:05 X:FF Y:0D P:27 SP:FB PPU:227,212
F6C3  C9 52     CMP #$52                        A:52 X:FF Y:0D P:25 SP:FB PPU:227,221
F6C5  F0 02     BEQ $F6C9                       A:52 X:FF Y:0D P:27 SP:FB PPU:227,227
F6C9  C8        INY                             A:52 X:FF Y:0D P:27 SP:FB PPU:227,236
F6CA  A9 29     LDA #$29                        A:52 X:FF Y:0E P:25 SP:FB PPU:227,242
F6CC  85 47     STA $47 = 52                    A:29 X:FF Y:0E P:25 SP:FB PPU:227,248
F6CE  20 FA FA  JSR $FAFA                       A:29 X:FF Y:0E P:25 SP:FB PPU:227,257
FAFA  B8        CLV                             A:29 X:FF Y:0E P:25 SP:F9 PPU:227,275
FAFB  18        CLC                             A:29 X:FF Y:0E P:25 SP:F9 PPU:227,281
FAFC  A9 42     LDA #$42                        A:29 X:FF Y:0E P:24 SP:F9 PPU:227,287
FAFE  60        RTS                             A:42 X:FF Y:0E P:24 SP:F9 PPU:227,293
F6D1  77 48    *RRA $48,X @ 47 = 29             A:42 X:FF Y:0E P:24 SP:FB PPU:227,311
F6D3  EA        NOP                             A:57 X:FF Y:0E P:24 SP:FB PPU:227,329
F6D4  EA        NOP                             A:57 X:FF Y:0E P:24 SP:FB PPU:227,335
F6D5  EA        NOP                             A:57 X:FF Y:0E P:24 SP:FB PPU:228,  0
F6D6  EA        NOP                             A:57 X:FF Y:0E P:24 SP:FB PPU:228,  6
F6D7  20 FF FA  JSR $FAFF                       A:57 X:FF Y:0E P:24 SP:FB PPU:228, 12
FAFF  70 1A     BVS $FB1B                       A:57 X:FF Y:0E P:24 SP:F9 PPU:228, 30
FB01  30 18     BMI $FB1B                       A:57 X:FF Y:0E P:24 SP:F9 PPU:228, 36
FB03  B0 16     BCS $FB1B                       A:57 X:FF Y:0E P:24 SP:F9 PPU:228, 42
FB05  C9 57     CMP #$57                        A:57 X:FF Y:0E P:24 SP:F9 PPU:228, 48
FB07  D0 12     BNE $FB1B                       A:57 X:FF Y:0E P:27 SP:F9 PPU:228, 54
FB09  60        RTS                             A:57 X:FF Y:0E P:27 SP:F9 PPU:228, 60
F6DA  A5 47     LDA $47 = 14                    A:57 X:FF Y:0E P:27 SP:FB PPU:228, 78
F6DC  C9 14     CMP #$14                        A:14 X:FF Y:0E P:25 SP:FB PPU:228, 87
F6DE  F0 02     BEQ $F6E2                       A:14 X:FF Y:0E P:27 SP:FB PPU:228, 93
F6E2  C8        INY                             A:14 X:FF Y:0E P:27 SP:FB PPU:228,102
F6E3  A9 37     LDA #$37                        A:14 X:FF Y:0F P:25 SP:FB PPU:228,108
F6E5  85 47     STA $47 = 14                    A:37 X:FF Y:0F P:25 SP:FB PPU:228,114
F6E7  20 0A FB  JSR $FB0A                       A:37 X:FF Y:0F P:25 SP:FB PPU:228,123
FB0A  24 01     BIT $01 = FF                    A:37 X:FF Y:0F P:25 SP:F9 PPU:228,141
FB0C  38        SEC                             A:37 X:FF Y:0F P:E5 SP:F9 PPU:228,150
FB0D  A9 75     LDA #$75                        A:37 X:FF Y:0F P:E5 SP:F9 PPU:228,156
FB0F  60        RTS                             A:75 X:FF Y:0F P:65 SP:F9 PPU:228,162
F6EA  77 48    *RRA $48,X @ 47 = 37             A:75 X:FF Y:0F P:65 SP:FB PPU:228,180
F6EC  EA        NOP                             A:11 X:FF Y:0F P:25 SP:FB PPU:228,198
F6ED  EA        NOP                             A:11 X:FF Y:0F P:25 SP:FB PPU:228,204
F6EE  EA        NOP                             A:11 X:FF Y:0F P:25 SP:FB PPU:228,210
F6EF  EA        NOP                             A:11 X:FF Y:0F P:25 SP:FB PPU:228,216
F6F0  20 10 FB  JSR $FB10                       A:11 X:FF Y:0F P:25 SP:FB PPU:228,222
FB10  70 09     BVS $FB1B                       A:11 X:FF Y:0F P:25 SP:F9 PPU:228,240
FB12  30 07     BMI $FB1B                       A:11 X:FF Y:0F P:25 SP:F9 PPU:228,246
FB14  90 05     BCC $FB1B                       A:11 X:FF Y:0F P:25 SP:F9 PPU:228,252
FB16  C9 11     CMP #$11                        A:11 X:FF Y:0F P:25 SP:F9 PPU:228,258
FB18  D0 01     BNE $FB1B                       A:11 X:FF Y:0F P:27 SP:F9 PPU:228,264
FB1A  60        RTS                             A:11 X:FF Y:0F P:27 SP:F9 PPU:228,270
F6F3  A5 47     LDA $47 = 9B                    A:11 X:FF Y:0F P:27 SP:FB PPU:228,288
F6F5  C9 9B     CMP #$9B                        A:9B X:FF Y:0F P:A5 SP:FB PPU:228,297
F6F7  F0 02     BEQ $F6FB                       A:9B X:FF Y:0F P:27 SP:FB PPU:228,303
F6FB  A9 A5     LDA #$A5                        A:9B X:FF Y:0F P:27 SP:FB PPU:228,312
F6FD  8D 47 06  STA $0647 = 9B                  A:A5 X:FF Y:0F P:A5 SP:FB PPU:228,318
F700  A0 FF     LDY #$FF                        A:A5 X:FF Y:0F P:A5 SP:FB PPU:228,330
F702  20 E9 FA  JSR $FAE9                       A:A5 X:FF Y:FF P:A5 SP:FB PPU:228,336
FAE9  24 01     BIT $01 = FF                    A:A5 X:FF Y:FF P:A5 SP:F9 PPU:229, 13
FAEB  18        CLC                             A:A5 X:FF Y:FF P:E5 SP:F9 PPU:229, 22
FAEC  A9 B2     LDA #$B2                        A:A5 X:FF Y:FF P:E4 SP:F9 PPU:229, 28
FAEE  60        RTS                             A:B2 X:FF Y:FF P:E4 SP:F9 PPU:229, 34
F705  7B 48 05 *RRA $0548,Y @ 0647 = A5         A:B2 X:FF Y:FF P:E4 SP:FB PPU:229, 52
F708  EA        NOP                             A:05 X:FF Y:FF P:25 SP:FB PPU:229, 73
F709  EA        NOP                             A:05 X:FF Y:FF P:25 SP:FB PPU:229, 79
F70A  08        PHP                             A:05 X:FF Y:FF P:25 SP:FB PPU:229, 85
F70B  48        PHA                             A:05 X:FF Y:FF P:25 SP:FA PPU:229, 94
F70C  A0 10     LDY #$10                        A:05 X:FF Y:FF P:25 SP:F9 PPU:229,103
F70E  68        PLA                             A:05 X:FF Y:10 P:25 SP:F9 PPU:229,109
F70F  28        PLP                             A:05 X:FF Y:10 P:25 SP:FA PPU:229,121
F710  20 EF FA  JSR $FAEF                       A:05 X:FF Y:10 P:25 SP:FB PPU:229,133
FAEF  70 2A     BVS $FB1B                       A:05 X:FF Y:10 P:25 SP:F9 PPU:229,151
FAF1  90 28     BCC $FB1B                       A:05 X:FF Y:10 P:25 SP:F9 PPU:229,157
FAF3  30 26     BMI $FB1B                       A:05 X:FF Y:10 P:25 SP:F9 PPU:229,163
FAF5  C9 05     CMP #$05                        A:05 X:FF Y:10 P:25 SP:F9 PPU:229,169
FAF7  D0 22     BNE $FB1B                       A:05 X:FF Y:10 P:27 SP:F9 PPU:229,175
FAF9  60        RTS                             A:05 X:FF Y:10 P:27 SP:F9 PPU:229,181
F713  AD 47 06  LDA $0647 = 52                  A:05 X:FF Y:10 P:27 SP:FB PPU:229,199
F716  C9 52     CMP #$52                        A:52 X:FF Y:10 P:25 SP:FB PPU:229,211
F718  F0 02     BEQ $F71C                       A:52 X:FF Y:10 P:27 SP:FB PPU:229,217
F71C  A0 FF     LDY #$FF                        A:52 X:FF Y:10 P:27 SP:FB PPU:229,226
F71E  A9 29     LDA #$29                        A:52 X:FF Y:FF P:A5 SP:FB PPU:229,232
F720  8D 47 06  STA $0647 = 52                  A:29 X:FF Y:FF P:25 SP:FB PPU:229,238
F723  20 FA FA  JSR $FAFA                       A:29 X:FF Y:FF P:25 SP:FB PPU:229,250
FAFA  B8        CLV                             A:29 X:FF Y:FF P:25 SP:F9 PPU:229,268
FAFB  18        CLC                             A:29 X:FF Y:FF P:25 SP:F9 PPU:229,274
FAFC  A9 42     LDA #$42                        A:29 X:FF Y:FF P:24 SP:F9 PPU:229,280
FAFE  60        RTS                             A:42 X:FF Y:FF P:24 SP:F9 PPU:229,286
F726  7B 48 05 *RRA $0548,Y @ 0647 = 29         A:42 X:FF Y:FF P:24 SP:FB PPU:229,304
F729  EA        NOP                             A:57 X:FF Y:FF P:24 SP:FB PPU:229,325
F72A  EA        NOP                             A:57 X:FF Y:FF P:24 SP:FB PPU:229,331
F72B  08        PHP                             A:57 X:FF Y:FF P:24 SP:FB PPU:229,337
F72C  48        PHA                             A:57 X:FF Y:FF P:24 SP:FA PPU:230,  5
F72D  A0 11     LDY #$11                        A:57 X:FF Y:FF P:24 SP:F9 PPU:230, 14
F72F  68        PLA                             A:57 X:FF Y:11 P:24 SP:F9 PPU:230, 20
F730  28        PLP                             A:57 X:FF Y:11 P:24 SP:FA PPU:230, 32
F731  20 FF FA  JSR $FAFF                       A:57 X:FF Y:11 P:24 SP:FB PPU:230, 44
FAFF  70 1A     BVS $FB1B                       A:57 X:FF Y:11 P:24 SP:F9 PPU:230, 62
FB01  30 18     BMI $FB1B                       A:57 X:FF Y:11 P:24 SP:F9 PPU:230, 68
FB03  B0 16     BCS $FB1B                       A:57 X:FF Y:11 P:24 SP:F9 PPU:230, 74
FB05  C9 57     CMP #$57                        A:57 X:FF Y:11 P:24 SP:F9 PPU:230, 80
FB07  D0 12     BNE $FB1B                       A:57 X:FF Y:11 P:27 SP:F9 PPU:230, 86
FB09  60        RTS                             A:57 X:FF Y:11 P:27 SP:F9 PPU:230, 92
F734  AD 47 06  LDA $0647 = 14                  A:57 X:FF Y:11 P:27 SP:FB PPU:230,110
F737  C9 14     CMP #$14                        A:14 X:FF Y:11 P:25 SP:FB PPU:230,122
F739  F0 02     BEQ $F73D                       A:14 X:FF Y:11 P:27 SP:FB PPU:230,128
F73D  A0 FF     LDY #$FF                        A:14 X:FF Y:11 P:27 SP:FB PPU:230,137
F73F  A9 37     LDA #$37                        A:14 X:FF Y:FF P:A5 SP:FB PPU:230,143
F741  8D 47 06  STA $0647 = 14                  A:37 X:FF Y:FF P:25 SP:FB PPU:230,149
F744  20 0A FB  JSR $FB0A                       A:37 X:FF Y:FF P:25 SP:FB PPU:230,161
FB0A  24 01     BIT $01 = FF                    A:37 X:FF Y:FF P:25 SP:F9 PPU:230,179
FB0C  38        SEC                             A:37 X:FF Y:FF P:E5 SP:F9 PPU:230,188
FB0D  A9 75     LDA #$75                        A:37 X:FF Y:FF P:E5 SP:F9 PPU:230,194
FB0F  60        RTS                             A:75 X:FF Y:FF P:65 SP:F9 PPU:230,200
F747  7B 48 05 *RRA $0548,Y @ 0647 = 37         A:75 X:FF Y:FF P:65 SP:FB PPU:230,218
F74A  EA        NOP                             A:11 X:FF Y:FF P:25 SP:FB PPU:230,239
F74B  EA        NOP                             A:11 X:FF Y:FF P:25 SP:FB PPU:230,245
F74C  08        PHP                             A:11 X:FF Y:FF P:25 SP:FB PPU:230,251
F74D  48        PHA                             A:11 X:FF Y:FF P:25 SP:FA PPU:230,260
F74E  A0 12     LDY #$12                        A:11 X:FF Y:FF P:25 SP:F9 PPU:230,269
F750  68        PLA                             A:11 X:FF Y:12 P:25 SP:F9 PPU:230,275
F751  28        PLP                             A:11 X:FF Y:12 P:25 SP:FA PPU:230,287
F752  20 10 FB  JSR $FB10                       A:11 X:FF Y:12 P:25 SP:FB PPU:230,299
FB10  70 09     BVS $FB1B                       A:11 X:FF Y:12 P:25 SP:F9 PPU:230,317
FB12  30 07     BMI $FB1B                       A:11 X:FF Y:12 P:25 SP:F9 PPU:230,323
FB14  90 05     BCC $FB1B                       A:11 X:FF Y:12 P:25 SP:F9 PPU:230,329
FB16  C9 11     CMP #$11                        A:11 X:FF Y:12 P:25 SP:F9 PPU:230,335
FB18  D0 01     BNE $FB1B                       A:11 X:FF Y:12 P:27 SP:F9 PPU:231,  0
FB1A  60        RTS                             A:11 X:FF Y:12 P:27 SP:F9 PPU:231,  6
F755  AD 47 06  LDA $0647 = 9B                  A:11 X:FF Y:12 P:27 SP:FB PPU:231, 24
F758  C9 9B     CMP #$9B                        A:9B X:FF Y:12 P:A5 SP:FB PPU:231, 36
F75A  F0 02     BEQ $F75E                       A:9B X:FF Y:12 P:27 SP:FB PPU:231, 42
F75E  A0 13     LDY #$13                        A:9B X:FF Y:12 P:27 SP:FB PPU:231, 51
F760  A2 FF     LDX #$FF                        A:9B X:FF Y:13 P:25 SP:FB PPU:231, 57
F762  A9 A5     LDA #$A5                        A:9B X:FF Y:13 P:A5 SP:FB PPU:231, 63
F764  8D 47 06  STA $0647 = 9B                  A:A5 X:FF Y:13 P:A5 SP:FB PPU:231, 69
F767  20 E9 FA  JSR $FAE9                       A:A5 X:FF Y:13 P:A5 SP:FB PPU:231, 81
FAE9  24 01     BIT $01 = FF                    A:A5 X:FF Y:13 P:A5 SP:F9 PPU:231, 99
FAEB  18        CLC                             A:A5 X:FF Y:13 P:E5 SP:F9 PPU:231,108
FAEC  A9 B2     LDA #$B2                        A:A5 X:FF Y:13 P:E4 SP:F9 PPU:231,114
FAEE  60        RTS                             A:B2 X:FF Y:13 P:E4 SP:F9 PPU:231,120
F76A  7F 48 05 *RRA $0548,X @ 0647 = A5         A:B2 X:FF Y:13 P:E4 SP:FB PPU:231,138
F76D  EA        NOP                             A:05 X:FF Y:13 P:25 SP:FB PPU:231,159
F76E  EA        NOP                             A:05 X:FF Y:13 P:25 SP:FB PPU:231,165
F76F  EA        NOP                             A:05 X:FF Y:13 P:25 SP:FB PPU:231,171
F770  EA        NOP                             A:05 X:FF Y:13 P:25 SP:FB PPU:231,177
F771  20 EF FA  JSR $FAEF                       A:05 X:FF Y:13 P:25 SP:FB PPU:231,183
FAEF  70 2A     BVS $FB1B                       A:05 X:FF Y:13 P:25 SP:F9 PPU:231,201
FAF1  90 28     BCC $FB1B                       A:05 X:FF Y:13 P:25 SP:F9 PPU:231,207
FAF3  30 26     BMI $FB1B                       A:05 X:FF Y:13 P:25 SP:F9 PPU:231,213
FAF5  C9 05     CMP #$05                        A:05 X:FF Y:13 P:25 SP:F9 PPU:231,219
FAF7  D0 22     BNE $FB1B                       A:05 X:FF Y:13 P:27 SP:F9 PPU:231,225
FAF9  60        RTS                             A:05 X:FF Y:13 P:27 SP:F9 PPU:231,231
F774  AD 47 06  LDA $0647 = 52                  A:05 X:FF Y:13 P:27 SP:FB PPU:231,249
F777  C9 52     CMP #$52                        A:52 X:FF Y:13 P:25 SP:FB PPU:231,261
F779  F0 02     BEQ $F77D                       A:52 X:FF Y:13 P:27 SP:FB PPU:231,267
F77D  C8        INY                             A:52 X:FF Y:13 P:27 SP:FB PPU:231,276
F77E  A9 29     LDA #$29                        A:52 X:FF Y:14 P:25 SP:FB PPU:231,282
F780  8D 47 06  STA $0647 = 52                  A:29 X:FF Y:14 P:25 SP:FB PPU:231,288
F783  20 FA FA  JSR $FAFA                       A:29 X:FF Y:14 P:25 SP:FB PPU:231,300
FAFA  B8        CLV                             A:29 X:FF Y:14 P:25 SP:F9 PPU:231,318
FAFB  18        CLC                             A:29 X:FF Y:14 P:25 SP:F9 PPU:231,324
FAFC  A9 42     LDA #$42                        A:29 X:FF Y:14 P:24 SP:F9 PPU:231,330
FAFE  60        RTS                             A:42 X:FF Y:14 P:24 SP:F9 PPU:231,336
F786  7F 48 05 *RRA $0548,X @ 0647 = 29         A:42 X:FF Y:14 P:24 SP:FB PPU:232, 13
F789  EA        NOP                             A:57 X:FF Y:14 P:24 SP:FB PPU:232, 34
F78A  EA        NOP                             A:57 X:FF Y:14 P:24 SP:FB PPU:232, 40
F78B  EA        NOP                             A:57 X:FF Y:14 P:24 SP:FB PPU:232, 46
F78C  EA        NOP                             A:57 X:FF Y:14 P:24 SP:FB PPU:232, 52
F78D  20 FF FA  JSR $FAFF                       A:57 X:FF Y:14 P:24 SP:FB PPU:232, 58
FAFF  70 1A     BVS $FB1B                       A:57 X:FF Y:14 P:24 SP:F9 PPU:232, 76
FB01  30 18     BMI $FB1B                       A:57 X:FF Y:14 P:24 SP:F9 PPU:232, 82
FB03  B0 16     BCS $FB1B                       A:57 X:FF Y:14 P:24 SP:F9 PPU:232, 88
FB05  C9 57     CMP #$57                        A:57 X:FF Y:14 P:24 SP:F9 PPU:232, 94
FB07  D0 12     BNE $FB1B                       A:57 X:FF Y:14 P:27 SP:F9 PPU:232,100
FB09  60        RTS                             A:57 X:FF Y:14 P:27 SP:F9 PPU:232,106
F790  AD 47 06  LDA $0647 = 14                  A:57 X:FF Y:14 P:27 SP:FB PPU:232,124
F793  C9 14     CMP #$14                        A:14 X:FF Y:14 P:25 SP:FB PPU:232,136
F795  F0 02     BEQ $F799                       A:14 X:FF Y:14 P:27 SP:FB PPU:232,142
F799  C8        INY                             A:14 X:FF Y:14 P:27 SP:FB PPU:232,151
F79A  A9 37     LDA #$37                        A:14 X:FF Y:15 P:25 SP:FB PPU:232,157
F79C  8D 47 06  STA $0647 = 14                  A:37 X:FF Y:15 P:25 SP:FB PPU:232,163
F79F  20 0A FB  JSR $FB0A                       A:37 X:FF Y:15 P:25 SP:FB PPU:232,175
FB0A  24 01     BIT $01 = FF                    A:37 X:FF Y:15 P:25 SP:F9 PPU:232,193
FB0C  38        SEC                             A:37 X:FF Y:15 P:E5 SP:F9 PPU:232,202
FB0D  A9 75     LDA #$75                        A:37 X:FF Y:15 P:E5 SP:F9 PPU:232,208
FB0F  60        RTS                             A:75 X:FF Y:15 P:65 SP:F9 PPU:232,214
F7A2  7F 48 05 *RRA $0548,X @ 0647 = 37         A:75 X:FF Y:15 P:65 SP:FB PPU:232,232
F7A5  EA        NOP                             A:11 X:FF Y:15 P:25 SP:FB PPU:232,253
F7A6  EA        NOP                             A:11 X:FF Y:15 P:25 SP:FB PPU:232,259
F7A7  EA        NOP                             A:11 X:FF Y:15 P:25 SP:FB PPU:232,265
F7A8  EA        NOP                             A:11 X:FF Y:15 P:25 SP:FB PPU:232,271
F7A9  20 10 FB  JSR $FB10                       A:11 X:FF Y:15 P:25 SP:FB PPU:232,277
FB10  70 09     BVS $FB1B                       A:11 X:FF Y:15 P:25 SP:F9 PPU:232,295
FB12  30 07     BMI $FB1B                       A:11 X:FF Y:15 P:25 SP:F9 PPU:232,301
FB14  90 05     BCC $FB1B                       A:11 X:FF Y:15 P:25 SP:F9 PPU:232,307
FB16  C9 11     CMP #$11                        A:11 X:FF Y:15 P:25 SP:F9 PPU:232,313
FB18  D0 01     BNE $FB1B                       A:11 X:FF Y:15 P:27 SP:F9 PPU:232,319
FB1A  60        RTS                             A:11 X:FF Y:15 P:27 SP:F9 PPU:232,325
F7AC  AD 47 06  LDA $0647 = 9B                  A:11 X:FF Y:15 P:27 SP:FB PPU:233,  2
F7AF  C9 9B     CMP #$9B                        A:9B X:FF Y:15 P:A5 SP:FB PPU:233, 14
F7B1  F0 02     BEQ $F7B5                       A:9B X:FF Y:15 P:27 SP:FB PPU:233, 20
F7B5  60        RTS                             A:9B X:FF Y:15 P:27 SP:FB PPU:233, 29
C655  A5 00     LDA $00 = 00                    A:9B X:FF Y:15 P:27 SP:FD PPU:233, 47
C657  05 10     ORA $10 = 00                    A:00 X:FF Y:15 P:27 SP:FD PPU:233, 56
C659  05 11     ORA $11 = 00                    A:00 X:FF Y:15 P:27 SP:FD PPU:233, 65
C65B  F0 0E     BEQ $C66B                       A:00 X:FF Y:15 P:27 SP:FD PPU:233, 74
C66B  20 89 C6  JSR $C689                       A:00 X:FF Y:15 P:27 SP:FD PPU:233, 83
C689  A9 02     LDA #$02                        A:00 X:FF Y:15 P:27 SP:FB PPU:233,101
C68B  8D 15 40  STA $4015 = FF                  A:02 X:FF Y:15 P:25 SP:FB PPU:233,107
C68E  A9 3F     LDA #$3F                        A:02 X:FF Y:15 P:25 SP:FB PPU:233,119
C690  8D 04 40  STA $4004 = FF                  A:3F X:FF Y:15 P:25 SP:FB PPU:233,125
C693  A9 9A     LDA #$9A                        A:3F X:FF Y:15 P:25 SP:FB PPU:233,137
C695  8D 05 40  STA $4005 = FF                  A:9A X:FF Y:15 P:A5 SP:FB PPU:233,143
C698  A9 FF     LDA #$FF                        A:9A X:FF Y:15 P:A5 SP:FB PPU:233,155
C69A  8D 06 40  STA $4006 = FF                  A:FF X:FF Y:15 P:A5 SP:FB PPU:233,161
C69D  A9 00     LDA #$00                        A:FF X:FF Y:15 P:A5 SP:FB PPU:233,173
C69F  8D 07 40  STA $4007 = FF                  A:00 X:FF Y:15 P:27 SP:FB PPU:233,179
C6A2  60        RTS                             A:00 X:FF Y:15 P:27 SP:FB PPU:233,191
C66E  60        RTS                             A:00 X:FF Y:15 P:27 SP:FD PPU:233,209